TN:
SF:/usr/include/c++/9/bits/stl_iterator_base_types.h
FN:205,_ZSt19__iterator_categoryIPK4MoveENSt15iterator_traitsIT_E17iterator_categoryERKS4_
FNDA:47,_ZSt19__iterator_categoryIPK4MoveENSt15iterator_traitsIT_E17iterator_categoryERKS4_
FN:205,_ZSt19__iterator_categoryIN9__gnu_cxx17__normal_iteratorIPK4MoveSt6vectorIS2_SaIS2_EEEEENSt15iterator_traitsIT_E17iterator_categoryERKSA_
FNDA:79,_ZSt19__iterator_categoryIN9__gnu_cxx17__normal_iteratorIPK4MoveSt6vectorIS2_SaIS2_EEEEENSt15iterator_traitsIT_E17iterator_categoryERKSA_
DA:205,47
DA:206,47
DA:205,79
DA:206,79
end_of_record
SF:/usr/include/c++/9/bits/stl_algo.h
FN:112,_ZSt9__find_ifIN9__gnu_cxx17__normal_iteratorIPK4MoveSt6vectorIS2_SaIS2_EEEENS0_5__ops16_Iter_equals_valIS3_EEET_SC_SC_T0_St26random_access_iterator_tag
FNDA:79,_ZSt9__find_ifIN9__gnu_cxx17__normal_iteratorIPK4MoveSt6vectorIS2_SaIS2_EEEENS0_5__ops16_Iter_equals_valIS3_EEET_SC_SC_T0_St26random_access_iterator_tag
FN:159,_ZSt9__find_ifIN9__gnu_cxx17__normal_iteratorIPK4MoveSt6vectorIS2_SaIS2_EEEENS0_5__ops16_Iter_equals_valIS3_EEET_SC_SC_T0_
FNDA:79,_ZSt9__find_ifIN9__gnu_cxx17__normal_iteratorIPK4MoveSt6vectorIS2_SaIS2_EEEENS0_5__ops16_Iter_equals_valIS3_EEET_SC_SC_T0_
FN:3930,_ZSt4findIN9__gnu_cxx17__normal_iteratorIPK4MoveSt6vectorIS2_SaIS2_EEEES2_ET_S9_S9_RKT0_
FNDA:79,_ZSt4findIN9__gnu_cxx17__normal_iteratorIPK4MoveSt6vectorIS2_SaIS2_EEEES2_ET_S9_S9_RKT0_
DA:112,79
DA:116,79
DA:118,79
DA:120,0
DA:121,0
DA:122,0
DA:124,0
DA:125,0
DA:126,0
DA:128,0
DA:129,0
DA:130,0
DA:132,0
DA:133,0
DA:134,0
DA:137,79
DA:139,0
DA:140,0
DA:141,0
DA:142,0
DA:143,4
DA:144,4
DA:145,4
DA:146,0
DA:147,0
DA:148,0
DA:149,0
DA:150,0
DA:151,75
DA:153,75
DA:159,79
DA:161,79
DA:162,158
DA:3930,79
DA:3938,79
DA:3939,79
end_of_record
SF:/usr/include/c++/9/new
FN:173,_ZnwmPv
FNDA:0,_ZnwmPv
FN:179,_ZdlPvS_
FNDA:0,_ZdlPvS_
DA:173,0
DA:174,0
DA:179,0
end_of_record
SF:/usr/include/c++/9/bits/stl_iterator_base_funcs.h
FN:98,_ZSt10__distanceIPK4MoveENSt15iterator_traitsIT_E15difference_typeES4_S4_St26random_access_iterator_tag
FNDA:47,_ZSt10__distanceIPK4MoveENSt15iterator_traitsIT_E15difference_typeES4_S4_St26random_access_iterator_tag
FN:138,_ZSt8distanceIPK4MoveENSt15iterator_traitsIT_E15difference_typeES4_S4_
FNDA:47,_ZSt8distanceIPK4MoveENSt15iterator_traitsIT_E15difference_typeES4_S4_
DA:98,47
DA:104,47
DA:138,47
DA:141,47
DA:142,94
end_of_record
SF:/usr/include/c++/9/bits/vector.tcc
FN:198,_ZNSt6vectorI8PositionSaIS0_EEaSERKS2_
FNDA:0,_ZNSt6vectorI8PositionSaIS0_EEaSERKS2_
FN:426,_ZNSt6vectorI4MoveSaIS0_EE17_M_realloc_insertIJRKS0_EEEvN9__gnu_cxx17__normal_iteratorIPS0_S2_EEDpOT_
FNDA:0,_ZNSt6vectorI4MoveSaIS0_EE17_M_realloc_insertIJRKS0_EEEvN9__gnu_cxx17__normal_iteratorIPS0_S2_EEDpOT_
FN:426,_ZNSt6vectorI8PositionSaIS0_EE17_M_realloc_insertIJRKS0_EEEvN9__gnu_cxx17__normal_iteratorIPS0_S2_EEDpOT_
FNDA:532,_ZNSt6vectorI8PositionSaIS0_EE17_M_realloc_insertIJRKS0_EEEvN9__gnu_cxx17__normal_iteratorIPS0_S2_EEDpOT_
DA:198,0
DA:201,0
DA:205,0
DA:207,0
DA:208,0
DA:211,0
DA:212,0
DA:213,0
DA:214,0
DA:215,0
DA:216,0
DA:217,0
DA:219,0
DA:223,0
DA:224,0
DA:226,0
DA:228,0
DA:229,0
DA:230,0
DA:231,0
DA:232,0
DA:233,0
DA:234,0
DA:236,0
DA:238,0
DA:239,0
DA:243,0
DA:245,0
DA:246,0
DA:248,0
DA:250,0
DA:252,0
DA:426,0
DA:435,0
DA:437,0
DA:438,0
DA:439,0
DA:440,0
DA:441,0
DA:449,0
DA:450,0
DA:456,0
DA:459,0
DA:461,0
DA:462,0
DA:464,0
DA:466,0
DA:467,0
DA:474,0
DA:475,0
DA:477,0
DA:481,0
DA:482,0
DA:485,0
DA:487,0
DA:488,0
DA:489,0
DA:491,0
DA:492,0
DA:493,0
DA:496,0
DA:498,0
DA:500,0
DA:501,0
DA:502,0
DA:503,0
DA:504,0
DA:505,0
DA:426,532
DA:435,532
DA:437,532
DA:438,532
DA:439,532
DA:440,532
DA:441,532
DA:449,532
DA:450,532
DA:456,532
DA:459,532
DA:461,532
DA:462,532
DA:464,532
DA:466,532
DA:467,532
DA:474,0
DA:475,0
DA:477,0
DA:481,0
DA:482,0
DA:485,0
DA:487,0
DA:488,0
DA:489,0
DA:491,0
DA:492,0
DA:493,0
DA:496,532
DA:498,0
DA:500,532
DA:501,532
DA:502,532
DA:503,532
DA:504,532
DA:505,532
end_of_record
SF:/usr/include/c++/9/iostream
end_of_record
SF:/usr/include/c++/9/bits/predefined_ops.h
FN:234,_ZN9__gnu_cxx5__ops16_Iter_equals_valIK4MoveEC2ERS3_
FNDA:79,_ZN9__gnu_cxx5__ops16_Iter_equals_valIK4MoveEC2ERS3_
FN:240,_ZN9__gnu_cxx5__ops16_Iter_equals_valIK4MoveEclINS_17__normal_iteratorIPS3_St6vectorIS2_SaIS2_EEEEEEbT_
FNDA:4,_ZN9__gnu_cxx5__ops16_Iter_equals_valIK4MoveEclINS_17__normal_iteratorIPS3_St6vectorIS2_SaIS2_EEEEEEbT_
FN:246,_ZN9__gnu_cxx5__ops17__iter_equals_valIK4MoveEENS0_16_Iter_equals_valIT_EERS5_
FNDA:79,_ZN9__gnu_cxx5__ops17__iter_equals_valIK4MoveEENS0_16_Iter_equals_valIT_EERS5_
DA:234,79
DA:235,79
DA:236,79
DA:240,4
DA:241,4
DA:246,79
DA:247,79
end_of_record
SF:/usr/include/c++/9/bits/allocator.h
FN:138,_ZNSaI8PositionEC2Ev
FNDA:0,_ZNSaI8PositionEC2Ev
FN:138,_ZNSaI4MoveEC2Ev
FNDA:0,_ZNSaI4MoveEC2Ev
FN:141,_ZNSaI4MoveEC2ERKS0_
FNDA:0,_ZNSaI4MoveEC2ERKS0_
FN:141,_ZNSaI8PositionEC2ERKS0_
FNDA:0,_ZNSaI8PositionEC2ERKS0_
FN:153,_ZNSaI4MoveED2Ev
FNDA:0,_ZNSaI4MoveED2Ev
FN:153,_ZNSaI8PositionED2Ev
FNDA:0,_ZNSaI8PositionED2Ev
FN:160,_ZStneRKSaI8PositionES2_
FNDA:0,_ZStneRKSaI8PositionES2_
DA:138,0
DA:138,0
DA:141,0
DA:142,0
DA:141,0
DA:142,0
DA:153,0
DA:153,0
DA:160,0
DA:161,0
end_of_record
SF:/usr/include/c++/9/bits/stl_iterator.h
FN:806,_ZN9__gnu_cxx17__normal_iteratorIP8PositionSt6vectorIS1_SaIS1_EEEC2ERKS2_
FNDA:0,_ZN9__gnu_cxx17__normal_iteratorIP8PositionSt6vectorIS1_SaIS1_EEEC2ERKS2_
FN:806,_ZN9__gnu_cxx17__normal_iteratorIPK4MoveSt6vectorIS1_SaIS1_EEEC2ERKS3_
FNDA:0,_ZN9__gnu_cxx17__normal_iteratorIPK4MoveSt6vectorIS1_SaIS1_EEEC2ERKS3_
FN:806,_ZN9__gnu_cxx17__normal_iteratorIP4MoveSt6vectorIS1_SaIS1_EEEC2ERKS2_
FNDA:0,_ZN9__gnu_cxx17__normal_iteratorIP4MoveSt6vectorIS1_SaIS1_EEEC2ERKS2_
FN:806,_ZN9__gnu_cxx17__normal_iteratorIPK8PositionSt6vectorIS1_SaIS1_EEEC2ERKS3_
FNDA:0,_ZN9__gnu_cxx17__normal_iteratorIPK8PositionSt6vectorIS1_SaIS1_EEEC2ERKS3_
FN:819,_ZNK9__gnu_cxx17__normal_iteratorIP4MoveSt6vectorIS1_SaIS1_EEEdeEv
FNDA:0,_ZNK9__gnu_cxx17__normal_iteratorIP4MoveSt6vectorIS1_SaIS1_EEEdeEv
FN:819,_ZNK9__gnu_cxx17__normal_iteratorIP8PositionSt6vectorIS1_SaIS1_EEEdeEv
FNDA:0,_ZNK9__gnu_cxx17__normal_iteratorIP8PositionSt6vectorIS1_SaIS1_EEEdeEv
FN:819,_ZNK9__gnu_cxx17__normal_iteratorIPK4MoveSt6vectorIS1_SaIS1_EEEdeEv
FNDA:0,_ZNK9__gnu_cxx17__normal_iteratorIPK4MoveSt6vectorIS1_SaIS1_EEEdeEv
FN:819,_ZNK9__gnu_cxx17__normal_iteratorIPK8PositionSt6vectorIS1_SaIS1_EEEdeEv
FNDA:0,_ZNK9__gnu_cxx17__normal_iteratorIPK8PositionSt6vectorIS1_SaIS1_EEEdeEv
FN:827,_ZN9__gnu_cxx17__normal_iteratorIP4MoveSt6vectorIS1_SaIS1_EEEppEv
FNDA:0,_ZN9__gnu_cxx17__normal_iteratorIP4MoveSt6vectorIS1_SaIS1_EEEppEv
FN:827,_ZN9__gnu_cxx17__normal_iteratorIPK4MoveSt6vectorIS1_SaIS1_EEEppEv
FNDA:0,_ZN9__gnu_cxx17__normal_iteratorIPK4MoveSt6vectorIS1_SaIS1_EEEppEv
FN:827,_ZN9__gnu_cxx17__normal_iteratorIP8PositionSt6vectorIS1_SaIS1_EEEppEv
FNDA:0,_ZN9__gnu_cxx17__normal_iteratorIP8PositionSt6vectorIS1_SaIS1_EEEppEv
FN:827,_ZN9__gnu_cxx17__normal_iteratorIPK8PositionSt6vectorIS1_SaIS1_EEEppEv
FNDA:0,_ZN9__gnu_cxx17__normal_iteratorIPK8PositionSt6vectorIS1_SaIS1_EEEppEv
FN:859,_ZNK9__gnu_cxx17__normal_iteratorIP8PositionSt6vectorIS1_SaIS1_EEEplEl
FNDA:0,_ZNK9__gnu_cxx17__normal_iteratorIP8PositionSt6vectorIS1_SaIS1_EEEplEl
FN:871,_ZNK9__gnu_cxx17__normal_iteratorIP8PositionSt6vectorIS1_SaIS1_EEE4baseEv
FNDA:0,_ZNK9__gnu_cxx17__normal_iteratorIP8PositionSt6vectorIS1_SaIS1_EEE4baseEv
FN:871,_ZNK9__gnu_cxx17__normal_iteratorIPK8PositionSt6vectorIS1_SaIS1_EEE4baseEv
FNDA:0,_ZNK9__gnu_cxx17__normal_iteratorIPK8PositionSt6vectorIS1_SaIS1_EEE4baseEv
FN:871,_ZNK9__gnu_cxx17__normal_iteratorIPK4MoveSt6vectorIS1_SaIS1_EEE4baseEv
FNDA:0,_ZNK9__gnu_cxx17__normal_iteratorIPK4MoveSt6vectorIS1_SaIS1_EEE4baseEv
FN:871,_ZNK9__gnu_cxx17__normal_iteratorIP4MoveSt6vectorIS1_SaIS1_EEE4baseEv
FNDA:0,_ZNK9__gnu_cxx17__normal_iteratorIP4MoveSt6vectorIS1_SaIS1_EEE4baseEv
FN:893,_ZN9__gnu_cxxeqIPK8PositionSt6vectorIS1_SaIS1_EEEEbRKNS_17__normal_iteratorIT_T0_EESC_
FNDA:0,_ZN9__gnu_cxxeqIPK8PositionSt6vectorIS1_SaIS1_EEEEbRKNS_17__normal_iteratorIT_T0_EESC_
FN:893,_ZN9__gnu_cxxeqIPK4MoveSt6vectorIS1_SaIS1_EEEEbRKNS_17__normal_iteratorIT_T0_EESC_
FNDA:0,_ZN9__gnu_cxxeqIPK4MoveSt6vectorIS1_SaIS1_EEEEbRKNS_17__normal_iteratorIT_T0_EESC_
FN:907,_ZN9__gnu_cxxneIP4MoveSt6vectorIS1_SaIS1_EEEEbRKNS_17__normal_iteratorIT_T0_EESB_
FNDA:0,_ZN9__gnu_cxxneIP4MoveSt6vectorIS1_SaIS1_EEEEbRKNS_17__normal_iteratorIT_T0_EESB_
FN:907,_ZN9__gnu_cxxneIPK8PositionSt6vectorIS1_SaIS1_EEEEbRKNS_17__normal_iteratorIT_T0_EESC_
FNDA:0,_ZN9__gnu_cxxneIPK8PositionSt6vectorIS1_SaIS1_EEEEbRKNS_17__normal_iteratorIT_T0_EESC_
FN:907,_ZN9__gnu_cxxneIPK4MoveSt6vectorIS1_SaIS1_EEEEbRKNS_17__normal_iteratorIT_T0_EESC_
FNDA:0,_ZN9__gnu_cxxneIPK4MoveSt6vectorIS1_SaIS1_EEEEbRKNS_17__normal_iteratorIT_T0_EESC_
FN:907,_ZN9__gnu_cxxneIP8PositionSt6vectorIS1_SaIS1_EEEEbRKNS_17__normal_iteratorIT_T0_EESB_
FNDA:0,_ZN9__gnu_cxxneIP8PositionSt6vectorIS1_SaIS1_EEEEbRKNS_17__normal_iteratorIT_T0_EESB_
FN:989,_ZN9__gnu_cxxmiIPK4MoveSt6vectorIS1_SaIS1_EEEENS_17__normal_iteratorIT_T0_E15difference_typeERKSA_SD_
FNDA:158,_ZN9__gnu_cxxmiIPK4MoveSt6vectorIS1_SaIS1_EEEENS_17__normal_iteratorIT_T0_E15difference_typeERKSA_SD_
FN:989,_ZN9__gnu_cxxmiIP4MoveSt6vectorIS1_SaIS1_EEEENS_17__normal_iteratorIT_T0_E15difference_typeERKS9_SC_
FNDA:0,_ZN9__gnu_cxxmiIP4MoveSt6vectorIS1_SaIS1_EEEENS_17__normal_iteratorIT_T0_E15difference_typeERKS9_SC_
FN:989,_ZN9__gnu_cxxmiIP8PositionSt6vectorIS1_SaIS1_EEEENS_17__normal_iteratorIT_T0_E15difference_typeERKS9_SC_
FNDA:532,_ZN9__gnu_cxxmiIP8PositionSt6vectorIS1_SaIS1_EEEENS_17__normal_iteratorIT_T0_E15difference_typeERKS9_SC_
FN:1010,_ZSt12__niter_baseIP8PositionSt6vectorIS0_SaIS0_EEET_N9__gnu_cxx17__normal_iteratorIS5_T0_EE
FNDA:0,_ZSt12__niter_baseIP8PositionSt6vectorIS0_SaIS0_EEET_N9__gnu_cxx17__normal_iteratorIS5_T0_EE
FN:1010,_ZSt12__niter_baseIPK8PositionSt6vectorIS0_SaIS0_EEET_N9__gnu_cxx17__normal_iteratorIS6_T0_EE
FNDA:0,_ZSt12__niter_baseIPK8PositionSt6vectorIS0_SaIS0_EEET_N9__gnu_cxx17__normal_iteratorIS6_T0_EE
FN:1010,_ZSt12__niter_baseIPK4MoveSt6vectorIS0_SaIS0_EEET_N9__gnu_cxx17__normal_iteratorIS6_T0_EE
FNDA:0,_ZSt12__niter_baseIPK4MoveSt6vectorIS0_SaIS0_EEET_N9__gnu_cxx17__normal_iteratorIS6_T0_EE
FN:1057,_ZNSt13move_iteratorIP8PositionEC2ES1_
FNDA:0,_ZNSt13move_iteratorIP8PositionEC2ES1_
FN:1057,_ZNSt13move_iteratorIP4MoveEC2ES1_
FNDA:0,_ZNSt13move_iteratorIP4MoveEC2ES1_
FN:1066,_ZNKSt13move_iteratorIP8PositionE4baseEv
FNDA:0,_ZNKSt13move_iteratorIP8PositionE4baseEv
FN:1066,_ZNKSt13move_iteratorIP4MoveE4baseEv
FNDA:0,_ZNKSt13move_iteratorIP4MoveE4baseEv
FN:1070,_ZNKSt13move_iteratorIP8PositionEdeEv
FNDA:0,_ZNKSt13move_iteratorIP8PositionEdeEv
FN:1070,_ZNKSt13move_iteratorIP4MoveEdeEv
FNDA:0,_ZNKSt13move_iteratorIP4MoveEdeEv
FN:1078,_ZNSt13move_iteratorIP8PositionEppEv
FNDA:0,_ZNSt13move_iteratorIP8PositionEppEv
FN:1078,_ZNSt13move_iteratorIP4MoveEppEv
FNDA:0,_ZNSt13move_iteratorIP4MoveEppEv
FN:1145,_ZSteqIP8PositionEbRKSt13move_iteratorIT_ES6_
FNDA:0,_ZSteqIP8PositionEbRKSt13move_iteratorIT_ES6_
FN:1145,_ZSteqIP4MoveEbRKSt13move_iteratorIT_ES6_
FNDA:0,_ZSteqIP4MoveEbRKSt13move_iteratorIT_ES6_
FN:1157,_ZStneIP8PositionEbRKSt13move_iteratorIT_ES6_
FNDA:0,_ZStneIP8PositionEbRKSt13move_iteratorIT_ES6_
FN:1157,_ZStneIP4MoveEbRKSt13move_iteratorIT_ES6_
FNDA:0,_ZStneIP4MoveEbRKSt13move_iteratorIT_ES6_
FN:1242,_ZSt32__make_move_if_noexcept_iteratorI8PositionSt13move_iteratorIPS0_EET0_PT_
FNDA:0,_ZSt32__make_move_if_noexcept_iteratorI8PositionSt13move_iteratorIPS0_EET0_PT_
FN:1242,_ZSt32__make_move_if_noexcept_iteratorI4MoveSt13move_iteratorIPS0_EET0_PT_
FNDA:0,_ZSt32__make_move_if_noexcept_iteratorI4MoveSt13move_iteratorIPS0_EET0_PT_
DA:806,0
DA:807,0
DA:806,0
DA:807,0
DA:806,0
DA:807,0
DA:806,0
DA:807,0
DA:819,0
DA:820,0
DA:819,0
DA:820,0
DA:819,0
DA:820,0
DA:819,0
DA:820,0
DA:827,0
DA:829,0
DA:830,0
DA:827,0
DA:829,0
DA:830,0
DA:827,0
DA:829,0
DA:830,0
DA:827,0
DA:829,0
DA:830,0
DA:859,0
DA:860,0
DA:871,0
DA:872,0
DA:871,0
DA:872,0
DA:871,0
DA:872,0
DA:871,0
DA:872,0
DA:893,0
DA:896,0
DA:893,0
DA:896,0
DA:907,0
DA:910,0
DA:907,0
DA:910,0
DA:907,0
DA:910,0
DA:907,0
DA:910,0
DA:989,158
DA:992,158
DA:989,0
DA:992,0
DA:989,532
DA:992,532
DA:1010,0
DA:1012,0
DA:1010,0
DA:1012,0
DA:1010,0
DA:1012,0
DA:1057,0
DA:1058,0
DA:1057,0
DA:1058,0
DA:1066,0
DA:1067,0
DA:1066,0
DA:1067,0
DA:1070,0
DA:1071,0
DA:1070,0
DA:1071,0
DA:1078,0
DA:1080,0
DA:1081,0
DA:1078,0
DA:1080,0
DA:1081,0
DA:1145,0
DA:1147,0
DA:1145,0
DA:1147,0
DA:1157,0
DA:1159,0
DA:1157,0
DA:1159,0
DA:1242,0
DA:1243,0
DA:1242,0
DA:1243,0
end_of_record
SF:/usr/include/c++/9/bits/stl_vector.h
FN:94,_ZNSt12_Vector_baseI8PositionSaIS0_EE17_Vector_impl_dataC2Ev
FNDA:0,_ZNSt12_Vector_baseI8PositionSaIS0_EE17_Vector_impl_dataC2Ev
FN:94,_ZNSt12_Vector_baseI4MoveSaIS0_EE17_Vector_impl_dataC2Ev
FNDA:0,_ZNSt12_Vector_baseI4MoveSaIS0_EE17_Vector_impl_dataC2Ev
FN:99,_ZNSt12_Vector_baseI8PositionSaIS0_EE17_Vector_impl_dataC2EOS3_
FNDA:0,_ZNSt12_Vector_baseI8PositionSaIS0_EE17_Vector_impl_dataC2EOS3_
FN:99,_ZNSt12_Vector_baseI4MoveSaIS0_EE17_Vector_impl_dataC2EOS3_
FNDA:0,_ZNSt12_Vector_baseI4MoveSaIS0_EE17_Vector_impl_dataC2EOS3_
FN:128,_ZNSt12_Vector_baseI8PositionSaIS0_EE12_Vector_implC2Ev
FNDA:0,_ZNSt12_Vector_baseI8PositionSaIS0_EE12_Vector_implC2Ev
FN:128,_ZNSt12_Vector_baseI4MoveSaIS0_EE12_Vector_implC2Ev
FNDA:0,_ZNSt12_Vector_baseI4MoveSaIS0_EE12_Vector_implC2Ev
FN:133,_ZNSt12_Vector_baseI4MoveSaIS0_EE12_Vector_implC2ERKS1_
FNDA:0,_ZNSt12_Vector_baseI4MoveSaIS0_EE12_Vector_implC2ERKS1_
FN:133,_ZNSt12_Vector_baseI8PositionSaIS0_EE12_Vector_implC2ERKS1_
FNDA:0,_ZNSt12_Vector_baseI8PositionSaIS0_EE12_Vector_implC2ERKS1_
FN:140,_ZNSt12_Vector_baseI8PositionSaIS0_EE12_Vector_implC2EOS3_
FNDA:0,_ZNSt12_Vector_baseI8PositionSaIS0_EE12_Vector_implC2EOS3_
FN:140,_ZNSt12_Vector_baseI4MoveSaIS0_EE12_Vector_implC2EOS3_
FNDA:0,_ZNSt12_Vector_baseI4MoveSaIS0_EE12_Vector_implC2EOS3_
FN:273,_ZNSt12_Vector_baseI8PositionSaIS0_EE19_M_get_Tp_allocatorEv
FNDA:0,_ZNSt12_Vector_baseI8PositionSaIS0_EE19_M_get_Tp_allocatorEv
FN:273,_ZNSt12_Vector_baseI4MoveSaIS0_EE19_M_get_Tp_allocatorEv
FNDA:0,_ZNSt12_Vector_baseI4MoveSaIS0_EE19_M_get_Tp_allocatorEv
FN:277,_ZNKSt12_Vector_baseI8PositionSaIS0_EE19_M_get_Tp_allocatorEv
FNDA:0,_ZNKSt12_Vector_baseI8PositionSaIS0_EE19_M_get_Tp_allocatorEv
FN:277,_ZNKSt12_Vector_baseI4MoveSaIS0_EE19_M_get_Tp_allocatorEv
FNDA:0,_ZNKSt12_Vector_baseI4MoveSaIS0_EE19_M_get_Tp_allocatorEv
FN:285,_ZNSt12_Vector_baseI8PositionSaIS0_EEC2Ev
FNDA:0,_ZNSt12_Vector_baseI8PositionSaIS0_EEC2Ev
FN:285,_ZNSt12_Vector_baseI4MoveSaIS0_EEC2Ev
FNDA:0,_ZNSt12_Vector_baseI4MoveSaIS0_EEC2Ev
FN:290,_ZNSt12_Vector_baseI4MoveSaIS0_EEC2ERKS1_
FNDA:0,_ZNSt12_Vector_baseI4MoveSaIS0_EEC2ERKS1_
FN:300,_ZNSt12_Vector_baseI8PositionSaIS0_EEC2EmRKS1_
FNDA:0,_ZNSt12_Vector_baseI8PositionSaIS0_EEC2EmRKS1_
FN:300,_ZNSt12_Vector_baseI4MoveSaIS0_EEC2EmRKS1_
FNDA:0,_ZNSt12_Vector_baseI4MoveSaIS0_EEC2EmRKS1_
FN:305,_ZNSt12_Vector_baseI4MoveSaIS0_EEC2EOS2_
FNDA:0,_ZNSt12_Vector_baseI4MoveSaIS0_EEC2EOS2_
FN:305,_ZNSt12_Vector_baseI8PositionSaIS0_EEC2EOS2_
FNDA:0,_ZNSt12_Vector_baseI8PositionSaIS0_EEC2EOS2_
FN:330,_ZNSt12_Vector_baseI8PositionSaIS0_EED2Ev
FNDA:0,_ZNSt12_Vector_baseI8PositionSaIS0_EED2Ev
FN:330,_ZNSt12_Vector_baseI4MoveSaIS0_EED2Ev
FNDA:0,_ZNSt12_Vector_baseI4MoveSaIS0_EED2Ev
FN:340,_ZNSt12_Vector_baseI8PositionSaIS0_EE11_M_allocateEm
FNDA:0,_ZNSt12_Vector_baseI8PositionSaIS0_EE11_M_allocateEm
FN:340,_ZNSt12_Vector_baseI4MoveSaIS0_EE11_M_allocateEm
FNDA:0,_ZNSt12_Vector_baseI4MoveSaIS0_EE11_M_allocateEm
FN:347,_ZNSt12_Vector_baseI8PositionSaIS0_EE13_M_deallocateEPS0_m
FNDA:0,_ZNSt12_Vector_baseI8PositionSaIS0_EE13_M_deallocateEPS0_m
FN:347,_ZNSt12_Vector_baseI4MoveSaIS0_EE13_M_deallocateEPS0_m
FNDA:0,_ZNSt12_Vector_baseI4MoveSaIS0_EE13_M_deallocateEPS0_m
FN:356,_ZNSt12_Vector_baseI4MoveSaIS0_EE17_M_create_storageEm
FNDA:0,_ZNSt12_Vector_baseI4MoveSaIS0_EE17_M_create_storageEm
FN:356,_ZNSt12_Vector_baseI8PositionSaIS0_EE17_M_create_storageEm
FNDA:0,_ZNSt12_Vector_baseI8PositionSaIS0_EE17_M_create_storageEm
FN:428,_ZNSt6vectorI4MoveSaIS0_EE19_S_nothrow_relocateESt17integral_constantIbLb1EE
FNDA:0,_ZNSt6vectorI4MoveSaIS0_EE19_S_nothrow_relocateESt17integral_constantIbLb1EE
FN:428,_ZNSt6vectorI8PositionSaIS0_EE19_S_nothrow_relocateESt17integral_constantIbLb1EE
FNDA:1064,_ZNSt6vectorI8PositionSaIS0_EE19_S_nothrow_relocateESt17integral_constantIbLb1EE
FN:441,_ZNSt6vectorI8PositionSaIS0_EE15_S_use_relocateEv
FNDA:1064,_ZNSt6vectorI8PositionSaIS0_EE15_S_use_relocateEv
FN:441,_ZNSt6vectorI4MoveSaIS0_EE15_S_use_relocateEv
FNDA:0,_ZNSt6vectorI4MoveSaIS0_EE15_S_use_relocateEv
FN:450,_ZNSt6vectorI4MoveSaIS0_EE14_S_do_relocateEPS0_S3_S3_RS1_St17integral_constantIbLb1EE
FNDA:0,_ZNSt6vectorI4MoveSaIS0_EE14_S_do_relocateEPS0_S3_S3_RS1_St17integral_constantIbLb1EE
FN:450,_ZNSt6vectorI8PositionSaIS0_EE14_S_do_relocateEPS0_S3_S3_RS1_St17integral_constantIbLb1EE
FNDA:1064,_ZNSt6vectorI8PositionSaIS0_EE14_S_do_relocateEPS0_S3_S3_RS1_St17integral_constantIbLb1EE
FN:462,_ZNSt6vectorI8PositionSaIS0_EE11_S_relocateEPS0_S3_S3_RS1_
FNDA:1064,_ZNSt6vectorI8PositionSaIS0_EE11_S_relocateEPS0_S3_S3_RS1_
FN:462,_ZNSt6vectorI4MoveSaIS0_EE11_S_relocateEPS0_S3_S3_RS1_
FNDA:0,_ZNSt6vectorI4MoveSaIS0_EE11_S_relocateEPS0_S3_S3_RS1_
FN:484,_ZNSt6vectorI8PositionSaIS0_EEC2Ev
FNDA:0,_ZNSt6vectorI8PositionSaIS0_EEC2Ev
FN:484,_ZNSt6vectorI4MoveSaIS0_EEC2Ev
FNDA:0,_ZNSt6vectorI4MoveSaIS0_EEC2Ev
FN:550,_ZNSt6vectorI8PositionSaIS0_EEC2ERKS2_
FNDA:0,_ZNSt6vectorI8PositionSaIS0_EEC2ERKS2_
FN:550,_ZNSt6vectorI4MoveSaIS0_EEC2ERKS2_
FNDA:0,_ZNSt6vectorI4MoveSaIS0_EEC2ERKS2_
FN:569,_ZNSt6vectorI4MoveSaIS0_EEC2EOS2_
FNDA:0,_ZNSt6vectorI4MoveSaIS0_EEC2EOS2_
FN:569,_ZNSt6vectorI8PositionSaIS0_EEC2EOS2_
FNDA:0,_ZNSt6vectorI8PositionSaIS0_EEC2EOS2_
FN:622,_ZNSt6vectorI4MoveSaIS0_EEC2ESt16initializer_listIS0_ERKS1_
FNDA:47,_ZNSt6vectorI4MoveSaIS0_EEC2ESt16initializer_listIS0_ERKS1_
FN:675,_ZNSt6vectorI8PositionSaIS0_EED2Ev
FNDA:0,_ZNSt6vectorI8PositionSaIS0_EED2Ev
FN:675,_ZNSt6vectorI4MoveSaIS0_EED2Ev
FNDA:0,_ZNSt6vectorI4MoveSaIS0_EED2Ev
FN:808,_ZNSt6vectorI8PositionSaIS0_EE5beginEv
FNDA:0,_ZNSt6vectorI8PositionSaIS0_EE5beginEv
FN:808,_ZNSt6vectorI4MoveSaIS0_EE5beginEv
FNDA:0,_ZNSt6vectorI4MoveSaIS0_EE5beginEv
FN:817,_ZNKSt6vectorI4MoveSaIS0_EE5beginEv
FNDA:0,_ZNKSt6vectorI4MoveSaIS0_EE5beginEv
FN:817,_ZNKSt6vectorI8PositionSaIS0_EE5beginEv
FNDA:0,_ZNKSt6vectorI8PositionSaIS0_EE5beginEv
FN:826,_ZNSt6vectorI8PositionSaIS0_EE3endEv
FNDA:0,_ZNSt6vectorI8PositionSaIS0_EE3endEv
FN:826,_ZNSt6vectorI4MoveSaIS0_EE3endEv
FNDA:0,_ZNSt6vectorI4MoveSaIS0_EE3endEv
FN:835,_ZNKSt6vectorI8PositionSaIS0_EE3endEv
FNDA:0,_ZNKSt6vectorI8PositionSaIS0_EE3endEv
FN:835,_ZNKSt6vectorI4MoveSaIS0_EE3endEv
FNDA:0,_ZNKSt6vectorI4MoveSaIS0_EE3endEv
FN:915,_ZNKSt6vectorI4MoveSaIS0_EE4sizeEv
FNDA:0,_ZNKSt6vectorI4MoveSaIS0_EE4sizeEv
FN:915,_ZNKSt6vectorI8PositionSaIS0_EE4sizeEv
FNDA:0,_ZNKSt6vectorI8PositionSaIS0_EE4sizeEv
FN:920,_ZNKSt6vectorI8PositionSaIS0_EE8max_sizeEv
FNDA:1064,_ZNKSt6vectorI8PositionSaIS0_EE8max_sizeEv
FN:920,_ZNKSt6vectorI4MoveSaIS0_EE8max_sizeEv
FNDA:0,_ZNKSt6vectorI4MoveSaIS0_EE8max_sizeEv
FN:995,_ZNKSt6vectorI8PositionSaIS0_EE8capacityEv
FNDA:0,_ZNKSt6vectorI8PositionSaIS0_EE8capacityEv
FN:1004,_ZNKSt6vectorI4MoveSaIS0_EE5emptyEv
FNDA:0,_ZNKSt6vectorI4MoveSaIS0_EE5emptyEv
FN:1004,_ZNKSt6vectorI8PositionSaIS0_EE5emptyEv
FNDA:0,_ZNKSt6vectorI8PositionSaIS0_EE5emptyEv
FN:1184,_ZNSt6vectorI8PositionSaIS0_EE9push_backERKS0_
FNDA:533,_ZNSt6vectorI8PositionSaIS0_EE9push_backERKS0_
FN:1184,_ZNSt6vectorI4MoveSaIS0_EE9push_backERKS0_
FNDA:0,_ZNSt6vectorI4MoveSaIS0_EE9push_backERKS0_
FN:1495,_ZNSt6vectorI8PositionSaIS0_EE5clearEv
FNDA:0,_ZNSt6vectorI8PositionSaIS0_EE5clearEv
FN:1505,_ZNSt6vectorI8PositionSaIS0_EE20_M_allocate_and_copyIN9__gnu_cxx17__normal_iteratorIPKS0_S2_EEEEPS0_mT_SA_
FNDA:0,_ZNSt6vectorI8PositionSaIS0_EE20_M_allocate_and_copyIN9__gnu_cxx17__normal_iteratorIPKS0_S2_EEEEPS0_mT_SA_
FN:1574,_ZNSt6vectorI4MoveSaIS0_EE19_M_range_initializeIPKS0_EEvT_S6_St20forward_iterator_tag
FNDA:47,_ZNSt6vectorI4MoveSaIS0_EE19_M_range_initializeIPKS0_EEvT_S6_St20forward_iterator_tag
FN:1753,_ZNKSt6vectorI8PositionSaIS0_EE12_M_check_lenEmPKc
FNDA:532,_ZNKSt6vectorI8PositionSaIS0_EE12_M_check_lenEmPKc
FN:1753,_ZNKSt6vectorI4MoveSaIS0_EE12_M_check_lenEmPKc
FNDA:0,_ZNKSt6vectorI4MoveSaIS0_EE12_M_check_lenEmPKc
FN:1764,_ZNSt6vectorI4MoveSaIS0_EE17_S_check_init_lenEmRKS1_
FNDA:47,_ZNSt6vectorI4MoveSaIS0_EE17_S_check_init_lenEmRKS1_
FN:1773,_ZNSt6vectorI4MoveSaIS0_EE11_S_max_sizeERKS1_
FNDA:0,_ZNSt6vectorI4MoveSaIS0_EE11_S_max_sizeERKS1_
FN:1773,_ZNSt6vectorI8PositionSaIS0_EE11_S_max_sizeERKS1_
FNDA:1064,_ZNSt6vectorI8PositionSaIS0_EE11_S_max_sizeERKS1_
FN:1789,_ZNSt6vectorI8PositionSaIS0_EE15_M_erase_at_endEPS0_
FNDA:0,_ZNSt6vectorI8PositionSaIS0_EE15_M_erase_at_endEPS0_
FN:1888,_ZSteqI4MoveSaIS0_EEbRKSt6vectorIT_T0_ES7_
FNDA:1898,_ZSteqI4MoveSaIS0_EEbRKSt6vectorIT_T0_ES7_
FN:1888,_ZSteqI8PositionSaIS0_EEbRKSt6vectorIT_T0_ES7_
FNDA:1898,_ZSteqI8PositionSaIS0_EEbRKSt6vectorIT_T0_ES7_
DA:94,0
DA:95,0
DA:96,0
DA:94,0
DA:95,0
DA:96,0
DA:99,0
DA:100,0
DA:101,0
DA:102,0
DA:99,0
DA:100,0
DA:101,0
DA:102,0
DA:128,0
DA:130,0
DA:131,0
DA:128,0
DA:130,0
DA:131,0
DA:133,0
DA:134,0
DA:135,0
DA:133,0
DA:134,0
DA:135,0
DA:140,0
DA:141,0
DA:142,0
DA:140,0
DA:141,0
DA:142,0
DA:273,0
DA:274,0
DA:273,0
DA:274,0
DA:277,0
DA:278,0
DA:277,0
DA:278,0
DA:285,0
DA:285,0
DA:290,0
DA:291,0
DA:300,0
DA:301,0
DA:302,0
DA:300,0
DA:301,0
DA:302,0
DA:305,0
DA:305,0
DA:330,0
DA:332,0
DA:333,0
DA:334,0
DA:330,0
DA:332,0
DA:333,0
DA:334,0
DA:340,0
DA:343,0
DA:340,0
DA:343,0
DA:347,0
DA:350,0
DA:351,0
DA:352,0
DA:347,0
DA:350,0
DA:351,0
DA:352,0
DA:356,0
DA:358,0
DA:359,0
DA:360,0
DA:361,0
DA:356,0
DA:358,0
DA:359,0
DA:360,0
DA:361,0
DA:428,0
DA:433,0
DA:428,1064
DA:433,1064
DA:441,0
DA:446,0
DA:441,1064
DA:446,1064
DA:450,0
DA:453,0
DA:450,1064
DA:453,1064
DA:462,0
DA:466,0
DA:462,1064
DA:466,1064
DA:484,0
DA:484,0
DA:550,0
DA:552,0
DA:554,0
DA:555,0
DA:557,0
DA:558,0
DA:550,0
DA:552,0
DA:554,0
DA:555,0
DA:557,0
DA:558,0
DA:569,0
DA:569,0
DA:622,47
DA:624,47
DA:626,47
DA:628,47
DA:675,0
DA:677,0
DA:678,0
DA:680,0
DA:675,0
DA:677,0
DA:678,0
DA:680,0
DA:808,0
DA:809,0
DA:808,0
DA:809,0
DA:817,0
DA:818,0
DA:817,0
DA:818,0
DA:826,0
DA:827,0
DA:826,0
DA:827,0
DA:835,0
DA:836,0
DA:835,0
DA:836,0
DA:915,0
DA:916,0
DA:915,0
DA:916,0
DA:920,0
DA:921,0
DA:920,1064
DA:921,1064
DA:995,0
DA:996,0
DA:997,0
DA:1004,0
DA:1005,0
DA:1004,0
DA:1005,0
DA:1184,0
DA:1186,0
DA:1189,0
DA:1191,0
DA:1195,0
DA:1196,0
DA:1184,533
DA:1186,533
DA:1189,1
DA:1191,1
DA:1195,532
DA:1196,533
DA:1495,0
DA:1496,0
DA:1505,0
DA:1508,0
DA:1511,0
DA:1512,0
DA:1513,0
DA:1515,0
DA:1517,0
DA:1518,0
DA:1574,47
DA:1577,47
DA:1578,47
DA:1579,47
DA:1580,47
DA:1581,47
DA:1582,47
DA:1584,47
DA:1585,47
DA:1753,0
DA:1755,0
DA:1756,0
DA:1758,0
DA:1759,0
DA:1753,532
DA:1755,532
DA:1756,0
DA:1758,532
DA:1759,532
DA:1764,47
DA:1766,47
DA:1767,0
DA:1769,47
DA:1773,1064
DA:1778,1064
DA:1780,1064
DA:1781,1064
DA:1773,0
DA:1778,0
DA:1780,0
DA:1781,0
DA:1789,0
DA:1791,0
DA:1793,0
DA:1794,0
DA:1795,0
DA:1798,0
DA:1888,1898
DA:1889,1898
DA:1890,1898
DA:1888,1898
DA:1889,1898
DA:1890,1898
end_of_record
SF:/usr/include/c++/9/initializer_list
FN:71,_ZNKSt16initializer_listI4MoveE4sizeEv
FNDA:47,_ZNKSt16initializer_listI4MoveE4sizeEv
FN:75,_ZNKSt16initializer_listI4MoveE5beginEv
FNDA:94,_ZNKSt16initializer_listI4MoveE5beginEv
FN:79,_ZNKSt16initializer_listI4MoveE3endEv
FNDA:47,_ZNKSt16initializer_listI4MoveE3endEv
DA:71,47
DA:75,94
DA:79,47
end_of_record
SF:/usr/include/c++/9/bits/stl_construct.h
FN:74,_ZSt10_ConstructI4MoveJS0_EEvPT_DpOT0_
FNDA:0,_ZSt10_ConstructI4MoveJS0_EEvPT_DpOT0_
FN:74,_ZSt10_ConstructI8PositionJS0_EEvPT_DpOT0_
FNDA:0,_ZSt10_ConstructI8PositionJS0_EEvPT_DpOT0_
FN:74,_ZSt10_ConstructI8PositionJRS0_EEvPT_DpOT0_
FNDA:0,_ZSt10_ConstructI8PositionJRS0_EEvPT_DpOT0_
FN:74,_ZSt10_ConstructI4MoveJRKS0_EEvPT_DpOT0_
FNDA:0,_ZSt10_ConstructI4MoveJRKS0_EEvPT_DpOT0_
FN:74,_ZSt10_ConstructI8PositionJRKS0_EEvPT_DpOT0_
FNDA:0,_ZSt10_ConstructI8PositionJRKS0_EEvPT_DpOT0_
FN:97,_ZSt8_DestroyI4MoveEvPT_
FNDA:0,_ZSt8_DestroyI4MoveEvPT_
FN:105,_ZNSt12_Destroy_auxILb0EE9__destroyIP4MoveEEvT_S4_
FNDA:0,_ZNSt12_Destroy_auxILb0EE9__destroyIP4MoveEEvT_S4_
FN:117,_ZNSt12_Destroy_auxILb1EE9__destroyIN9__gnu_cxx17__normal_iteratorIP8PositionSt6vectorIS4_SaIS4_EEEEEEvT_SA_
FNDA:0,_ZNSt12_Destroy_auxILb1EE9__destroyIN9__gnu_cxx17__normal_iteratorIP8PositionSt6vectorIS4_SaIS4_EEEEEEvT_SA_
FN:117,_ZNSt12_Destroy_auxILb1EE9__destroyIP8PositionEEvT_S4_
FNDA:0,_ZNSt12_Destroy_auxILb1EE9__destroyIP8PositionEEvT_S4_
FN:127,_ZSt8_DestroyIN9__gnu_cxx17__normal_iteratorIP8PositionSt6vectorIS2_SaIS2_EEEEEvT_S8_
FNDA:0,_ZSt8_DestroyIN9__gnu_cxx17__normal_iteratorIP8PositionSt6vectorIS2_SaIS2_EEEEEvT_S8_
FN:127,_ZSt8_DestroyIP4MoveEvT_S2_
FNDA:0,_ZSt8_DestroyIP4MoveEvT_S2_
FN:127,_ZSt8_DestroyIP8PositionEvT_S2_
FNDA:0,_ZSt8_DestroyIP8PositionEvT_S2_
FN:203,_ZSt8_DestroyIN9__gnu_cxx17__normal_iteratorIP8PositionSt6vectorIS2_SaIS2_EEEES2_EvT_S8_RSaIT0_E
FNDA:0,_ZSt8_DestroyIN9__gnu_cxx17__normal_iteratorIP8PositionSt6vectorIS2_SaIS2_EEEES2_EvT_S8_RSaIT0_E
FN:203,_ZSt8_DestroyIP4MoveS0_EvT_S2_RSaIT0_E
FNDA:0,_ZSt8_DestroyIP4MoveS0_EvT_S2_RSaIT0_E
FN:203,_ZSt8_DestroyIP8PositionS0_EvT_S2_RSaIT0_E
FNDA:0,_ZSt8_DestroyIP8PositionS0_EvT_S2_RSaIT0_E
DA:74,0
DA:75,0
DA:74,0
DA:75,0
DA:74,0
DA:75,0
DA:74,0
DA:75,0
DA:74,0
DA:75,0
DA:97,0
DA:98,0
DA:105,0
DA:107,0
DA:108,0
DA:109,0
DA:117,0
DA:117,0
DA:127,0
DA:137,0
DA:138,0
DA:127,0
DA:137,0
DA:138,0
DA:127,0
DA:137,0
DA:138,0
DA:203,0
DA:206,0
DA:207,0
DA:203,0
DA:206,0
DA:207,0
DA:203,0
DA:206,0
DA:207,0
end_of_record
SF:/usr/include/c++/9/bits/move.h
FN:47,_ZSt11__addressofI8PositionEPT_RS1_
FNDA:0,_ZSt11__addressofI8PositionEPT_RS1_
FN:47,_ZSt11__addressofI4MoveEPT_RS1_
FNDA:0,_ZSt11__addressofI4MoveEPT_RS1_
FN:74,_ZSt7forwardI4MoveEOT_RNSt16remove_referenceIS1_E4typeE
FNDA:0,_ZSt7forwardI4MoveEOT_RNSt16remove_referenceIS1_E4typeE
FN:74,_ZSt7forwardI8PositionEOT_RNSt16remove_referenceIS1_E4typeE
FNDA:0,_ZSt7forwardI8PositionEOT_RNSt16remove_referenceIS1_E4typeE
FN:74,_ZSt7forwardIR8PositionEOT_RNSt16remove_referenceIS2_E4typeE
FNDA:0,_ZSt7forwardIR8PositionEOT_RNSt16remove_referenceIS2_E4typeE
FN:74,_ZSt7forwardIRK4MoveEOT_RNSt16remove_referenceIS3_E4typeE
FNDA:0,_ZSt7forwardIRK4MoveEOT_RNSt16remove_referenceIS3_E4typeE
FN:74,_ZSt7forwardIRK8PositionEOT_RNSt16remove_referenceIS3_E4typeE
FNDA:0,_ZSt7forwardIRK8PositionEOT_RNSt16remove_referenceIS3_E4typeE
FN:99,_ZSt4moveIR4MoveEONSt16remove_referenceIT_E4typeEOS3_
FNDA:0,_ZSt4moveIR4MoveEONSt16remove_referenceIT_E4typeEOS3_
FN:99,_ZSt4moveIR8PositionEONSt16remove_referenceIT_E4typeEOS3_
FNDA:57,_ZSt4moveIR8PositionEONSt16remove_referenceIT_E4typeEOS3_
FN:99,_ZSt4moveIRNSt12_Vector_baseI4MoveSaIS1_EE12_Vector_implEEONSt16remove_referenceIT_E4typeEOS7_
FNDA:0,_ZSt4moveIRNSt12_Vector_baseI4MoveSaIS1_EE12_Vector_implEEONSt16remove_referenceIT_E4typeEOS7_
FN:99,_ZSt4moveIRNSt12_Vector_baseI8PositionSaIS1_EE12_Vector_implEEONSt16remove_referenceIT_E4typeEOS7_
FNDA:0,_ZSt4moveIRNSt12_Vector_baseI8PositionSaIS1_EE12_Vector_implEEONSt16remove_referenceIT_E4typeEOS7_
DA:47,0
DA:48,0
DA:47,0
DA:48,0
DA:74,0
DA:75,0
DA:74,0
DA:75,0
DA:74,0
DA:75,0
DA:74,0
DA:75,0
DA:74,0
DA:75,0
DA:99,0
DA:100,0
DA:99,57
DA:100,57
DA:99,0
DA:100,0
DA:99,0
DA:100,0
end_of_record
SF:/usr/include/c++/9/ext/alloc_traits.h
FN:97,_ZN9__gnu_cxx14__alloc_traitsISaI4MoveES1_E17_S_select_on_copyERKS2_
FNDA:0,_ZN9__gnu_cxx14__alloc_traitsISaI4MoveES1_E17_S_select_on_copyERKS2_
FN:97,_ZN9__gnu_cxx14__alloc_traitsISaI8PositionES1_E17_S_select_on_copyERKS2_
FNDA:0,_ZN9__gnu_cxx14__alloc_traitsISaI8PositionES1_E17_S_select_on_copyERKS2_
FN:103,_ZN9__gnu_cxx14__alloc_traitsISaI8PositionES1_E27_S_propagate_on_copy_assignEv
FNDA:0,_ZN9__gnu_cxx14__alloc_traitsISaI8PositionES1_E27_S_propagate_on_copy_assignEv
FN:112,_ZN9__gnu_cxx14__alloc_traitsISaI8PositionES1_E15_S_always_equalEv
FNDA:0,_ZN9__gnu_cxx14__alloc_traitsISaI8PositionES1_E15_S_always_equalEv
DA:97,0
DA:98,0
DA:97,0
DA:98,0
DA:103,0
DA:104,0
DA:112,0
DA:113,0
end_of_record
SF:/usr/include/c++/9/ext/new_allocator.h
FN:80,_ZN9__gnu_cxx13new_allocatorI4MoveEC2Ev
FNDA:0,_ZN9__gnu_cxx13new_allocatorI4MoveEC2Ev
FN:80,_ZN9__gnu_cxx13new_allocatorI8PositionEC2Ev
FNDA:0,_ZN9__gnu_cxx13new_allocatorI8PositionEC2Ev
FN:83,_ZN9__gnu_cxx13new_allocatorI8PositionEC2ERKS2_
FNDA:0,_ZN9__gnu_cxx13new_allocatorI8PositionEC2ERKS2_
FN:83,_ZN9__gnu_cxx13new_allocatorI4MoveEC2ERKS2_
FNDA:0,_ZN9__gnu_cxx13new_allocatorI4MoveEC2ERKS2_
FN:89,_ZN9__gnu_cxx13new_allocatorI8PositionED2Ev
FNDA:0,_ZN9__gnu_cxx13new_allocatorI8PositionED2Ev
FN:89,_ZN9__gnu_cxx13new_allocatorI4MoveED2Ev
FNDA:0,_ZN9__gnu_cxx13new_allocatorI4MoveED2Ev
FN:102,_ZN9__gnu_cxx13new_allocatorI4MoveE8allocateEmPKv
FNDA:0,_ZN9__gnu_cxx13new_allocatorI4MoveE8allocateEmPKv
FN:102,_ZN9__gnu_cxx13new_allocatorI8PositionE8allocateEmPKv
FNDA:0,_ZN9__gnu_cxx13new_allocatorI8PositionE8allocateEmPKv
FN:119,_ZN9__gnu_cxx13new_allocatorI8PositionE10deallocateEPS1_m
FNDA:0,_ZN9__gnu_cxx13new_allocatorI8PositionE10deallocateEPS1_m
FN:119,_ZN9__gnu_cxx13new_allocatorI4MoveE10deallocateEPS1_m
FNDA:0,_ZN9__gnu_cxx13new_allocatorI4MoveE10deallocateEPS1_m
FN:132,_ZNK9__gnu_cxx13new_allocatorI8PositionE8max_sizeEv
FNDA:0,_ZNK9__gnu_cxx13new_allocatorI8PositionE8max_sizeEv
FN:132,_ZNK9__gnu_cxx13new_allocatorI4MoveE8max_sizeEv
FNDA:0,_ZNK9__gnu_cxx13new_allocatorI4MoveE8max_sizeEv
FN:144,_ZN9__gnu_cxx13new_allocatorI4MoveE9constructIS1_JS1_EEEvPT_DpOT0_
FNDA:0,_ZN9__gnu_cxx13new_allocatorI4MoveE9constructIS1_JS1_EEEvPT_DpOT0_
FN:144,_ZN9__gnu_cxx13new_allocatorI4MoveE9constructIS1_JRKS1_EEEvPT_DpOT0_
FNDA:0,_ZN9__gnu_cxx13new_allocatorI4MoveE9constructIS1_JRKS1_EEEvPT_DpOT0_
FN:144,_ZN9__gnu_cxx13new_allocatorI8PositionE9constructIS1_JRKS1_EEEvPT_DpOT0_
FNDA:533,_ZN9__gnu_cxx13new_allocatorI8PositionE9constructIS1_JRKS1_EEEvPT_DpOT0_
FN:144,_ZN9__gnu_cxx13new_allocatorI8PositionE9constructIS1_JS1_EEEvPT_DpOT0_
FNDA:57,_ZN9__gnu_cxx13new_allocatorI8PositionE9constructIS1_JS1_EEEvPT_DpOT0_
FN:151,_ZN9__gnu_cxx13new_allocatorI8PositionE7destroyIS1_EEvPT_
FNDA:57,_ZN9__gnu_cxx13new_allocatorI8PositionE7destroyIS1_EEvPT_
FN:151,_ZN9__gnu_cxx13new_allocatorI4MoveE7destroyIS1_EEvPT_
FNDA:0,_ZN9__gnu_cxx13new_allocatorI4MoveE7destroyIS1_EEvPT_
DA:80,0
DA:80,0
DA:83,0
DA:83,0
DA:89,0
DA:89,0
DA:102,0
DA:104,0
DA:105,0
DA:114,0
DA:102,0
DA:104,0
DA:105,0
DA:114,0
DA:119,0
DA:128,0
DA:129,0
DA:119,0
DA:128,0
DA:129,0
DA:132,0
DA:135,0
DA:132,0
DA:135,0
DA:144,0
DA:147,0
DA:144,57
DA:147,57
DA:144,0
DA:147,0
DA:144,533
DA:147,533
DA:151,0
DA:153,0
DA:151,57
DA:153,57
end_of_record
SF:/home/napiad/studia/eiti/mgr/sem1/zpr/checkers-webapp/checkers/src/Move.cc
FN:12,_ZN4MoveC2E8PositionS0_
FNDA:7441,_ZN4MoveC2E8PositionS0_
FN:14,_ZN4MoveC2E8PositionS0_S0_
FNDA:416,_ZN4MoveC2E8PositionS0_S0_
FN:18,_ZNK4Move9isInitialEv
FNDA:2299,_ZNK4Move9isInitialEv
FN:24,_ZNK4MoveeqERKS_
FNDA:2375,_ZNK4MoveeqERKS_
FN:34,_ZNK4Move5mergeERS_
FNDA:48,_ZNK4Move5mergeERS_
FN:59,_ZN4Move18addUpgradePositionERK8Position
FNDA:15,_ZN4Move18addUpgradePositionERK8Position
FN:63,_ZN4Move19addCapturedPositionERK8Position
FNDA:5,_ZN4Move19addCapturedPositionERK8Position
FN:68,_ZNK4Move19getUpgradePositionsEv
FNDA:2804,_ZNK4Move19getUpgradePositionsEv
FN:70,_ZNK4Move16getStartPositionEv
FNDA:6044,_ZNK4Move16getStartPositionEv
FN:72,_ZNK4Move14getEndPositionEv
FNDA:5998,_ZNK4Move14getEndPositionEv
FN:74,_ZNK4Move20getCapturedPositionsEv
FNDA:6278,_ZNK4Move20getCapturedPositionsEv
FN:76,_ZNK4Move12getStepMovesEv
FNDA:23,_ZNK4Move12getStepMovesEv
FN:81,_ZNK4Move14containsAsStepERKS_
FNDA:79,_ZNK4Move14containsAsStepERKS_
DA:12,7441
DA:14,416
DA:15,416
DA:16,416
DA:18,2299
DA:19,4598
DA:20,2299
DA:21,425
DA:24,2375
DA:25,4330
DA:26,4330
DA:27,477
DA:34,48
DA:35,48
DA:36,1
DA:38,47
DA:40,235
DA:41,94
DA:42,88
DA:45,18
DA:46,12
DA:49,191
DA:50,97
DA:53,47
DA:54,13
DA:56,47
DA:59,15
DA:60,15
DA:61,15
DA:63,5
DA:64,5
DA:65,5
DA:68,2804
DA:70,6044
DA:72,5998
DA:74,6278
DA:76,23
DA:81,79
DA:82,79
DA:83,79
DA:84,4
DA:86,75
end_of_record
SF:/usr/include/c++/9/bits/stl_uninitialized.h
FN:76,_ZNSt20__uninitialized_copyILb0EE13__uninit_copyISt13move_iteratorIP4MoveES4_EET0_T_S7_S6_
FNDA:0,_ZNSt20__uninitialized_copyILb0EE13__uninit_copyISt13move_iteratorIP4MoveES4_EET0_T_S7_S6_
FN:76,_ZNSt20__uninitialized_copyILb0EE13__uninit_copyISt13move_iteratorIP8PositionES4_EET0_T_S7_S6_
FNDA:0,_ZNSt20__uninitialized_copyILb0EE13__uninit_copyISt13move_iteratorIP8PositionES4_EET0_T_S7_S6_
FN:76,_ZNSt20__uninitialized_copyILb0EE13__uninit_copyIPK4MovePS2_EET0_T_S7_S6_
FNDA:47,_ZNSt20__uninitialized_copyILb0EE13__uninit_copyIPK4MovePS2_EET0_T_S7_S6_
FN:76,_ZNSt20__uninitialized_copyILb0EE13__uninit_copyIP8PositionS3_EET0_T_S5_S4_
FNDA:0,_ZNSt20__uninitialized_copyILb0EE13__uninit_copyIP8PositionS3_EET0_T_S5_S4_
FN:76,_ZNSt20__uninitialized_copyILb0EE13__uninit_copyIN9__gnu_cxx17__normal_iteratorIPK4MoveSt6vectorIS4_SaIS4_EEEEPS4_EET0_T_SD_SC_
FNDA:0,_ZNSt20__uninitialized_copyILb0EE13__uninit_copyIN9__gnu_cxx17__normal_iteratorIPK4MoveSt6vectorIS4_SaIS4_EEEEPS4_EET0_T_SD_SC_
FN:76,_ZNSt20__uninitialized_copyILb0EE13__uninit_copyIN9__gnu_cxx17__normal_iteratorIPK8PositionSt6vectorIS4_SaIS4_EEEEPS4_EET0_T_SD_SC_
FNDA:0,_ZNSt20__uninitialized_copyILb0EE13__uninit_copyIN9__gnu_cxx17__normal_iteratorIPK8PositionSt6vectorIS4_SaIS4_EEEEPS4_EET0_T_SD_SC_
FN:115,_ZSt18uninitialized_copyIN9__gnu_cxx17__normal_iteratorIPK8PositionSt6vectorIS2_SaIS2_EEEEPS2_ET0_T_SB_SA_
FNDA:0,_ZSt18uninitialized_copyIN9__gnu_cxx17__normal_iteratorIPK8PositionSt6vectorIS2_SaIS2_EEEEPS2_ET0_T_SB_SA_
FN:115,_ZSt18uninitialized_copyISt13move_iteratorIP4MoveES2_ET0_T_S5_S4_
FNDA:0,_ZSt18uninitialized_copyISt13move_iteratorIP4MoveES2_ET0_T_S5_S4_
FN:115,_ZSt18uninitialized_copyIN9__gnu_cxx17__normal_iteratorIPK4MoveSt6vectorIS2_SaIS2_EEEEPS2_ET0_T_SB_SA_
FNDA:0,_ZSt18uninitialized_copyIN9__gnu_cxx17__normal_iteratorIPK4MoveSt6vectorIS2_SaIS2_EEEEPS2_ET0_T_SB_SA_
FN:115,_ZSt18uninitialized_copyISt13move_iteratorIP8PositionES2_ET0_T_S5_S4_
FNDA:0,_ZSt18uninitialized_copyISt13move_iteratorIP8PositionES2_ET0_T_S5_S4_
FN:115,_ZSt18uninitialized_copyIP8PositionS1_ET0_T_S3_S2_
FNDA:0,_ZSt18uninitialized_copyIP8PositionS1_ET0_T_S3_S2_
FN:115,_ZSt18uninitialized_copyIPK4MovePS0_ET0_T_S5_S4_
FNDA:47,_ZSt18uninitialized_copyIPK4MovePS0_ET0_T_S5_S4_
FN:305,_ZSt22__uninitialized_copy_aIN9__gnu_cxx17__normal_iteratorIPK8PositionSt6vectorIS2_SaIS2_EEEEPS2_S2_ET0_T_SB_SA_RSaIT1_E
FNDA:0,_ZSt22__uninitialized_copy_aIN9__gnu_cxx17__normal_iteratorIPK8PositionSt6vectorIS2_SaIS2_EEEEPS2_S2_ET0_T_SB_SA_RSaIT1_E
FN:305,_ZSt22__uninitialized_copy_aIN9__gnu_cxx17__normal_iteratorIPK4MoveSt6vectorIS2_SaIS2_EEEEPS2_S2_ET0_T_SB_SA_RSaIT1_E
FNDA:0,_ZSt22__uninitialized_copy_aIN9__gnu_cxx17__normal_iteratorIPK4MoveSt6vectorIS2_SaIS2_EEEEPS2_S2_ET0_T_SB_SA_RSaIT1_E
FN:305,_ZSt22__uninitialized_copy_aIP8PositionS1_S0_ET0_T_S3_S2_RSaIT1_E
FNDA:0,_ZSt22__uninitialized_copy_aIP8PositionS1_S0_ET0_T_S3_S2_RSaIT1_E
FN:305,_ZSt22__uninitialized_copy_aIPK4MovePS0_S0_ET0_T_S5_S4_RSaIT1_E
FNDA:47,_ZSt22__uninitialized_copy_aIPK4MovePS0_S0_ET0_T_S5_S4_RSaIT1_E
FN:305,_ZSt22__uninitialized_copy_aISt13move_iteratorIP8PositionES2_S1_ET0_T_S5_S4_RSaIT1_E
FNDA:0,_ZSt22__uninitialized_copy_aISt13move_iteratorIP8PositionES2_S1_ET0_T_S5_S4_RSaIT1_E
FN:305,_ZSt22__uninitialized_copy_aISt13move_iteratorIP4MoveES2_S1_ET0_T_S5_S4_RSaIT1_E
FNDA:0,_ZSt22__uninitialized_copy_aISt13move_iteratorIP4MoveES2_S1_ET0_T_S5_S4_RSaIT1_E
FN:323,_ZSt34__uninitialized_move_if_noexcept_aIP4MoveS1_SaIS0_EET0_T_S4_S3_RT1_
FNDA:0,_ZSt34__uninitialized_move_if_noexcept_aIP4MoveS1_SaIS0_EET0_T_S4_S3_RT1_
FN:323,_ZSt34__uninitialized_move_if_noexcept_aIP8PositionS1_SaIS0_EET0_T_S4_S3_RT1_
FNDA:0,_ZSt34__uninitialized_move_if_noexcept_aIP8PositionS1_SaIS0_EET0_T_S4_S3_RT1_
FN:905,_ZSt19__relocate_object_aI8PositionS0_SaIS0_EEvPT_PT0_RT1_
FNDA:57,_ZSt19__relocate_object_aI8PositionS0_SaIS0_EEvPT_PT0_RT1_
FN:905,_ZSt19__relocate_object_aI4MoveS0_SaIS0_EEvPT_PT0_RT1_
FNDA:0,_ZSt19__relocate_object_aI4MoveS0_SaIS0_EEvPT_PT0_RT1_
FN:936,_ZSt14__relocate_a_1IP8PositionS1_SaIS0_EET0_T_S4_S3_RT1_
FNDA:1064,_ZSt14__relocate_a_1IP8PositionS1_SaIS0_EET0_T_S4_S3_RT1_
FN:936,_ZSt14__relocate_a_1IP4MoveS1_SaIS0_EET0_T_S4_S3_RT1_
FNDA:0,_ZSt14__relocate_a_1IP4MoveS1_SaIS0_EET0_T_S4_S3_RT1_
FN:958,_ZSt12__relocate_aIP8PositionS1_SaIS0_EET0_T_S4_S3_RT1_
FNDA:1064,_ZSt12__relocate_aIP8PositionS1_SaIS0_EET0_T_S4_S3_RT1_
FN:958,_ZSt12__relocate_aIP4MoveS1_SaIS0_EET0_T_S4_S3_RT1_
FNDA:0,_ZSt12__relocate_aIP4MoveS1_SaIS0_EET0_T_S4_S3_RT1_
DA:76,0
DA:79,0
DA:82,0
DA:83,0
DA:84,0
DA:86,0
DA:88,0
DA:89,0
DA:76,0
DA:79,0
DA:82,0
DA:83,0
DA:84,0
DA:86,0
DA:88,0
DA:89,0
DA:76,47
DA:79,47
DA:82,141
DA:83,94
DA:84,47
DA:86,0
DA:88,0
DA:89,0
DA:76,0
DA:79,0
DA:82,0
DA:83,0
DA:84,0
DA:76,0
DA:79,0
DA:82,0
DA:83,0
DA:84,0
DA:86,0
DA:88,0
DA:89,0
DA:76,0
DA:79,0
DA:82,0
DA:83,0
DA:84,0
DA:115,0
DA:134,0
DA:140,0
DA:115,0
DA:134,0
DA:140,0
DA:115,47
DA:134,47
DA:140,47
DA:115,0
DA:134,0
DA:140,0
DA:115,0
DA:134,0
DA:140,0
DA:115,0
DA:134,0
DA:140,0
DA:305,0
DA:307,0
DA:305,0
DA:307,0
DA:305,47
DA:307,47
DA:305,0
DA:307,0
DA:305,0
DA:307,0
DA:305,0
DA:307,0
DA:323,0
DA:329,0
DA:330,0
DA:323,0
DA:329,0
DA:330,0
DA:905,0
DA:912,0
DA:913,0
DA:914,0
DA:905,57
DA:912,57
DA:913,57
DA:914,57
DA:936,0
DA:948,0
DA:949,0
DA:950,0
DA:952,0
DA:936,1064
DA:948,1064
DA:949,1121
DA:950,57
DA:952,1064
DA:958,0
DA:964,0
DA:966,0
DA:958,1064
DA:964,1064
DA:966,1064
end_of_record
SF:/usr/include/c++/9/bits/alloc_traits.h
FN:443,_ZNSt16allocator_traitsISaI4MoveEE8allocateERS1_m
FNDA:0,_ZNSt16allocator_traitsISaI4MoveEE8allocateERS1_m
FN:443,_ZNSt16allocator_traitsISaI8PositionEE8allocateERS1_m
FNDA:0,_ZNSt16allocator_traitsISaI8PositionEE8allocateERS1_m
FN:469,_ZNSt16allocator_traitsISaI4MoveEE10deallocateERS1_PS0_m
FNDA:0,_ZNSt16allocator_traitsISaI4MoveEE10deallocateERS1_PS0_m
FN:469,_ZNSt16allocator_traitsISaI8PositionEE10deallocateERS1_PS0_m
FNDA:0,_ZNSt16allocator_traitsISaI8PositionEE10deallocateERS1_PS0_m
FN:482,_ZNSt16allocator_traitsISaI4MoveEE9constructIS0_JS0_EEEvRS1_PT_DpOT0_
FNDA:0,_ZNSt16allocator_traitsISaI4MoveEE9constructIS0_JS0_EEEvRS1_PT_DpOT0_
FN:482,_ZNSt16allocator_traitsISaI8PositionEE9constructIS0_JS0_EEEvRS1_PT_DpOT0_
FNDA:57,_ZNSt16allocator_traitsISaI8PositionEE9constructIS0_JS0_EEEvRS1_PT_DpOT0_
FN:482,_ZNSt16allocator_traitsISaI4MoveEE9constructIS0_JRKS0_EEEvRS1_PT_DpOT0_
FNDA:0,_ZNSt16allocator_traitsISaI4MoveEE9constructIS0_JRKS0_EEEvRS1_PT_DpOT0_
FN:482,_ZNSt16allocator_traitsISaI8PositionEE9constructIS0_JRKS0_EEEvRS1_PT_DpOT0_
FNDA:533,_ZNSt16allocator_traitsISaI8PositionEE9constructIS0_JRKS0_EEEvRS1_PT_DpOT0_
FN:495,_ZNSt16allocator_traitsISaI4MoveEE7destroyIS0_EEvRS1_PT_
FNDA:0,_ZNSt16allocator_traitsISaI4MoveEE7destroyIS0_EEvRS1_PT_
FN:495,_ZNSt16allocator_traitsISaI8PositionEE7destroyIS0_EEvRS1_PT_
FNDA:57,_ZNSt16allocator_traitsISaI8PositionEE7destroyIS0_EEvRS1_PT_
FN:505,_ZNSt16allocator_traitsISaI8PositionEE8max_sizeERKS1_
FNDA:1064,_ZNSt16allocator_traitsISaI8PositionEE8max_sizeERKS1_
FN:505,_ZNSt16allocator_traitsISaI4MoveEE8max_sizeERKS1_
FNDA:0,_ZNSt16allocator_traitsISaI4MoveEE8max_sizeERKS1_
FN:514,_ZNSt16allocator_traitsISaI4MoveEE37select_on_container_copy_constructionERKS1_
FNDA:0,_ZNSt16allocator_traitsISaI4MoveEE37select_on_container_copy_constructionERKS1_
FN:514,_ZNSt16allocator_traitsISaI8PositionEE37select_on_container_copy_constructionERKS1_
FNDA:0,_ZNSt16allocator_traitsISaI8PositionEE37select_on_container_copy_constructionERKS1_
FN:526,_ZSt18__do_alloc_on_copyISaI8PositionEEvRT_RKS2_St17integral_constantIbLb0EE
FNDA:0,_ZSt18__do_alloc_on_copyISaI8PositionEEvRT_RKS2_St17integral_constantIbLb0EE
FN:530,_ZSt15__alloc_on_copyISaI8PositionEEvRT_RKS2_
FNDA:0,_ZSt15__alloc_on_copyISaI8PositionEEvRT_RKS2_
DA:443,0
DA:444,0
DA:443,0
DA:444,0
DA:469,0
DA:470,0
DA:469,0
DA:470,0
DA:482,0
DA:484,0
DA:482,57
DA:484,57
DA:482,0
DA:484,0
DA:482,533
DA:484,533
DA:495,0
DA:497,0
DA:495,57
DA:497,57
DA:505,1064
DA:506,1064
DA:505,0
DA:506,0
DA:514,0
DA:515,0
DA:514,0
DA:515,0
DA:526,0
DA:527,0
DA:530,0
DA:534,0
DA:535,0
end_of_record
SF:/usr/include/c++/9/bits/stl_algobase.h
FN:198,_ZSt3minImERKT_S2_S2_
FNDA:0,_ZSt3minImERKT_S2_S2_
FN:222,_ZSt3maxImERKT_S2_S2_
FNDA:0,_ZSt3maxImERKT_S2_S2_
FN:280,_ZSt12__niter_baseIP8PositionET_S2_
FNDA:0,_ZSt12__niter_baseIP8PositionET_S2_
FN:280,_ZSt12__niter_baseIP4MoveET_S2_
FNDA:0,_ZSt12__niter_baseIP4MoveET_S2_
FN:289,_ZSt12__niter_wrapIN9__gnu_cxx17__normal_iteratorIP8PositionSt6vectorIS2_SaIS2_EEEES3_ET_S8_T0_
FNDA:0,_ZSt12__niter_wrapIN9__gnu_cxx17__normal_iteratorIP8PositionSt6vectorIS2_SaIS2_EEEES3_ET_S8_T0_
FN:295,_ZSt12__niter_wrapIP8PositionET_RKS2_S2_
FNDA:0,_ZSt12__niter_wrapIP8PositionET_RKS2_S2_
FN:375,_ZNSt11__copy_moveILb0ELb1ESt26random_access_iterator_tagE8__copy_mI8PositionEEPT_PKS4_S7_S5_
FNDA:0,_ZNSt11__copy_moveILb0ELb1ESt26random_access_iterator_tagE8__copy_mI8PositionEEPT_PKS4_S7_S5_
FN:393,_ZSt13__copy_move_aILb0EP8PositionS1_ET1_T0_S3_S2_
FNDA:0,_ZSt13__copy_move_aILb0EP8PositionS1_ET1_T0_S3_S2_
FN:393,_ZSt13__copy_move_aILb0EPK8PositionPS0_ET1_T0_S5_S4_
FNDA:0,_ZSt13__copy_move_aILb0EPK8PositionPS0_ET1_T0_S5_S4_
FN:438,_ZSt14__copy_move_a2ILb0EP8PositionS1_ET1_T0_S3_S2_
FNDA:0,_ZSt14__copy_move_a2ILb0EP8PositionS1_ET1_T0_S3_S2_
FN:438,_ZSt14__copy_move_a2ILb0EN9__gnu_cxx17__normal_iteratorIPK8PositionSt6vectorIS2_SaIS2_EEEENS1_IPS2_S7_EEET1_T0_SC_SB_
FNDA:0,_ZSt14__copy_move_a2ILb0EN9__gnu_cxx17__normal_iteratorIPK8PositionSt6vectorIS2_SaIS2_EEEENS1_IPS2_S7_EEET1_T0_SC_SB_
FN:465,_ZSt4copyIN9__gnu_cxx17__normal_iteratorIPK8PositionSt6vectorIS2_SaIS2_EEEENS1_IPS2_S7_EEET0_T_SC_SB_
FNDA:0,_ZSt4copyIN9__gnu_cxx17__normal_iteratorIPK8PositionSt6vectorIS2_SaIS2_EEEENS1_IPS2_S7_EEET0_T_SC_SB_
FN:465,_ZSt4copyIP8PositionS1_ET0_T_S3_S2_
FNDA:0,_ZSt4copyIP8PositionS1_ET0_T_S3_S2_
FN:817,_ZNSt7__equalILb0EE5equalIPK4MoveS4_EEbT_S5_T0_
FNDA:1898,_ZNSt7__equalILb0EE5equalIPK4MoveS4_EEbT_S5_T0_
FN:817,_ZNSt7__equalILb0EE5equalIPK8PositionS4_EEbT_S5_T0_
FNDA:1898,_ZNSt7__equalILb0EE5equalIPK8PositionS4_EEbT_S5_T0_
FN:841,_ZSt11__equal_auxIPK4MoveS2_EbT_S3_T0_
FNDA:1898,_ZSt11__equal_auxIPK4MoveS2_EbT_S3_T0_
FN:841,_ZSt11__equal_auxIPK8PositionS2_EbT_S3_T0_
FNDA:1898,_ZSt11__equal_auxIPK8PositionS2_EbT_S3_T0_
FN:1059,_ZSt5equalIN9__gnu_cxx17__normal_iteratorIPK8PositionSt6vectorIS2_SaIS2_EEEES8_EbT_S9_T0_
FNDA:1898,_ZSt5equalIN9__gnu_cxx17__normal_iteratorIPK8PositionSt6vectorIS2_SaIS2_EEEES8_EbT_S9_T0_
FN:1059,_ZSt5equalIN9__gnu_cxx17__normal_iteratorIPK4MoveSt6vectorIS2_SaIS2_EEEES8_EbT_S9_T0_
FNDA:1898,_ZSt5equalIN9__gnu_cxx17__normal_iteratorIPK4MoveSt6vectorIS2_SaIS2_EEEES8_EbT_S9_T0_
DA:198,0
DA:203,0
DA:204,0
DA:205,0
DA:222,0
DA:227,0
DA:228,0
DA:229,0
DA:280,0
DA:282,0
DA:280,0
DA:282,0
DA:289,0
DA:290,0
DA:295,0
DA:296,0
DA:375,0
DA:384,0
DA:385,0
DA:386,0
DA:387,0
DA:393,0
DA:398,0
DA:404,0
DA:393,0
DA:398,0
DA:404,0
DA:438,0
DA:440,0
DA:443,0
DA:438,0
DA:440,0
DA:443,0
DA:465,0
DA:474,0
DA:465,0
DA:474,0
DA:817,1905
DA:819,1905
DA:820,7
DA:821,0
DA:822,1898
DA:817,1898
DA:819,1898
DA:820,0
DA:821,0
DA:822,1898
DA:841,1898
DA:845,1898
DA:851,1898
DA:841,1898
DA:845,1898
DA:851,1898
DA:1059,1898
DA:1069,1898
DA:1071,1898
DA:1059,1898
DA:1069,1898
DA:1071,1898
end_of_record
SF:/usr/include/c++/9/bits/cpp_type_traits.h
FN:428,_ZSt12__miter_baseIP8PositionET_S2_
FNDA:0,_ZSt12__miter_baseIP8PositionET_S2_
FN:428,_ZSt12__miter_baseIN9__gnu_cxx17__normal_iteratorIPK8PositionSt6vectorIS2_SaIS2_EEEEET_S9_
FNDA:0,_ZSt12__miter_baseIN9__gnu_cxx17__normal_iteratorIPK8PositionSt6vectorIS2_SaIS2_EEEEET_S9_
DA:428,0
DA:429,0
DA:428,0
DA:429,0
end_of_record
SF:/home/napiad/studia/eiti/mgr/sem1/zpr/checkers-webapp/checkers/src/Move.h
FN:22,_ZN4MoveC2Ev
FNDA:0,_ZN4MoveC2Ev
DA:22,0
end_of_record
TN:
SF:/home/napiad/studia/eiti/mgr/sem1/zpr/checkers-webapp/checkers/src/Piece.cc
FN:14,_ZN5PieceC2E8Positionbb
FNDA:607,_ZN5PieceC2E8Positionbb
FN:17,_ZNK5Piece5cloneEv
FNDA:22268,_ZNK5Piece5cloneEv
FN:21,_ZNK5Piece7isWhiteEv
FNDA:411,_ZNK5Piece7isWhiteEv
FN:23,_ZNK5Piece6isUserEv
FNDA:1066,_ZNK5Piece6isUserEv
FN:25,_ZNK5Piece11getPositionEv
FNDA:12839,_ZNK5Piece11getPositionEv
FN:27,_ZN5Piece14changePositionE8Position
FNDA:2781,_ZN5Piece14changePositionE8Position
FN:31,_ZNK5Piece11isSameColorER9PieceName
FNDA:11934,_ZNK5Piece11isSameColorER9PieceName
FN:38,_ZNK5Piece11isDiffColorE9PieceName
FNDA:14555,_ZNK5Piece11isDiffColorE9PieceName
DA:14,607
DA:15,607
DA:17,22268
DA:18,22268
DA:21,411
DA:23,1066
DA:25,12839
DA:27,2781
DA:28,2781
DA:29,2781
DA:31,11934
DA:32,11934
DA:33,11928
DA:34,11
DA:35,11923
DA:38,14555
DA:39,14555
DA:40,14466
DA:41,395
DA:42,14160
end_of_record
SF:/usr/include/c++/9/iostream
end_of_record
TN:
SF:/usr/include/c++/9/bits/stl_map.h
FN:205,_ZNSt3mapI9PieceNamecSt4lessIS0_ESaISt4pairIKS0_cEEEC2ERKS7_
FNDA:0,_ZNSt3mapI9PieceNamecSt4lessIS0_ESaISt4pairIKS0_cEEEC2ERKS7_
FN:205,_ZNSt3mapINSt7__cxx1112basic_stringIcSt11char_traitsIcESaIcEEE8PositionSt4lessIS5_ESaISt4pairIKS5_S6_EEEC2ERKSD_
FNDA:0,_ZNSt3mapINSt7__cxx1112basic_stringIcSt11char_traitsIcESaIcEEE8PositionSt4lessIS5_ESaISt4pairIKS5_S6_EEEC2ERKSD_
FN:300,_ZNSt3mapINSt7__cxx1112basic_stringIcSt11char_traitsIcESaIcEEE8PositionSt4lessIS5_ESaISt4pairIKS5_S6_EEED2Ev
FNDA:0,_ZNSt3mapINSt7__cxx1112basic_stringIcSt11char_traitsIcESaIcEEE8PositionSt4lessIS5_ESaISt4pairIKS5_S6_EEED2Ev
FN:300,_ZNSt3mapI9PieceNamecSt4lessIS0_ESaISt4pairIKS0_cEEED2Ev
FNDA:0,_ZNSt3mapI9PieceNamecSt4lessIS0_ESaISt4pairIKS0_cEEED2Ev
DA:205,0
DA:205,0
DA:300,0
DA:300,0
end_of_record
SF:/usr/include/c++/9/bits/stl_pair.h
FN:303,_ZNSt4pairIKNSt7__cxx1112basic_stringIcSt11char_traitsIcESaIcEEE8PositionEC2ERKS8_
FNDA:0,_ZNSt4pairIKNSt7__cxx1112basic_stringIcSt11char_traitsIcESaIcEEE8PositionEC2ERKS8_
DA:303,0
end_of_record
SF:/usr/include/c++/9/iostream
end_of_record
SF:/usr/include/c++/9/bits/basic_string.tcc
FN:206,_ZNSt7__cxx1112basic_stringIcSt11char_traitsIcESaIcEE12_M_constructIPcEEvT_S7_St20forward_iterator_tag
FNDA:0,_ZNSt7__cxx1112basic_stringIcSt11char_traitsIcESaIcEE12_M_constructIPcEEvT_S7_St20forward_iterator_tag
DA:206,0
DA:211,0
DA:212,0
DA:215,0
DA:217,0
DA:219,0
DA:220,0
DA:225,0
DA:226,0
DA:228,0
DA:229,0
DA:232,0
DA:233,0
end_of_record
SF:/usr/include/c++/9/bits/stl_iterator_base_funcs.h
FN:98,_ZSt10__distanceIPcENSt15iterator_traitsIT_E15difference_typeES2_S2_St26random_access_iterator_tag
FNDA:0,_ZSt10__distanceIPcENSt15iterator_traitsIT_E15difference_typeES2_S2_St26random_access_iterator_tag
FN:138,_ZSt8distanceIPcENSt15iterator_traitsIT_E15difference_typeES2_S2_
FNDA:0,_ZSt8distanceIPcENSt15iterator_traitsIT_E15difference_typeES2_S2_
DA:98,0
DA:104,0
DA:138,0
DA:141,0
DA:142,0
end_of_record
SF:/usr/include/c++/9/bits/vector.tcc
FN:109,_ZNSt6vectorI4MoveSaIS0_EE12emplace_backIJS0_EEEvDpOT_
FNDA:7136,_ZNSt6vectorI4MoveSaIS0_EE12emplace_backIJS0_EEEvDpOT_
FN:198,_ZNSt6vectorI4MoveSaIS0_EEaSERKS2_
FNDA:0,_ZNSt6vectorI4MoveSaIS0_EEaSERKS2_
FN:198,_ZNSt6vectorI8PositionSaIS0_EEaSERKS2_
FNDA:0,_ZNSt6vectorI8PositionSaIS0_EEaSERKS2_
FN:426,_ZNSt6vectorI4MoveSaIS0_EE17_M_realloc_insertIJS0_EEEvN9__gnu_cxx17__normal_iteratorIPS0_S2_EEDpOT_
FNDA:3768,_ZNSt6vectorI4MoveSaIS0_EE17_M_realloc_insertIJS0_EEEvN9__gnu_cxx17__normal_iteratorIPS0_S2_EEDpOT_
FN:426,_ZNSt6vectorI4MoveSaIS0_EE17_M_realloc_insertIJRKS0_EEEvN9__gnu_cxx17__normal_iteratorIPS0_S2_EEDpOT_
FNDA:0,_ZNSt6vectorI4MoveSaIS0_EE17_M_realloc_insertIJRKS0_EEEvN9__gnu_cxx17__normal_iteratorIPS0_S2_EEDpOT_
DA:109,7136
DA:112,7136
DA:115,3368
DA:117,3368
DA:121,3768
DA:125,7136
DA:198,0
DA:201,0
DA:205,0
DA:207,0
DA:208,0
DA:211,0
DA:212,0
DA:213,0
DA:214,0
DA:215,0
DA:216,0
DA:217,0
DA:219,0
DA:223,0
DA:224,0
DA:226,0
DA:228,0
DA:229,0
DA:230,0
DA:231,0
DA:232,0
DA:233,0
DA:234,0
DA:236,0
DA:238,0
DA:239,0
DA:243,0
DA:245,0
DA:246,0
DA:248,0
DA:250,0
DA:252,0
DA:198,0
DA:201,0
DA:205,0
DA:207,0
DA:208,0
DA:211,0
DA:212,0
DA:213,0
DA:214,0
DA:215,0
DA:216,0
DA:217,0
DA:219,0
DA:223,0
DA:224,0
DA:226,0
DA:228,0
DA:229,0
DA:230,0
DA:231,0
DA:232,0
DA:233,0
DA:234,0
DA:236,0
DA:238,0
DA:239,0
DA:243,0
DA:245,0
DA:246,0
DA:248,0
DA:250,0
DA:252,0
DA:426,3768
DA:435,3768
DA:437,3768
DA:438,3768
DA:439,3768
DA:440,3768
DA:441,3768
DA:449,3768
DA:450,3768
DA:456,3768
DA:459,3768
DA:461,3768
DA:462,3768
DA:464,3768
DA:466,3768
DA:467,3768
DA:474,0
DA:475,0
DA:477,0
DA:481,0
DA:482,0
DA:485,0
DA:487,0
DA:488,0
DA:489,0
DA:491,0
DA:492,0
DA:493,0
DA:496,3768
DA:498,0
DA:500,3768
DA:501,3768
DA:502,3768
DA:503,3768
DA:504,3768
DA:505,3768
DA:426,0
DA:435,0
DA:437,0
DA:438,0
DA:439,0
DA:440,0
DA:441,0
DA:449,0
DA:450,0
DA:456,0
DA:459,0
DA:461,0
DA:462,0
DA:464,0
DA:466,0
DA:467,0
DA:474,0
DA:475,0
DA:477,0
DA:481,0
DA:482,0
DA:485,0
DA:487,0
DA:488,0
DA:489,0
DA:491,0
DA:492,0
DA:493,0
DA:496,0
DA:498,0
DA:500,0
DA:501,0
DA:502,0
DA:503,0
DA:504,0
DA:505,0
end_of_record
SF:/usr/include/c++/9/bits/stl_construct.h
FN:74,_ZSt10_ConstructI4MoveJRS0_EEvPT_DpOT0_
FNDA:0,_ZSt10_ConstructI4MoveJRS0_EEvPT_DpOT0_
FN:74,_ZSt10_ConstructI8PositionJRS0_EEvPT_DpOT0_
FNDA:0,_ZSt10_ConstructI8PositionJRS0_EEvPT_DpOT0_
FN:74,_ZSt10_ConstructI4MoveJRKS0_EEvPT_DpOT0_
FNDA:0,_ZSt10_ConstructI4MoveJRKS0_EEvPT_DpOT0_
FN:74,_ZSt10_ConstructI8PositionJRKS0_EEvPT_DpOT0_
FNDA:0,_ZSt10_ConstructI8PositionJRKS0_EEvPT_DpOT0_
FN:74,_ZSt10_ConstructI4MoveJS0_EEvPT_DpOT0_
FNDA:0,_ZSt10_ConstructI4MoveJS0_EEvPT_DpOT0_
FN:97,_ZSt8_DestroyI4MoveEvPT_
FNDA:0,_ZSt8_DestroyI4MoveEvPT_
FN:105,_ZNSt12_Destroy_auxILb0EE9__destroyIN9__gnu_cxx17__normal_iteratorIP4MoveSt6vectorIS4_SaIS4_EEEEEEvT_SA_
FNDA:0,_ZNSt12_Destroy_auxILb0EE9__destroyIN9__gnu_cxx17__normal_iteratorIP4MoveSt6vectorIS4_SaIS4_EEEEEEvT_SA_
FN:105,_ZNSt12_Destroy_auxILb0EE9__destroyIP4MoveEEvT_S4_
FNDA:0,_ZNSt12_Destroy_auxILb0EE9__destroyIP4MoveEEvT_S4_
FN:117,_ZNSt12_Destroy_auxILb1EE9__destroyIP8PositionEEvT_S4_
FNDA:0,_ZNSt12_Destroy_auxILb1EE9__destroyIP8PositionEEvT_S4_
FN:117,_ZNSt12_Destroy_auxILb1EE9__destroyIN9__gnu_cxx17__normal_iteratorIP8PositionSt6vectorIS4_SaIS4_EEEEEEvT_SA_
FNDA:0,_ZNSt12_Destroy_auxILb1EE9__destroyIN9__gnu_cxx17__normal_iteratorIP8PositionSt6vectorIS4_SaIS4_EEEEEEvT_SA_
FN:127,_ZSt8_DestroyIN9__gnu_cxx17__normal_iteratorIP4MoveSt6vectorIS2_SaIS2_EEEEEvT_S8_
FNDA:0,_ZSt8_DestroyIN9__gnu_cxx17__normal_iteratorIP4MoveSt6vectorIS2_SaIS2_EEEEEvT_S8_
FN:127,_ZSt8_DestroyIN9__gnu_cxx17__normal_iteratorIP8PositionSt6vectorIS2_SaIS2_EEEEEvT_S8_
FNDA:0,_ZSt8_DestroyIN9__gnu_cxx17__normal_iteratorIP8PositionSt6vectorIS2_SaIS2_EEEEEvT_S8_
FN:127,_ZSt8_DestroyIP4MoveEvT_S2_
FNDA:0,_ZSt8_DestroyIP4MoveEvT_S2_
FN:127,_ZSt8_DestroyIP8PositionEvT_S2_
FNDA:0,_ZSt8_DestroyIP8PositionEvT_S2_
FN:203,_ZSt8_DestroyIN9__gnu_cxx17__normal_iteratorIP4MoveSt6vectorIS2_SaIS2_EEEES2_EvT_S8_RSaIT0_E
FNDA:0,_ZSt8_DestroyIN9__gnu_cxx17__normal_iteratorIP4MoveSt6vectorIS2_SaIS2_EEEES2_EvT_S8_RSaIT0_E
FN:203,_ZSt8_DestroyIN9__gnu_cxx17__normal_iteratorIP8PositionSt6vectorIS2_SaIS2_EEEES2_EvT_S8_RSaIT0_E
FNDA:0,_ZSt8_DestroyIN9__gnu_cxx17__normal_iteratorIP8PositionSt6vectorIS2_SaIS2_EEEES2_EvT_S8_RSaIT0_E
FN:203,_ZSt8_DestroyIP4MoveS0_EvT_S2_RSaIT0_E
FNDA:0,_ZSt8_DestroyIP4MoveS0_EvT_S2_RSaIT0_E
FN:203,_ZSt8_DestroyIP8PositionS0_EvT_S2_RSaIT0_E
FNDA:0,_ZSt8_DestroyIP8PositionS0_EvT_S2_RSaIT0_E
DA:74,0
DA:75,0
DA:74,0
DA:75,0
DA:74,0
DA:75,0
DA:74,0
DA:75,0
DA:74,0
DA:75,0
DA:97,0
DA:98,0
DA:105,0
DA:107,0
DA:108,0
DA:109,0
DA:105,0
DA:107,0
DA:108,0
DA:109,0
DA:117,0
DA:117,0
DA:127,0
DA:137,0
DA:138,0
DA:127,0
DA:137,0
DA:138,0
DA:127,0
DA:137,0
DA:138,0
DA:127,0
DA:137,0
DA:138,0
DA:203,0
DA:206,0
DA:207,0
DA:203,0
DA:206,0
DA:207,0
DA:203,0
DA:206,0
DA:207,0
DA:203,0
DA:206,0
DA:207,0
end_of_record
SF:/usr/include/c++/9/bits/shared_ptr.h
FN:139,_ZNSt10shared_ptrI4KingEC2IS0_vEEPT_
FNDA:14030,_ZNSt10shared_ptrI4KingEC2IS0_vEEPT_
FN:263,_ZNSt10shared_ptrI5PieceEC2I4KingvEEOS_IT_E
FNDA:0,_ZNSt10shared_ptrI5PieceEC2I4KingvEEOS_IT_E
DA:139,14030
DA:263,0
DA:264,0
end_of_record
SF:/usr/include/c++/9/ext/alloc_traits.h
FN:97,_ZN9__gnu_cxx14__alloc_traitsISaISt13_Rb_tree_nodeISt4pairIK9PieceNamecEEES6_E17_S_select_on_copyERKS7_
FNDA:0,_ZN9__gnu_cxx14__alloc_traitsISaISt13_Rb_tree_nodeISt4pairIK9PieceNamecEEES6_E17_S_select_on_copyERKS7_
FN:97,_ZN9__gnu_cxx14__alloc_traitsISaISt13_Rb_tree_nodeISt4pairIKNSt7__cxx1112basic_stringIcSt11char_traitsIcESaIcEEE8PositionEEESC_E17_S_select_on_copyERKSD_
FNDA:0,_ZN9__gnu_cxx14__alloc_traitsISaISt13_Rb_tree_nodeISt4pairIKNSt7__cxx1112basic_stringIcSt11char_traitsIcESaIcEEE8PositionEEESC_E17_S_select_on_copyERKSD_
FN:97,_ZN9__gnu_cxx14__alloc_traitsISaIcEcE17_S_select_on_copyERKS1_
FNDA:0,_ZN9__gnu_cxx14__alloc_traitsISaIcEcE17_S_select_on_copyERKS1_
FN:97,_ZN9__gnu_cxx14__alloc_traitsISaI4MoveES1_E17_S_select_on_copyERKS2_
FNDA:0,_ZN9__gnu_cxx14__alloc_traitsISaI4MoveES1_E17_S_select_on_copyERKS2_
FN:97,_ZN9__gnu_cxx14__alloc_traitsISaI8PositionES1_E17_S_select_on_copyERKS2_
FNDA:0,_ZN9__gnu_cxx14__alloc_traitsISaI8PositionES1_E17_S_select_on_copyERKS2_
FN:103,_ZN9__gnu_cxx14__alloc_traitsISaI4MoveES1_E27_S_propagate_on_copy_assignEv
FNDA:0,_ZN9__gnu_cxx14__alloc_traitsISaI4MoveES1_E27_S_propagate_on_copy_assignEv
FN:103,_ZN9__gnu_cxx14__alloc_traitsISaI8PositionES1_E27_S_propagate_on_copy_assignEv
FNDA:0,_ZN9__gnu_cxx14__alloc_traitsISaI8PositionES1_E27_S_propagate_on_copy_assignEv
FN:112,_ZN9__gnu_cxx14__alloc_traitsISaI4MoveES1_E15_S_always_equalEv
FNDA:0,_ZN9__gnu_cxx14__alloc_traitsISaI4MoveES1_E15_S_always_equalEv
FN:112,_ZN9__gnu_cxx14__alloc_traitsISaI8PositionES1_E15_S_always_equalEv
FNDA:0,_ZN9__gnu_cxx14__alloc_traitsISaI8PositionES1_E15_S_always_equalEv
DA:97,0
DA:98,0
DA:97,0
DA:98,0
DA:97,0
DA:98,0
DA:97,0
DA:98,0
DA:97,0
DA:98,0
DA:103,0
DA:104,0
DA:103,0
DA:104,0
DA:112,0
DA:113,0
DA:112,0
DA:113,0
end_of_record
SF:/usr/include/c++/9/bits/move.h
FN:47,_ZSt11__addressofI8PositionEPT_RS1_
FNDA:0,_ZSt11__addressofI8PositionEPT_RS1_
FN:47,_ZSt11__addressofI4MoveEPT_RS1_
FNDA:0,_ZSt11__addressofI4MoveEPT_RS1_
FN:74,_ZSt7forwardIRKSt4pairIKNSt7__cxx1112basic_stringIcSt11char_traitsIcESaIcEEE8PositionEEOT_RNSt16remove_referenceISC_E4typeE
FNDA:0,_ZSt7forwardIRKSt4pairIKNSt7__cxx1112basic_stringIcSt11char_traitsIcESaIcEEE8PositionEEOT_RNSt16remove_referenceISC_E4typeE
FN:74,_ZSt7forwardIR4MoveEOT_RNSt16remove_referenceIS2_E4typeE
FNDA:0,_ZSt7forwardIR4MoveEOT_RNSt16remove_referenceIS2_E4typeE
FN:74,_ZSt7forwardIR8PositionEOT_RNSt16remove_referenceIS2_E4typeE
FNDA:0,_ZSt7forwardIR8PositionEOT_RNSt16remove_referenceIS2_E4typeE
FN:74,_ZSt7forwardIRK8PositionEOT_RNSt16remove_referenceIS3_E4typeE
FNDA:0,_ZSt7forwardIRK8PositionEOT_RNSt16remove_referenceIS3_E4typeE
FN:74,_ZSt7forwardIRKSt4pairIK9PieceNamecEEOT_RNSt16remove_referenceIS6_E4typeE
FNDA:0,_ZSt7forwardIRKSt4pairIK9PieceNamecEEOT_RNSt16remove_referenceIS6_E4typeE
FN:74,_ZSt7forwardI4MoveEOT_RNSt16remove_referenceIS1_E4typeE
FNDA:0,_ZSt7forwardI4MoveEOT_RNSt16remove_referenceIS1_E4typeE
FN:74,_ZSt7forwardIRK4MoveEOT_RNSt16remove_referenceIS3_E4typeE
FNDA:0,_ZSt7forwardIRK4MoveEOT_RNSt16remove_referenceIS3_E4typeE
FN:99,_ZSt4moveIRSaIcEEONSt16remove_referenceIT_E4typeEOS3_
FNDA:0,_ZSt4moveIRSaIcEEONSt16remove_referenceIT_E4typeEOS3_
FN:99,_ZSt4moveIRSt10shared_ptrI4KingEEONSt16remove_referenceIT_E4typeEOS5_
FNDA:0,_ZSt4moveIRSt10shared_ptrI4KingEEONSt16remove_referenceIT_E4typeEOS5_
FN:99,_ZSt4moveIRSt6vectorI8PositionSaIS1_EEEONSt16remove_referenceIT_E4typeEOS6_
FNDA:0,_ZSt4moveIRSt6vectorI8PositionSaIS1_EEEONSt16remove_referenceIT_E4typeEOS6_
FN:99,_ZSt4moveIRSt6vectorI4MoveSaIS1_EEEONSt16remove_referenceIT_E4typeEOS6_
FNDA:0,_ZSt4moveIRSt6vectorI4MoveSaIS1_EEEONSt16remove_referenceIT_E4typeEOS6_
FN:99,_ZSt4moveIRNSt12_Vector_baseI4MoveSaIS1_EE12_Vector_implEEONSt16remove_referenceIT_E4typeEOS7_
FNDA:0,_ZSt4moveIRNSt12_Vector_baseI4MoveSaIS1_EE12_Vector_implEEONSt16remove_referenceIT_E4typeEOS7_
FN:99,_ZSt4moveIR4MoveEONSt16remove_referenceIT_E4typeEOS3_
FNDA:0,_ZSt4moveIR4MoveEONSt16remove_referenceIT_E4typeEOS3_
FN:99,_ZSt4moveIRSaI8PositionEEONSt16remove_referenceIT_E4typeEOS4_
FNDA:0,_ZSt4moveIRSaI8PositionEEONSt16remove_referenceIT_E4typeEOS4_
FN:99,_ZSt4moveIRSaI4MoveEEONSt16remove_referenceIT_E4typeEOS4_
FNDA:0,_ZSt4moveIRSaI4MoveEEONSt16remove_referenceIT_E4typeEOS4_
FN:99,_ZSt4moveIRNSt12_Vector_baseI8PositionSaIS1_EE12_Vector_implEEONSt16remove_referenceIT_E4typeEOS7_
FNDA:0,_ZSt4moveIRNSt12_Vector_baseI8PositionSaIS1_EE12_Vector_implEEONSt16remove_referenceIT_E4typeEOS7_
DA:47,0
DA:48,0
DA:47,0
DA:48,0
DA:74,0
DA:75,0
DA:74,0
DA:75,0
DA:74,0
DA:75,0
DA:74,0
DA:75,0
DA:74,0
DA:75,0
DA:74,0
DA:75,0
DA:74,0
DA:75,0
DA:99,0
DA:100,0
DA:99,0
DA:100,0
DA:99,0
DA:100,0
DA:99,0
DA:100,0
DA:99,0
DA:100,0
DA:99,0
DA:100,0
DA:99,0
DA:100,0
DA:99,0
DA:100,0
DA:99,0
DA:100,0
end_of_record
SF:/usr/include/c++/9/bits/stl_iterator.h
FN:806,_ZN9__gnu_cxx17__normal_iteratorIPK8PositionSt6vectorIS1_SaIS1_EEEC2ERKS3_
FNDA:0,_ZN9__gnu_cxx17__normal_iteratorIPK8PositionSt6vectorIS1_SaIS1_EEEC2ERKS3_
FN:806,_ZN9__gnu_cxx17__normal_iteratorIPK4MoveSt6vectorIS1_SaIS1_EEEC2ERKS3_
FNDA:0,_ZN9__gnu_cxx17__normal_iteratorIPK4MoveSt6vectorIS1_SaIS1_EEEC2ERKS3_
FN:806,_ZN9__gnu_cxx17__normal_iteratorIP8PositionSt6vectorIS1_SaIS1_EEEC2ERKS2_
FNDA:0,_ZN9__gnu_cxx17__normal_iteratorIP8PositionSt6vectorIS1_SaIS1_EEEC2ERKS2_
FN:806,_ZN9__gnu_cxx17__normal_iteratorIP4MoveSt6vectorIS1_SaIS1_EEEC2ERKS2_
FNDA:0,_ZN9__gnu_cxx17__normal_iteratorIP4MoveSt6vectorIS1_SaIS1_EEEC2ERKS2_
FN:819,_ZNK9__gnu_cxx17__normal_iteratorIP4MoveSt6vectorIS1_SaIS1_EEEdeEv
FNDA:0,_ZNK9__gnu_cxx17__normal_iteratorIP4MoveSt6vectorIS1_SaIS1_EEEdeEv
FN:819,_ZNK9__gnu_cxx17__normal_iteratorIPK8PositionSt6vectorIS1_SaIS1_EEEdeEv
FNDA:0,_ZNK9__gnu_cxx17__normal_iteratorIPK8PositionSt6vectorIS1_SaIS1_EEEdeEv
FN:819,_ZNK9__gnu_cxx17__normal_iteratorIPK4MoveSt6vectorIS1_SaIS1_EEEdeEv
FNDA:0,_ZNK9__gnu_cxx17__normal_iteratorIPK4MoveSt6vectorIS1_SaIS1_EEEdeEv
FN:827,_ZN9__gnu_cxx17__normal_iteratorIPK4MoveSt6vectorIS1_SaIS1_EEEppEv
FNDA:0,_ZN9__gnu_cxx17__normal_iteratorIPK4MoveSt6vectorIS1_SaIS1_EEEppEv
FN:827,_ZN9__gnu_cxx17__normal_iteratorIPK8PositionSt6vectorIS1_SaIS1_EEEppEv
FNDA:0,_ZN9__gnu_cxx17__normal_iteratorIPK8PositionSt6vectorIS1_SaIS1_EEEppEv
FN:827,_ZN9__gnu_cxx17__normal_iteratorIP4MoveSt6vectorIS1_SaIS1_EEEppEv
FNDA:0,_ZN9__gnu_cxx17__normal_iteratorIP4MoveSt6vectorIS1_SaIS1_EEEppEv
FN:859,_ZNK9__gnu_cxx17__normal_iteratorIP8PositionSt6vectorIS1_SaIS1_EEEplEl
FNDA:0,_ZNK9__gnu_cxx17__normal_iteratorIP8PositionSt6vectorIS1_SaIS1_EEEplEl
FN:859,_ZNK9__gnu_cxx17__normal_iteratorIP4MoveSt6vectorIS1_SaIS1_EEEplEl
FNDA:0,_ZNK9__gnu_cxx17__normal_iteratorIP4MoveSt6vectorIS1_SaIS1_EEEplEl
FN:871,_ZNK9__gnu_cxx17__normal_iteratorIPK4MoveSt6vectorIS1_SaIS1_EEE4baseEv
FNDA:0,_ZNK9__gnu_cxx17__normal_iteratorIPK4MoveSt6vectorIS1_SaIS1_EEE4baseEv
FN:871,_ZNK9__gnu_cxx17__normal_iteratorIP8PositionSt6vectorIS1_SaIS1_EEE4baseEv
FNDA:0,_ZNK9__gnu_cxx17__normal_iteratorIP8PositionSt6vectorIS1_SaIS1_EEE4baseEv
FN:871,_ZNK9__gnu_cxx17__normal_iteratorIPK8PositionSt6vectorIS1_SaIS1_EEE4baseEv
FNDA:0,_ZNK9__gnu_cxx17__normal_iteratorIPK8PositionSt6vectorIS1_SaIS1_EEE4baseEv
FN:871,_ZNK9__gnu_cxx17__normal_iteratorIP4MoveSt6vectorIS1_SaIS1_EEE4baseEv
FNDA:0,_ZNK9__gnu_cxx17__normal_iteratorIP4MoveSt6vectorIS1_SaIS1_EEE4baseEv
FN:907,_ZN9__gnu_cxxneIPK8PositionSt6vectorIS1_SaIS1_EEEEbRKNS_17__normal_iteratorIT_T0_EESC_
FNDA:0,_ZN9__gnu_cxxneIPK8PositionSt6vectorIS1_SaIS1_EEEEbRKNS_17__normal_iteratorIT_T0_EESC_
FN:907,_ZN9__gnu_cxxneIPK4MoveSt6vectorIS1_SaIS1_EEEEbRKNS_17__normal_iteratorIT_T0_EESC_
FNDA:0,_ZN9__gnu_cxxneIPK4MoveSt6vectorIS1_SaIS1_EEEEbRKNS_17__normal_iteratorIT_T0_EESC_
FN:907,_ZN9__gnu_cxxneIP4MoveSt6vectorIS1_SaIS1_EEEEbRKNS_17__normal_iteratorIT_T0_EESB_
FNDA:0,_ZN9__gnu_cxxneIP4MoveSt6vectorIS1_SaIS1_EEEEbRKNS_17__normal_iteratorIT_T0_EESB_
FN:989,_ZN9__gnu_cxxmiIP4MoveSt6vectorIS1_SaIS1_EEEENS_17__normal_iteratorIT_T0_E15difference_typeERKS9_SC_
FNDA:0,_ZN9__gnu_cxxmiIP4MoveSt6vectorIS1_SaIS1_EEEENS_17__normal_iteratorIT_T0_E15difference_typeERKS9_SC_
FN:1010,_ZSt12__niter_baseIP4MoveSt6vectorIS0_SaIS0_EEET_N9__gnu_cxx17__normal_iteratorIS5_T0_EE
FNDA:0,_ZSt12__niter_baseIP4MoveSt6vectorIS0_SaIS0_EEET_N9__gnu_cxx17__normal_iteratorIS5_T0_EE
FN:1010,_ZSt12__niter_baseIPK4MoveSt6vectorIS0_SaIS0_EEET_N9__gnu_cxx17__normal_iteratorIS6_T0_EE
FNDA:0,_ZSt12__niter_baseIPK4MoveSt6vectorIS0_SaIS0_EEET_N9__gnu_cxx17__normal_iteratorIS6_T0_EE
FN:1010,_ZSt12__niter_baseIP8PositionSt6vectorIS0_SaIS0_EEET_N9__gnu_cxx17__normal_iteratorIS5_T0_EE
FNDA:0,_ZSt12__niter_baseIP8PositionSt6vectorIS0_SaIS0_EEET_N9__gnu_cxx17__normal_iteratorIS5_T0_EE
FN:1010,_ZSt12__niter_baseIPK8PositionSt6vectorIS0_SaIS0_EEET_N9__gnu_cxx17__normal_iteratorIS6_T0_EE
FNDA:0,_ZSt12__niter_baseIPK8PositionSt6vectorIS0_SaIS0_EEET_N9__gnu_cxx17__normal_iteratorIS6_T0_EE
FN:1057,_ZNSt13move_iteratorIP4MoveEC2ES1_
FNDA:0,_ZNSt13move_iteratorIP4MoveEC2ES1_
FN:1066,_ZNKSt13move_iteratorIP4MoveE4baseEv
FNDA:0,_ZNKSt13move_iteratorIP4MoveE4baseEv
FN:1070,_ZNKSt13move_iteratorIP4MoveEdeEv
FNDA:0,_ZNKSt13move_iteratorIP4MoveEdeEv
FN:1078,_ZNSt13move_iteratorIP4MoveEppEv
FNDA:0,_ZNSt13move_iteratorIP4MoveEppEv
FN:1145,_ZSteqIP4MoveEbRKSt13move_iteratorIT_ES6_
FNDA:0,_ZSteqIP4MoveEbRKSt13move_iteratorIT_ES6_
FN:1157,_ZStneIP4MoveEbRKSt13move_iteratorIT_ES6_
FNDA:0,_ZStneIP4MoveEbRKSt13move_iteratorIT_ES6_
FN:1242,_ZSt32__make_move_if_noexcept_iteratorI4MoveSt13move_iteratorIPS0_EET0_PT_
FNDA:0,_ZSt32__make_move_if_noexcept_iteratorI4MoveSt13move_iteratorIPS0_EET0_PT_
DA:806,0
DA:807,0
DA:806,0
DA:807,0
DA:806,0
DA:807,0
DA:806,0
DA:807,0
DA:819,0
DA:820,0
DA:819,0
DA:820,0
DA:819,0
DA:820,0
DA:827,0
DA:829,0
DA:830,0
DA:827,0
DA:829,0
DA:830,0
DA:827,0
DA:829,0
DA:830,0
DA:859,0
DA:860,0
DA:859,0
DA:860,0
DA:871,0
DA:872,0
DA:871,0
DA:872,0
DA:871,0
DA:872,0
DA:871,0
DA:872,0
DA:907,0
DA:910,0
DA:907,0
DA:910,0
DA:907,0
DA:910,0
DA:989,0
DA:992,0
DA:1010,0
DA:1012,0
DA:1010,0
DA:1012,0
DA:1010,0
DA:1012,0
DA:1010,0
DA:1012,0
DA:1057,0
DA:1058,0
DA:1066,0
DA:1067,0
DA:1070,0
DA:1071,0
DA:1078,0
DA:1080,0
DA:1081,0
DA:1145,0
DA:1147,0
DA:1157,0
DA:1159,0
DA:1242,0
DA:1243,0
end_of_record
SF:/usr/include/c++/9/bits/stl_tree.h
FN:112,_ZNSt18_Rb_tree_node_base10_S_minimumEPS_
FNDA:0,_ZNSt18_Rb_tree_node_base10_S_minimumEPS_
FN:126,_ZNSt18_Rb_tree_node_base10_S_maximumEPS_
FNDA:0,_ZNSt18_Rb_tree_node_base10_S_maximumEPS_
FN:152,_ZNSt20_Rb_tree_key_compareISt4lessI9PieceNameEEC2ERKS2_
FNDA:0,_ZNSt20_Rb_tree_key_compareISt4lessI9PieceNameEEC2ERKS2_
FN:152,_ZNSt20_Rb_tree_key_compareISt4lessINSt7__cxx1112basic_stringIcSt11char_traitsIcESaIcEEEEEC2ERKS7_
FNDA:0,_ZNSt20_Rb_tree_key_compareISt4lessINSt7__cxx1112basic_stringIcSt11char_traitsIcESaIcEEEEEC2ERKS7_
FN:173,_ZNSt15_Rb_tree_headerC2Ev
FNDA:0,_ZNSt15_Rb_tree_headerC2Ev
FN:206,_ZNSt15_Rb_tree_header8_M_resetEv
FNDA:0,_ZNSt15_Rb_tree_header8_M_resetEv
FN:234,_ZNSt13_Rb_tree_nodeISt4pairIK9PieceNamecEE9_M_valptrEv
FNDA:0,_ZNSt13_Rb_tree_nodeISt4pairIK9PieceNamecEE9_M_valptrEv
FN:234,_ZNSt13_Rb_tree_nodeISt4pairIKNSt7__cxx1112basic_stringIcSt11char_traitsIcESaIcEEE8PositionEE9_M_valptrEv
FNDA:0,_ZNSt13_Rb_tree_nodeISt4pairIKNSt7__cxx1112basic_stringIcSt11char_traitsIcESaIcEEE8PositionEE9_M_valptrEv
FN:238,_ZNKSt13_Rb_tree_nodeISt4pairIKNSt7__cxx1112basic_stringIcSt11char_traitsIcESaIcEEE8PositionEE9_M_valptrEv
FNDA:0,_ZNKSt13_Rb_tree_nodeISt4pairIKNSt7__cxx1112basic_stringIcSt11char_traitsIcESaIcEEE8PositionEE9_M_valptrEv
FN:238,_ZNKSt13_Rb_tree_nodeISt4pairIK9PieceNamecEE9_M_valptrEv
FNDA:0,_ZNKSt13_Rb_tree_nodeISt4pairIK9PieceNamecEE9_M_valptrEv
FN:538,_ZNSt8_Rb_treeI9PieceNameSt4pairIKS0_cESt10_Select1stIS3_ESt4lessIS0_ESaIS3_EE11_Alloc_nodeC2ERS9_
FNDA:0,_ZNSt8_Rb_treeI9PieceNameSt4pairIKS0_cESt10_Select1stIS3_ESt4lessIS0_ESaIS3_EE11_Alloc_nodeC2ERS9_
FN:538,_ZNSt8_Rb_treeINSt7__cxx1112basic_stringIcSt11char_traitsIcESaIcEEESt4pairIKS5_8PositionESt10_Select1stIS9_ESt4lessIS5_ESaIS9_EE11_Alloc_nodeC2ERSF_
FNDA:0,_ZNSt8_Rb_treeINSt7__cxx1112basic_stringIcSt11char_traitsIcESaIcEEESt4pairIKS5_8PositionESt10_Select1stIS9_ESt4lessIS5_ESaIS9_EE11_Alloc_nodeC2ERSF_
FN:546,_ZNKSt8_Rb_treeINSt7__cxx1112basic_stringIcSt11char_traitsIcESaIcEEESt4pairIKS5_8PositionESt10_Select1stIS9_ESt4lessIS5_ESaIS9_EE11_Alloc_nodeclIRKS9_EEPSt13_Rb_tree_nodeIS9_EOT_
FNDA:0,_ZNKSt8_Rb_treeINSt7__cxx1112basic_stringIcSt11char_traitsIcESaIcEEESt4pairIKS5_8PositionESt10_Select1stIS9_ESt4lessIS5_ESaIS9_EE11_Alloc_nodeclIRKS9_EEPSt13_Rb_tree_nodeIS9_EOT_
FN:546,_ZNKSt8_Rb_treeI9PieceNameSt4pairIKS0_cESt10_Select1stIS3_ESt4lessIS0_ESaIS3_EE11_Alloc_nodeclIRKS3_EEPSt13_Rb_tree_nodeIS3_EOT_
FNDA:0,_ZNKSt8_Rb_treeI9PieceNameSt4pairIKS0_cESt10_Select1stIS3_ESt4lessIS0_ESaIS3_EE11_Alloc_nodeclIRKS3_EEPSt13_Rb_tree_nodeIS3_EOT_
FN:566,_ZNSt8_Rb_treeINSt7__cxx1112basic_stringIcSt11char_traitsIcESaIcEEESt4pairIKS5_8PositionESt10_Select1stIS9_ESt4lessIS5_ESaIS9_EE21_M_get_Node_allocatorEv
FNDA:0,_ZNSt8_Rb_treeINSt7__cxx1112basic_stringIcSt11char_traitsIcESaIcEEESt4pairIKS5_8PositionESt10_Select1stIS9_ESt4lessIS5_ESaIS9_EE21_M_get_Node_allocatorEv
FN:566,_ZNSt8_Rb_treeI9PieceNameSt4pairIKS0_cESt10_Select1stIS3_ESt4lessIS0_ESaIS3_EE21_M_get_Node_allocatorEv
FNDA:0,_ZNSt8_Rb_treeI9PieceNameSt4pairIKS0_cESt10_Select1stIS3_ESt4lessIS0_ESaIS3_EE21_M_get_Node_allocatorEv
FN:579,_ZNSt8_Rb_treeINSt7__cxx1112basic_stringIcSt11char_traitsIcESaIcEEESt4pairIKS5_8PositionESt10_Select1stIS9_ESt4lessIS5_ESaIS9_EE11_M_get_nodeEv
FNDA:0,_ZNSt8_Rb_treeINSt7__cxx1112basic_stringIcSt11char_traitsIcESaIcEEESt4pairIKS5_8PositionESt10_Select1stIS9_ESt4lessIS5_ESaIS9_EE11_M_get_nodeEv
FN:579,_ZNSt8_Rb_treeI9PieceNameSt4pairIKS0_cESt10_Select1stIS3_ESt4lessIS0_ESaIS3_EE11_M_get_nodeEv
FNDA:0,_ZNSt8_Rb_treeI9PieceNameSt4pairIKS0_cESt10_Select1stIS3_ESt4lessIS0_ESaIS3_EE11_M_get_nodeEv
FN:583,_ZNSt8_Rb_treeI9PieceNameSt4pairIKS0_cESt10_Select1stIS3_ESt4lessIS0_ESaIS3_EE11_M_put_nodeEPSt13_Rb_tree_nodeIS3_E
FNDA:0,_ZNSt8_Rb_treeI9PieceNameSt4pairIKS0_cESt10_Select1stIS3_ESt4lessIS0_ESaIS3_EE11_M_put_nodeEPSt13_Rb_tree_nodeIS3_E
FN:583,_ZNSt8_Rb_treeINSt7__cxx1112basic_stringIcSt11char_traitsIcESaIcEEESt4pairIKS5_8PositionESt10_Select1stIS9_ESt4lessIS5_ESaIS9_EE11_M_put_nodeEPSt13_Rb_tree_nodeIS9_E
FNDA:0,_ZNSt8_Rb_treeINSt7__cxx1112basic_stringIcSt11char_traitsIcESaIcEEESt4pairIKS5_8PositionESt10_Select1stIS9_ESt4lessIS5_ESaIS9_EE11_M_put_nodeEPSt13_Rb_tree_nodeIS9_E
FN:609,_ZNSt8_Rb_treeINSt7__cxx1112basic_stringIcSt11char_traitsIcESaIcEEESt4pairIKS5_8PositionESt10_Select1stIS9_ESt4lessIS5_ESaIS9_EE17_M_construct_nodeIJRKS9_EEEvPSt13_Rb_tree_nodeIS9_EDpOT_
FNDA:0,_ZNSt8_Rb_treeINSt7__cxx1112basic_stringIcSt11char_traitsIcESaIcEEESt4pairIKS5_8PositionESt10_Select1stIS9_ESt4lessIS5_ESaIS9_EE17_M_construct_nodeIJRKS9_EEEvPSt13_Rb_tree_nodeIS9_EDpOT_
FN:609,_ZNSt8_Rb_treeI9PieceNameSt4pairIKS0_cESt10_Select1stIS3_ESt4lessIS0_ESaIS3_EE17_M_construct_nodeIJRKS3_EEEvPSt13_Rb_tree_nodeIS3_EDpOT_
FNDA:0,_ZNSt8_Rb_treeI9PieceNameSt4pairIKS0_cESt10_Select1stIS3_ESt4lessIS0_ESaIS3_EE17_M_construct_nodeIJRKS3_EEEvPSt13_Rb_tree_nodeIS3_EDpOT_
FN:628,_ZNSt8_Rb_treeINSt7__cxx1112basic_stringIcSt11char_traitsIcESaIcEEESt4pairIKS5_8PositionESt10_Select1stIS9_ESt4lessIS5_ESaIS9_EE14_M_create_nodeIJRKS9_EEEPSt13_Rb_tree_nodeIS9_EDpOT_
FNDA:0,_ZNSt8_Rb_treeINSt7__cxx1112basic_stringIcSt11char_traitsIcESaIcEEESt4pairIKS5_8PositionESt10_Select1stIS9_ESt4lessIS5_ESaIS9_EE14_M_create_nodeIJRKS9_EEEPSt13_Rb_tree_nodeIS9_EDpOT_
FN:628,_ZNSt8_Rb_treeI9PieceNameSt4pairIKS0_cESt10_Select1stIS3_ESt4lessIS0_ESaIS3_EE14_M_create_nodeIJRKS3_EEEPSt13_Rb_tree_nodeIS3_EDpOT_
FNDA:0,_ZNSt8_Rb_treeI9PieceNameSt4pairIKS0_cESt10_Select1stIS3_ESt4lessIS0_ESaIS3_EE14_M_create_nodeIJRKS3_EEEPSt13_Rb_tree_nodeIS3_EDpOT_
FN:637,_ZNSt8_Rb_treeI9PieceNameSt4pairIKS0_cESt10_Select1stIS3_ESt4lessIS0_ESaIS3_EE15_M_destroy_nodeEPSt13_Rb_tree_nodeIS3_E
FNDA:0,_ZNSt8_Rb_treeI9PieceNameSt4pairIKS0_cESt10_Select1stIS3_ESt4lessIS0_ESaIS3_EE15_M_destroy_nodeEPSt13_Rb_tree_nodeIS3_E
FN:637,_ZNSt8_Rb_treeINSt7__cxx1112basic_stringIcSt11char_traitsIcESaIcEEESt4pairIKS5_8PositionESt10_Select1stIS9_ESt4lessIS5_ESaIS9_EE15_M_destroy_nodeEPSt13_Rb_tree_nodeIS9_E
FNDA:0,_ZNSt8_Rb_treeINSt7__cxx1112basic_stringIcSt11char_traitsIcESaIcEEESt4pairIKS5_8PositionESt10_Select1stIS9_ESt4lessIS5_ESaIS9_EE15_M_destroy_nodeEPSt13_Rb_tree_nodeIS9_E
FN:648,_ZNSt8_Rb_treeI9PieceNameSt4pairIKS0_cESt10_Select1stIS3_ESt4lessIS0_ESaIS3_EE12_M_drop_nodeEPSt13_Rb_tree_nodeIS3_E
FNDA:0,_ZNSt8_Rb_treeI9PieceNameSt4pairIKS0_cESt10_Select1stIS3_ESt4lessIS0_ESaIS3_EE12_M_drop_nodeEPSt13_Rb_tree_nodeIS3_E
FN:648,_ZNSt8_Rb_treeINSt7__cxx1112basic_stringIcSt11char_traitsIcESaIcEEESt4pairIKS5_8PositionESt10_Select1stIS9_ESt4lessIS5_ESaIS9_EE12_M_drop_nodeEPSt13_Rb_tree_nodeIS9_E
FNDA:0,_ZNSt8_Rb_treeINSt7__cxx1112basic_stringIcSt11char_traitsIcESaIcEEESt4pairIKS5_8PositionESt10_Select1stIS9_ESt4lessIS5_ESaIS9_EE12_M_drop_nodeEPSt13_Rb_tree_nodeIS9_E
FN:656,_ZNSt8_Rb_treeINSt7__cxx1112basic_stringIcSt11char_traitsIcESaIcEEESt4pairIKS5_8PositionESt10_Select1stIS9_ESt4lessIS5_ESaIS9_EE13_M_clone_nodeINSF_11_Alloc_nodeEEEPSt13_Rb_tree_nodeIS9_EPKSJ_RT_
FNDA:0,_ZNSt8_Rb_treeINSt7__cxx1112basic_stringIcSt11char_traitsIcESaIcEEESt4pairIKS5_8PositionESt10_Select1stIS9_ESt4lessIS5_ESaIS9_EE13_M_clone_nodeINSF_11_Alloc_nodeEEEPSt13_Rb_tree_nodeIS9_EPKSJ_RT_
FN:656,_ZNSt8_Rb_treeI9PieceNameSt4pairIKS0_cESt10_Select1stIS3_ESt4lessIS0_ESaIS3_EE13_M_clone_nodeINS9_11_Alloc_nodeEEEPSt13_Rb_tree_nodeIS3_EPKSD_RT_
FNDA:0,_ZNSt8_Rb_treeI9PieceNameSt4pairIKS0_cESt10_Select1stIS3_ESt4lessIS0_ESaIS3_EE13_M_clone_nodeINS9_11_Alloc_nodeEEEPSt13_Rb_tree_nodeIS3_EPKSD_RT_
FN:687,_ZNSt8_Rb_treeI9PieceNameSt4pairIKS0_cESt10_Select1stIS3_ESt4lessIS0_ESaIS3_EE13_Rb_tree_implIS7_Lb1EEC2ERKSB_
FNDA:0,_ZNSt8_Rb_treeI9PieceNameSt4pairIKS0_cESt10_Select1stIS3_ESt4lessIS0_ESaIS3_EE13_Rb_tree_implIS7_Lb1EEC2ERKSB_
FN:687,_ZNSt8_Rb_treeINSt7__cxx1112basic_stringIcSt11char_traitsIcESaIcEEESt4pairIKS5_8PositionESt10_Select1stIS9_ESt4lessIS5_ESaIS9_EE13_Rb_tree_implISD_Lb1EEC2ERKSH_
FNDA:0,_ZNSt8_Rb_treeINSt7__cxx1112basic_stringIcSt11char_traitsIcESaIcEEESt4pairIKS5_8PositionESt10_Select1stIS9_ESt4lessIS5_ESaIS9_EE13_Rb_tree_implISD_Lb1EEC2ERKSH_
FN:720,_ZNSt8_Rb_treeINSt7__cxx1112basic_stringIcSt11char_traitsIcESaIcEEESt4pairIKS5_8PositionESt10_Select1stIS9_ESt4lessIS5_ESaIS9_EE7_M_rootEv
FNDA:0,_ZNSt8_Rb_treeINSt7__cxx1112basic_stringIcSt11char_traitsIcESaIcEEESt4pairIKS5_8PositionESt10_Select1stIS9_ESt4lessIS5_ESaIS9_EE7_M_rootEv
FN:720,_ZNSt8_Rb_treeI9PieceNameSt4pairIKS0_cESt10_Select1stIS3_ESt4lessIS0_ESaIS3_EE7_M_rootEv
FNDA:0,_ZNSt8_Rb_treeI9PieceNameSt4pairIKS0_cESt10_Select1stIS3_ESt4lessIS0_ESaIS3_EE7_M_rootEv
FN:724,_ZNKSt8_Rb_treeINSt7__cxx1112basic_stringIcSt11char_traitsIcESaIcEEESt4pairIKS5_8PositionESt10_Select1stIS9_ESt4lessIS5_ESaIS9_EE7_M_rootEv
FNDA:0,_ZNKSt8_Rb_treeINSt7__cxx1112basic_stringIcSt11char_traitsIcESaIcEEESt4pairIKS5_8PositionESt10_Select1stIS9_ESt4lessIS5_ESaIS9_EE7_M_rootEv
FN:724,_ZNKSt8_Rb_treeI9PieceNameSt4pairIKS0_cESt10_Select1stIS3_ESt4lessIS0_ESaIS3_EE7_M_rootEv
FNDA:0,_ZNKSt8_Rb_treeI9PieceNameSt4pairIKS0_cESt10_Select1stIS3_ESt4lessIS0_ESaIS3_EE7_M_rootEv
FN:728,_ZNSt8_Rb_treeINSt7__cxx1112basic_stringIcSt11char_traitsIcESaIcEEESt4pairIKS5_8PositionESt10_Select1stIS9_ESt4lessIS5_ESaIS9_EE11_M_leftmostEv
FNDA:0,_ZNSt8_Rb_treeINSt7__cxx1112basic_stringIcSt11char_traitsIcESaIcEEESt4pairIKS5_8PositionESt10_Select1stIS9_ESt4lessIS5_ESaIS9_EE11_M_leftmostEv
FN:728,_ZNSt8_Rb_treeI9PieceNameSt4pairIKS0_cESt10_Select1stIS3_ESt4lessIS0_ESaIS3_EE11_M_leftmostEv
FNDA:0,_ZNSt8_Rb_treeI9PieceNameSt4pairIKS0_cESt10_Select1stIS3_ESt4lessIS0_ESaIS3_EE11_M_leftmostEv
FN:736,_ZNSt8_Rb_treeINSt7__cxx1112basic_stringIcSt11char_traitsIcESaIcEEESt4pairIKS5_8PositionESt10_Select1stIS9_ESt4lessIS5_ESaIS9_EE12_M_rightmostEv
FNDA:0,_ZNSt8_Rb_treeINSt7__cxx1112basic_stringIcSt11char_traitsIcESaIcEEESt4pairIKS5_8PositionESt10_Select1stIS9_ESt4lessIS5_ESaIS9_EE12_M_rightmostEv
FN:736,_ZNSt8_Rb_treeI9PieceNameSt4pairIKS0_cESt10_Select1stIS3_ESt4lessIS0_ESaIS3_EE12_M_rightmostEv
FNDA:0,_ZNSt8_Rb_treeI9PieceNameSt4pairIKS0_cESt10_Select1stIS3_ESt4lessIS0_ESaIS3_EE12_M_rightmostEv
FN:744,_ZNSt8_Rb_treeI9PieceNameSt4pairIKS0_cESt10_Select1stIS3_ESt4lessIS0_ESaIS3_EE8_M_beginEv
FNDA:0,_ZNSt8_Rb_treeI9PieceNameSt4pairIKS0_cESt10_Select1stIS3_ESt4lessIS0_ESaIS3_EE8_M_beginEv
FN:744,_ZNSt8_Rb_treeINSt7__cxx1112basic_stringIcSt11char_traitsIcESaIcEEESt4pairIKS5_8PositionESt10_Select1stIS9_ESt4lessIS5_ESaIS9_EE8_M_beginEv
FNDA:0,_ZNSt8_Rb_treeINSt7__cxx1112basic_stringIcSt11char_traitsIcESaIcEEESt4pairIKS5_8PositionESt10_Select1stIS9_ESt4lessIS5_ESaIS9_EE8_M_beginEv
FN:748,_ZNKSt8_Rb_treeINSt7__cxx1112basic_stringIcSt11char_traitsIcESaIcEEESt4pairIKS5_8PositionESt10_Select1stIS9_ESt4lessIS5_ESaIS9_EE8_M_beginEv
FNDA:0,_ZNKSt8_Rb_treeINSt7__cxx1112basic_stringIcSt11char_traitsIcESaIcEEESt4pairIKS5_8PositionESt10_Select1stIS9_ESt4lessIS5_ESaIS9_EE8_M_beginEv
FN:748,_ZNKSt8_Rb_treeI9PieceNameSt4pairIKS0_cESt10_Select1stIS3_ESt4lessIS0_ESaIS3_EE8_M_beginEv
FNDA:0,_ZNKSt8_Rb_treeI9PieceNameSt4pairIKS0_cESt10_Select1stIS3_ESt4lessIS0_ESaIS3_EE8_M_beginEv
FN:755,_ZNSt8_Rb_treeINSt7__cxx1112basic_stringIcSt11char_traitsIcESaIcEEESt4pairIKS5_8PositionESt10_Select1stIS9_ESt4lessIS5_ESaIS9_EE6_M_endEv
FNDA:0,_ZNSt8_Rb_treeINSt7__cxx1112basic_stringIcSt11char_traitsIcESaIcEEESt4pairIKS5_8PositionESt10_Select1stIS9_ESt4lessIS5_ESaIS9_EE6_M_endEv
FN:755,_ZNSt8_Rb_treeI9PieceNameSt4pairIKS0_cESt10_Select1stIS3_ESt4lessIS0_ESaIS3_EE6_M_endEv
FNDA:0,_ZNSt8_Rb_treeI9PieceNameSt4pairIKS0_cESt10_Select1stIS3_ESt4lessIS0_ESaIS3_EE6_M_endEv
FN:789,_ZNSt8_Rb_treeI9PieceNameSt4pairIKS0_cESt10_Select1stIS3_ESt4lessIS0_ESaIS3_EE7_S_leftEPSt18_Rb_tree_node_base
FNDA:0,_ZNSt8_Rb_treeI9PieceNameSt4pairIKS0_cESt10_Select1stIS3_ESt4lessIS0_ESaIS3_EE7_S_leftEPSt18_Rb_tree_node_base
FN:789,_ZNSt8_Rb_treeINSt7__cxx1112basic_stringIcSt11char_traitsIcESaIcEEESt4pairIKS5_8PositionESt10_Select1stIS9_ESt4lessIS5_ESaIS9_EE7_S_leftEPSt18_Rb_tree_node_base
FNDA:0,_ZNSt8_Rb_treeINSt7__cxx1112basic_stringIcSt11char_traitsIcESaIcEEESt4pairIKS5_8PositionESt10_Select1stIS9_ESt4lessIS5_ESaIS9_EE7_S_leftEPSt18_Rb_tree_node_base
FN:793,_ZNSt8_Rb_treeI9PieceNameSt4pairIKS0_cESt10_Select1stIS3_ESt4lessIS0_ESaIS3_EE7_S_leftEPKSt18_Rb_tree_node_base
FNDA:0,_ZNSt8_Rb_treeI9PieceNameSt4pairIKS0_cESt10_Select1stIS3_ESt4lessIS0_ESaIS3_EE7_S_leftEPKSt18_Rb_tree_node_base
FN:793,_ZNSt8_Rb_treeINSt7__cxx1112basic_stringIcSt11char_traitsIcESaIcEEESt4pairIKS5_8PositionESt10_Select1stIS9_ESt4lessIS5_ESaIS9_EE7_S_leftEPKSt18_Rb_tree_node_base
FNDA:0,_ZNSt8_Rb_treeINSt7__cxx1112basic_stringIcSt11char_traitsIcESaIcEEESt4pairIKS5_8PositionESt10_Select1stIS9_ESt4lessIS5_ESaIS9_EE7_S_leftEPKSt18_Rb_tree_node_base
FN:797,_ZNSt8_Rb_treeI9PieceNameSt4pairIKS0_cESt10_Select1stIS3_ESt4lessIS0_ESaIS3_EE8_S_rightEPSt18_Rb_tree_node_base
FNDA:0,_ZNSt8_Rb_treeI9PieceNameSt4pairIKS0_cESt10_Select1stIS3_ESt4lessIS0_ESaIS3_EE8_S_rightEPSt18_Rb_tree_node_base
FN:797,_ZNSt8_Rb_treeINSt7__cxx1112basic_stringIcSt11char_traitsIcESaIcEEESt4pairIKS5_8PositionESt10_Select1stIS9_ESt4lessIS5_ESaIS9_EE8_S_rightEPSt18_Rb_tree_node_base
FNDA:0,_ZNSt8_Rb_treeINSt7__cxx1112basic_stringIcSt11char_traitsIcESaIcEEESt4pairIKS5_8PositionESt10_Select1stIS9_ESt4lessIS5_ESaIS9_EE8_S_rightEPSt18_Rb_tree_node_base
FN:801,_ZNSt8_Rb_treeINSt7__cxx1112basic_stringIcSt11char_traitsIcESaIcEEESt4pairIKS5_8PositionESt10_Select1stIS9_ESt4lessIS5_ESaIS9_EE8_S_rightEPKSt18_Rb_tree_node_base
FNDA:0,_ZNSt8_Rb_treeINSt7__cxx1112basic_stringIcSt11char_traitsIcESaIcEEESt4pairIKS5_8PositionESt10_Select1stIS9_ESt4lessIS5_ESaIS9_EE8_S_rightEPKSt18_Rb_tree_node_base
FN:801,_ZNSt8_Rb_treeI9PieceNameSt4pairIKS0_cESt10_Select1stIS3_ESt4lessIS0_ESaIS3_EE8_S_rightEPKSt18_Rb_tree_node_base
FNDA:0,_ZNSt8_Rb_treeI9PieceNameSt4pairIKS0_cESt10_Select1stIS3_ESt4lessIS0_ESaIS3_EE8_S_rightEPKSt18_Rb_tree_node_base
FN:813,_ZNSt8_Rb_treeI9PieceNameSt4pairIKS0_cESt10_Select1stIS3_ESt4lessIS0_ESaIS3_EE10_S_minimumEPSt18_Rb_tree_node_base
FNDA:0,_ZNSt8_Rb_treeI9PieceNameSt4pairIKS0_cESt10_Select1stIS3_ESt4lessIS0_ESaIS3_EE10_S_minimumEPSt18_Rb_tree_node_base
FN:813,_ZNSt8_Rb_treeINSt7__cxx1112basic_stringIcSt11char_traitsIcESaIcEEESt4pairIKS5_8PositionESt10_Select1stIS9_ESt4lessIS5_ESaIS9_EE10_S_minimumEPSt18_Rb_tree_node_base
FNDA:0,_ZNSt8_Rb_treeINSt7__cxx1112basic_stringIcSt11char_traitsIcESaIcEEESt4pairIKS5_8PositionESt10_Select1stIS9_ESt4lessIS5_ESaIS9_EE10_S_minimumEPSt18_Rb_tree_node_base
FN:821,_ZNSt8_Rb_treeI9PieceNameSt4pairIKS0_cESt10_Select1stIS3_ESt4lessIS0_ESaIS3_EE10_S_maximumEPSt18_Rb_tree_node_base
FNDA:0,_ZNSt8_Rb_treeI9PieceNameSt4pairIKS0_cESt10_Select1stIS3_ESt4lessIS0_ESaIS3_EE10_S_maximumEPSt18_Rb_tree_node_base
FN:821,_ZNSt8_Rb_treeINSt7__cxx1112basic_stringIcSt11char_traitsIcESaIcEEESt4pairIKS5_8PositionESt10_Select1stIS9_ESt4lessIS5_ESaIS9_EE10_S_maximumEPSt18_Rb_tree_node_base
FNDA:0,_ZNSt8_Rb_treeINSt7__cxx1112basic_stringIcSt11char_traitsIcESaIcEEESt4pairIKS5_8PositionESt10_Select1stIS9_ESt4lessIS5_ESaIS9_EE10_S_maximumEPSt18_Rb_tree_node_base
FN:899,_ZNSt8_Rb_treeI9PieceNameSt4pairIKS0_cESt10_Select1stIS3_ESt4lessIS0_ESaIS3_EE7_M_copyINS9_11_Alloc_nodeEEEPSt13_Rb_tree_nodeIS3_ERKS9_RT_
FNDA:0,_ZNSt8_Rb_treeI9PieceNameSt4pairIKS0_cESt10_Select1stIS3_ESt4lessIS0_ESaIS3_EE7_M_copyINS9_11_Alloc_nodeEEEPSt13_Rb_tree_nodeIS3_ERKS9_RT_
FN:899,_ZNSt8_Rb_treeINSt7__cxx1112basic_stringIcSt11char_traitsIcESaIcEEESt4pairIKS5_8PositionESt10_Select1stIS9_ESt4lessIS5_ESaIS9_EE7_M_copyINSF_11_Alloc_nodeEEEPSt13_Rb_tree_nodeIS9_ERKSF_RT_
FNDA:0,_ZNSt8_Rb_treeINSt7__cxx1112basic_stringIcSt11char_traitsIcESaIcEEESt4pairIKS5_8PositionESt10_Select1stIS9_ESt4lessIS5_ESaIS9_EE7_M_copyINSF_11_Alloc_nodeEEEPSt13_Rb_tree_nodeIS9_ERKSF_RT_
FN:909,_ZNSt8_Rb_treeINSt7__cxx1112basic_stringIcSt11char_traitsIcESaIcEEESt4pairIKS5_8PositionESt10_Select1stIS9_ESt4lessIS5_ESaIS9_EE7_M_copyERKSF_
FNDA:0,_ZNSt8_Rb_treeINSt7__cxx1112basic_stringIcSt11char_traitsIcESaIcEEESt4pairIKS5_8PositionESt10_Select1stIS9_ESt4lessIS5_ESaIS9_EE7_M_copyERKSF_
FN:909,_ZNSt8_Rb_treeI9PieceNameSt4pairIKS0_cESt10_Select1stIS3_ESt4lessIS0_ESaIS3_EE7_M_copyERKS9_
FNDA:0,_ZNSt8_Rb_treeI9PieceNameSt4pairIKS0_cESt10_Select1stIS3_ESt4lessIS0_ESaIS3_EE7_M_copyERKS9_
FN:946,_ZNSt8_Rb_treeI9PieceNameSt4pairIKS0_cESt10_Select1stIS3_ESt4lessIS0_ESaIS3_EEC2ERKS9_
FNDA:0,_ZNSt8_Rb_treeI9PieceNameSt4pairIKS0_cESt10_Select1stIS3_ESt4lessIS0_ESaIS3_EEC2ERKS9_
FN:946,_ZNSt8_Rb_treeINSt7__cxx1112basic_stringIcSt11char_traitsIcESaIcEEESt4pairIKS5_8PositionESt10_Select1stIS9_ESt4lessIS5_ESaIS9_EEC2ERKSF_
FNDA:0,_ZNSt8_Rb_treeINSt7__cxx1112basic_stringIcSt11char_traitsIcESaIcEEESt4pairIKS5_8PositionESt10_Select1stIS9_ESt4lessIS5_ESaIS9_EEC2ERKSF_
FN:994,_ZNSt8_Rb_treeINSt7__cxx1112basic_stringIcSt11char_traitsIcESaIcEEESt4pairIKS5_8PositionESt10_Select1stIS9_ESt4lessIS5_ESaIS9_EED2Ev
FNDA:0,_ZNSt8_Rb_treeINSt7__cxx1112basic_stringIcSt11char_traitsIcESaIcEEESt4pairIKS5_8PositionESt10_Select1stIS9_ESt4lessIS5_ESaIS9_EED2Ev
FN:994,_ZNSt8_Rb_treeI9PieceNameSt4pairIKS0_cESt10_Select1stIS3_ESt4lessIS0_ESaIS3_EED2Ev
FNDA:0,_ZNSt8_Rb_treeI9PieceNameSt4pairIKS0_cESt10_Select1stIS3_ESt4lessIS0_ESaIS3_EED2Ev
FN:1871,_ZNSt8_Rb_treeINSt7__cxx1112basic_stringIcSt11char_traitsIcESaIcEEESt4pairIKS5_8PositionESt10_Select1stIS9_ESt4lessIS5_ESaIS9_EE7_M_copyINSF_11_Alloc_nodeEEEPSt13_Rb_tree_nodeIS9_EPKSJ_PSt18_Rb_tree_node_baseRT_
FNDA:0,_ZNSt8_Rb_treeINSt7__cxx1112basic_stringIcSt11char_traitsIcESaIcEEESt4pairIKS5_8PositionESt10_Select1stIS9_ESt4lessIS5_ESaIS9_EE7_M_copyINSF_11_Alloc_nodeEEEPSt13_Rb_tree_nodeIS9_EPKSJ_PSt18_Rb_tree_node_baseRT_
FN:1871,_ZNSt8_Rb_treeI9PieceNameSt4pairIKS0_cESt10_Select1stIS3_ESt4lessIS0_ESaIS3_EE7_M_copyINS9_11_Alloc_nodeEEEPSt13_Rb_tree_nodeIS3_EPKSD_PSt18_Rb_tree_node_baseRT_
FNDA:0,_ZNSt8_Rb_treeI9PieceNameSt4pairIKS0_cESt10_Select1stIS3_ESt4lessIS0_ESaIS3_EE7_M_copyINS9_11_Alloc_nodeEEEPSt13_Rb_tree_nodeIS3_EPKSD_PSt18_Rb_tree_node_baseRT_
FN:1907,_ZNSt8_Rb_treeI9PieceNameSt4pairIKS0_cESt10_Select1stIS3_ESt4lessIS0_ESaIS3_EE8_M_eraseEPSt13_Rb_tree_nodeIS3_E
FNDA:0,_ZNSt8_Rb_treeI9PieceNameSt4pairIKS0_cESt10_Select1stIS3_ESt4lessIS0_ESaIS3_EE8_M_eraseEPSt13_Rb_tree_nodeIS3_E
FN:1907,_ZNSt8_Rb_treeINSt7__cxx1112basic_stringIcSt11char_traitsIcESaIcEEESt4pairIKS5_8PositionESt10_Select1stIS9_ESt4lessIS5_ESaIS9_EE8_M_eraseEPSt13_Rb_tree_nodeIS9_E
FNDA:0,_ZNSt8_Rb_treeINSt7__cxx1112basic_stringIcSt11char_traitsIcESaIcEEESt4pairIKS5_8PositionESt10_Select1stIS9_ESt4lessIS5_ESaIS9_EE8_M_eraseEPSt13_Rb_tree_nodeIS9_E
DA:112,0
DA:114,0
DA:115,0
DA:126,0
DA:128,0
DA:129,0
DA:152,0
DA:154,0
DA:152,0
DA:154,0
DA:173,0
DA:174,0
DA:175,0
DA:176,0
DA:177,0
DA:206,0
DA:208,0
DA:209,0
DA:210,0
DA:211,0
DA:212,0
DA:234,0
DA:235,0
DA:234,0
DA:235,0
DA:238,0
DA:239,0
DA:238,0
DA:239,0
DA:538,0
DA:539,0
DA:538,0
DA:539,0
DA:546,0
DA:548,0
DA:546,0
DA:548,0
DA:566,0
DA:567,0
DA:566,0
DA:567,0
DA:579,0
DA:580,0
DA:579,0
DA:580,0
DA:583,0
DA:584,0
DA:583,0
DA:584,0
DA:609,0
DA:613,0
DA:614,0
DA:618,0
DA:620,0
DA:621,0
DA:622,0
DA:624,0
DA:609,0
DA:613,0
DA:614,0
DA:624,0
DA:628,0
DA:630,0
DA:631,0
DA:632,0
DA:628,0
DA:630,0
DA:631,0
DA:632,0
DA:637,0
DA:642,0
DA:643,0
DA:645,0
DA:637,0
DA:642,0
DA:643,0
DA:645,0
DA:648,0
DA:650,0
DA:651,0
DA:652,0
DA:648,0
DA:650,0
DA:651,0
DA:652,0
DA:656,0
DA:658,0
DA:659,0
DA:660,0
DA:661,0
DA:662,0
DA:656,0
DA:658,0
DA:659,0
DA:660,0
DA:661,0
DA:662,0
DA:687,0
DA:689,0
DA:690,0
DA:687,0
DA:689,0
DA:690,0
DA:720,0
DA:721,0
DA:720,0
DA:721,0
DA:724,0
DA:725,0
DA:724,0
DA:725,0
DA:728,0
DA:729,0
DA:728,0
DA:729,0
DA:736,0
DA:737,0
DA:736,0
DA:737,0
DA:744,0
DA:745,0
DA:744,0
DA:745,0
DA:748,0
DA:751,0
DA:748,0
DA:751,0
DA:755,0
DA:756,0
DA:755,0
DA:756,0
DA:789,0
DA:790,0
DA:789,0
DA:790,0
DA:793,0
DA:794,0
DA:793,0
DA:794,0
DA:797,0
DA:798,0
DA:797,0
DA:798,0
DA:801,0
DA:802,0
DA:801,0
DA:802,0
DA:813,0
DA:814,0
DA:813,0
DA:814,0
DA:821,0
DA:822,0
DA:821,0
DA:822,0
DA:899,0
DA:901,0
DA:902,0
DA:903,0
DA:904,0
DA:905,0
DA:899,0
DA:901,0
DA:902,0
DA:903,0
DA:904,0
DA:905,0
DA:909,0
DA:911,0
DA:912,0
DA:909,0
DA:911,0
DA:912,0
DA:946,0
DA:947,0
DA:949,0
DA:950,0
DA:951,0
DA:946,0
DA:947,0
DA:949,0
DA:950,0
DA:951,0
DA:994,0
DA:995,0
DA:994,0
DA:995,0
DA:1871,0
DA:1875,0
DA:1876,0
DA:1880,0
DA:1881,0
DA:1882,0
DA:1883,0
DA:1885,0
DA:1887,0
DA:1888,0
DA:1889,0
DA:1890,0
DA:1891,0
DA:1892,0
DA:1893,0
DA:1896,0
DA:1898,0
DA:1899,0
DA:1901,0
DA:1871,0
DA:1875,0
DA:1876,0
DA:1880,0
DA:1881,0
DA:1882,0
DA:1883,0
DA:1885,0
DA:1887,0
DA:1888,0
DA:1889,0
DA:1890,0
DA:1891,0
DA:1892,0
DA:1893,0
DA:1896,0
DA:1898,0
DA:1899,0
DA:1901,0
DA:1907,0
DA:1911,0
DA:1913,0
DA:1914,0
DA:1915,0
DA:1916,0
DA:1918,0
DA:1907,0
DA:1911,0
DA:1913,0
DA:1914,0
DA:1915,0
DA:1916,0
DA:1918,0
end_of_record
SF:/usr/include/c++/9/bits/allocator.h
FN:138,_ZNSaI4MoveEC2Ev
FNDA:0,_ZNSaI4MoveEC2Ev
FN:138,_ZNSaI8PositionEC2Ev
FNDA:0,_ZNSaI8PositionEC2Ev
FN:141,_ZNSaISt13_Rb_tree_nodeISt4pairIK9PieceNamecEEEC2ERKS5_
FNDA:0,_ZNSaISt13_Rb_tree_nodeISt4pairIK9PieceNamecEEEC2ERKS5_
FN:141,_ZNSaISt13_Rb_tree_nodeISt4pairIKNSt7__cxx1112basic_stringIcSt11char_traitsIcESaIcEEE8PositionEEEC2ERKSB_
FNDA:0,_ZNSaISt13_Rb_tree_nodeISt4pairIKNSt7__cxx1112basic_stringIcSt11char_traitsIcESaIcEEE8PositionEEEC2ERKSB_
FN:141,_ZNSaI8PositionEC2ERKS0_
FNDA:0,_ZNSaI8PositionEC2ERKS0_
FN:141,_ZNSaI4MoveEC2ERKS0_
FNDA:0,_ZNSaI4MoveEC2ERKS0_
FN:153,_ZNSaISt13_Rb_tree_nodeISt4pairIKNSt7__cxx1112basic_stringIcSt11char_traitsIcESaIcEEE8PositionEEED2Ev
FNDA:0,_ZNSaISt13_Rb_tree_nodeISt4pairIKNSt7__cxx1112basic_stringIcSt11char_traitsIcESaIcEEE8PositionEEED2Ev
FN:153,_ZNSaISt13_Rb_tree_nodeISt4pairIK9PieceNamecEEED2Ev
FNDA:0,_ZNSaISt13_Rb_tree_nodeISt4pairIK9PieceNamecEEED2Ev
FN:153,_ZNSaI4MoveED2Ev
FNDA:0,_ZNSaI4MoveED2Ev
FN:153,_ZNSaI8PositionED2Ev
FNDA:0,_ZNSaI8PositionED2Ev
FN:160,_ZStneRKSaI4MoveES2_
FNDA:0,_ZStneRKSaI4MoveES2_
FN:160,_ZStneRKSaI8PositionES2_
FNDA:0,_ZStneRKSaI8PositionES2_
DA:138,0
DA:138,0
DA:141,0
DA:142,0
DA:141,0
DA:142,0
DA:141,0
DA:142,0
DA:141,0
DA:142,0
DA:153,0
DA:153,0
DA:153,0
DA:153,0
DA:160,0
DA:161,0
DA:160,0
DA:161,0
end_of_record
SF:/usr/include/c++/9/bits/stl_vector.h
FN:94,_ZNSt12_Vector_baseI8PositionSaIS0_EE17_Vector_impl_dataC2Ev
FNDA:0,_ZNSt12_Vector_baseI8PositionSaIS0_EE17_Vector_impl_dataC2Ev
FN:94,_ZNSt12_Vector_baseI4MoveSaIS0_EE17_Vector_impl_dataC2Ev
FNDA:0,_ZNSt12_Vector_baseI4MoveSaIS0_EE17_Vector_impl_dataC2Ev
FN:99,_ZNSt12_Vector_baseI8PositionSaIS0_EE17_Vector_impl_dataC2EOS3_
FNDA:0,_ZNSt12_Vector_baseI8PositionSaIS0_EE17_Vector_impl_dataC2EOS3_
FN:99,_ZNSt12_Vector_baseI4MoveSaIS0_EE17_Vector_impl_dataC2EOS3_
FNDA:0,_ZNSt12_Vector_baseI4MoveSaIS0_EE17_Vector_impl_dataC2EOS3_
FN:106,_ZNSt12_Vector_baseI4MoveSaIS0_EE17_Vector_impl_data12_M_copy_dataERKS3_
FNDA:0,_ZNSt12_Vector_baseI4MoveSaIS0_EE17_Vector_impl_data12_M_copy_dataERKS3_
FN:106,_ZNSt12_Vector_baseI8PositionSaIS0_EE17_Vector_impl_data12_M_copy_dataERKS3_
FNDA:0,_ZNSt12_Vector_baseI8PositionSaIS0_EE17_Vector_impl_data12_M_copy_dataERKS3_
FN:114,_ZNSt12_Vector_baseI8PositionSaIS0_EE17_Vector_impl_data12_M_swap_dataERS3_
FNDA:0,_ZNSt12_Vector_baseI8PositionSaIS0_EE17_Vector_impl_data12_M_swap_dataERS3_
FN:114,_ZNSt12_Vector_baseI4MoveSaIS0_EE17_Vector_impl_data12_M_swap_dataERS3_
FNDA:0,_ZNSt12_Vector_baseI4MoveSaIS0_EE17_Vector_impl_data12_M_swap_dataERS3_
FN:128,_ZNSt12_Vector_baseI8PositionSaIS0_EE12_Vector_implC2Ev
FNDA:0,_ZNSt12_Vector_baseI8PositionSaIS0_EE12_Vector_implC2Ev
FN:128,_ZNSt12_Vector_baseI4MoveSaIS0_EE12_Vector_implC2Ev
FNDA:0,_ZNSt12_Vector_baseI4MoveSaIS0_EE12_Vector_implC2Ev
FN:133,_ZNSt12_Vector_baseI4MoveSaIS0_EE12_Vector_implC2ERKS1_
FNDA:0,_ZNSt12_Vector_baseI4MoveSaIS0_EE12_Vector_implC2ERKS1_
FN:133,_ZNSt12_Vector_baseI8PositionSaIS0_EE12_Vector_implC2ERKS1_
FNDA:0,_ZNSt12_Vector_baseI8PositionSaIS0_EE12_Vector_implC2ERKS1_
FN:140,_ZNSt12_Vector_baseI4MoveSaIS0_EE12_Vector_implC2EOS3_
FNDA:0,_ZNSt12_Vector_baseI4MoveSaIS0_EE12_Vector_implC2EOS3_
FN:140,_ZNSt12_Vector_baseI8PositionSaIS0_EE12_Vector_implC2EOS3_
FNDA:0,_ZNSt12_Vector_baseI8PositionSaIS0_EE12_Vector_implC2EOS3_
FN:273,_ZNSt12_Vector_baseI4MoveSaIS0_EE19_M_get_Tp_allocatorEv
FNDA:0,_ZNSt12_Vector_baseI4MoveSaIS0_EE19_M_get_Tp_allocatorEv
FN:273,_ZNSt12_Vector_baseI8PositionSaIS0_EE19_M_get_Tp_allocatorEv
FNDA:0,_ZNSt12_Vector_baseI8PositionSaIS0_EE19_M_get_Tp_allocatorEv
FN:277,_ZNKSt12_Vector_baseI8PositionSaIS0_EE19_M_get_Tp_allocatorEv
FNDA:0,_ZNKSt12_Vector_baseI8PositionSaIS0_EE19_M_get_Tp_allocatorEv
FN:277,_ZNKSt12_Vector_baseI4MoveSaIS0_EE19_M_get_Tp_allocatorEv
FNDA:0,_ZNKSt12_Vector_baseI4MoveSaIS0_EE19_M_get_Tp_allocatorEv
FN:281,_ZNKSt12_Vector_baseI4MoveSaIS0_EE13get_allocatorEv
FNDA:0,_ZNKSt12_Vector_baseI4MoveSaIS0_EE13get_allocatorEv
FN:281,_ZNKSt12_Vector_baseI8PositionSaIS0_EE13get_allocatorEv
FNDA:0,_ZNKSt12_Vector_baseI8PositionSaIS0_EE13get_allocatorEv
FN:285,_ZNSt12_Vector_baseI4MoveSaIS0_EEC2Ev
FNDA:0,_ZNSt12_Vector_baseI4MoveSaIS0_EEC2Ev
FN:285,_ZNSt12_Vector_baseI8PositionSaIS0_EEC2Ev
FNDA:0,_ZNSt12_Vector_baseI8PositionSaIS0_EEC2Ev
FN:290,_ZNSt12_Vector_baseI4MoveSaIS0_EEC2ERKS1_
FNDA:0,_ZNSt12_Vector_baseI4MoveSaIS0_EEC2ERKS1_
FN:290,_ZNSt12_Vector_baseI8PositionSaIS0_EEC2ERKS1_
FNDA:0,_ZNSt12_Vector_baseI8PositionSaIS0_EEC2ERKS1_
FN:300,_ZNSt12_Vector_baseI8PositionSaIS0_EEC2EmRKS1_
FNDA:0,_ZNSt12_Vector_baseI8PositionSaIS0_EEC2EmRKS1_
FN:300,_ZNSt12_Vector_baseI4MoveSaIS0_EEC2EmRKS1_
FNDA:0,_ZNSt12_Vector_baseI4MoveSaIS0_EEC2EmRKS1_
FN:305,_ZNSt12_Vector_baseI4MoveSaIS0_EEC2EOS2_
FNDA:0,_ZNSt12_Vector_baseI4MoveSaIS0_EEC2EOS2_
FN:305,_ZNSt12_Vector_baseI8PositionSaIS0_EEC2EOS2_
FNDA:0,_ZNSt12_Vector_baseI8PositionSaIS0_EEC2EOS2_
FN:330,_ZNSt12_Vector_baseI8PositionSaIS0_EED2Ev
FNDA:0,_ZNSt12_Vector_baseI8PositionSaIS0_EED2Ev
FN:330,_ZNSt12_Vector_baseI4MoveSaIS0_EED2Ev
FNDA:0,_ZNSt12_Vector_baseI4MoveSaIS0_EED2Ev
FN:340,_ZNSt12_Vector_baseI8PositionSaIS0_EE11_M_allocateEm
FNDA:0,_ZNSt12_Vector_baseI8PositionSaIS0_EE11_M_allocateEm
FN:340,_ZNSt12_Vector_baseI4MoveSaIS0_EE11_M_allocateEm
FNDA:0,_ZNSt12_Vector_baseI4MoveSaIS0_EE11_M_allocateEm
FN:347,_ZNSt12_Vector_baseI8PositionSaIS0_EE13_M_deallocateEPS0_m
FNDA:0,_ZNSt12_Vector_baseI8PositionSaIS0_EE13_M_deallocateEPS0_m
FN:347,_ZNSt12_Vector_baseI4MoveSaIS0_EE13_M_deallocateEPS0_m
FNDA:0,_ZNSt12_Vector_baseI4MoveSaIS0_EE13_M_deallocateEPS0_m
FN:356,_ZNSt12_Vector_baseI4MoveSaIS0_EE17_M_create_storageEm
FNDA:0,_ZNSt12_Vector_baseI4MoveSaIS0_EE17_M_create_storageEm
FN:356,_ZNSt12_Vector_baseI8PositionSaIS0_EE17_M_create_storageEm
FNDA:0,_ZNSt12_Vector_baseI8PositionSaIS0_EE17_M_create_storageEm
FN:428,_ZNSt6vectorI4MoveSaIS0_EE19_S_nothrow_relocateESt17integral_constantIbLb1EE
FNDA:0,_ZNSt6vectorI4MoveSaIS0_EE19_S_nothrow_relocateESt17integral_constantIbLb1EE
FN:441,_ZNSt6vectorI4MoveSaIS0_EE15_S_use_relocateEv
FNDA:0,_ZNSt6vectorI4MoveSaIS0_EE15_S_use_relocateEv
FN:450,_ZNSt6vectorI4MoveSaIS0_EE14_S_do_relocateEPS0_S3_S3_RS1_St17integral_constantIbLb1EE
FNDA:0,_ZNSt6vectorI4MoveSaIS0_EE14_S_do_relocateEPS0_S3_S3_RS1_St17integral_constantIbLb1EE
FN:462,_ZNSt6vectorI4MoveSaIS0_EE11_S_relocateEPS0_S3_S3_RS1_
FNDA:0,_ZNSt6vectorI4MoveSaIS0_EE11_S_relocateEPS0_S3_S3_RS1_
FN:484,_ZNSt6vectorI4MoveSaIS0_EEC2Ev
FNDA:0,_ZNSt6vectorI4MoveSaIS0_EEC2Ev
FN:484,_ZNSt6vectorI8PositionSaIS0_EEC2Ev
FNDA:0,_ZNSt6vectorI8PositionSaIS0_EEC2Ev
FN:494,_ZNSt6vectorI8PositionSaIS0_EEC2ERKS1_
FNDA:0,_ZNSt6vectorI8PositionSaIS0_EEC2ERKS1_
FN:494,_ZNSt6vectorI4MoveSaIS0_EEC2ERKS1_
FNDA:0,_ZNSt6vectorI4MoveSaIS0_EEC2ERKS1_
FN:550,_ZNSt6vectorI8PositionSaIS0_EEC2ERKS2_
FNDA:0,_ZNSt6vectorI8PositionSaIS0_EEC2ERKS2_
FN:550,_ZNSt6vectorI4MoveSaIS0_EEC2ERKS2_
FNDA:0,_ZNSt6vectorI4MoveSaIS0_EEC2ERKS2_
FN:569,_ZNSt6vectorI8PositionSaIS0_EEC2EOS2_
FNDA:0,_ZNSt6vectorI8PositionSaIS0_EEC2EOS2_
FN:569,_ZNSt6vectorI4MoveSaIS0_EEC2EOS2_
FNDA:0,_ZNSt6vectorI4MoveSaIS0_EEC2EOS2_
FN:675,_ZNSt6vectorI8PositionSaIS0_EED2Ev
FNDA:0,_ZNSt6vectorI8PositionSaIS0_EED2Ev
FN:675,_ZNSt6vectorI4MoveSaIS0_EED2Ev
FNDA:0,_ZNSt6vectorI4MoveSaIS0_EED2Ev
FN:706,_ZNSt6vectorI8PositionSaIS0_EEaSEOS2_
FNDA:0,_ZNSt6vectorI8PositionSaIS0_EEaSEOS2_
FN:706,_ZNSt6vectorI4MoveSaIS0_EEaSEOS2_
FNDA:0,_ZNSt6vectorI4MoveSaIS0_EEaSEOS2_
FN:808,_ZNSt6vectorI8PositionSaIS0_EE5beginEv
FNDA:0,_ZNSt6vectorI8PositionSaIS0_EE5beginEv
FN:808,_ZNSt6vectorI4MoveSaIS0_EE5beginEv
FNDA:0,_ZNSt6vectorI4MoveSaIS0_EE5beginEv
FN:817,_ZNKSt6vectorI4MoveSaIS0_EE5beginEv
FNDA:0,_ZNKSt6vectorI4MoveSaIS0_EE5beginEv
FN:817,_ZNKSt6vectorI8PositionSaIS0_EE5beginEv
FNDA:0,_ZNKSt6vectorI8PositionSaIS0_EE5beginEv
FN:826,_ZNSt6vectorI4MoveSaIS0_EE3endEv
FNDA:0,_ZNSt6vectorI4MoveSaIS0_EE3endEv
FN:826,_ZNSt6vectorI8PositionSaIS0_EE3endEv
FNDA:0,_ZNSt6vectorI8PositionSaIS0_EE3endEv
FN:835,_ZNKSt6vectorI4MoveSaIS0_EE3endEv
FNDA:0,_ZNKSt6vectorI4MoveSaIS0_EE3endEv
FN:835,_ZNKSt6vectorI8PositionSaIS0_EE3endEv
FNDA:0,_ZNKSt6vectorI8PositionSaIS0_EE3endEv
FN:915,_ZNKSt6vectorI8PositionSaIS0_EE4sizeEv
FNDA:0,_ZNKSt6vectorI8PositionSaIS0_EE4sizeEv
FN:915,_ZNKSt6vectorI4MoveSaIS0_EE4sizeEv
FNDA:0,_ZNKSt6vectorI4MoveSaIS0_EE4sizeEv
FN:920,_ZNKSt6vectorI4MoveSaIS0_EE8max_sizeEv
FNDA:0,_ZNKSt6vectorI4MoveSaIS0_EE8max_sizeEv
FN:995,_ZNKSt6vectorI4MoveSaIS0_EE8capacityEv
FNDA:0,_ZNKSt6vectorI4MoveSaIS0_EE8capacityEv
FN:995,_ZNKSt6vectorI8PositionSaIS0_EE8capacityEv
FNDA:0,_ZNKSt6vectorI8PositionSaIS0_EE8capacityEv
FN:1184,_ZNSt6vectorI4MoveSaIS0_EE9push_backERKS0_
FNDA:0,_ZNSt6vectorI4MoveSaIS0_EE9push_backERKS0_
FN:1200,_ZNSt6vectorI4MoveSaIS0_EE9push_backEOS0_
FNDA:7136,_ZNSt6vectorI4MoveSaIS0_EE9push_backEOS0_
FN:1495,_ZNSt6vectorI8PositionSaIS0_EE5clearEv
FNDA:0,_ZNSt6vectorI8PositionSaIS0_EE5clearEv
FN:1495,_ZNSt6vectorI4MoveSaIS0_EE5clearEv
FNDA:0,_ZNSt6vectorI4MoveSaIS0_EE5clearEv
FN:1505,_ZNSt6vectorI8PositionSaIS0_EE20_M_allocate_and_copyIN9__gnu_cxx17__normal_iteratorIPKS0_S2_EEEEPS0_mT_SA_
FNDA:0,_ZNSt6vectorI8PositionSaIS0_EE20_M_allocate_and_copyIN9__gnu_cxx17__normal_iteratorIPKS0_S2_EEEEPS0_mT_SA_
FN:1505,_ZNSt6vectorI4MoveSaIS0_EE20_M_allocate_and_copyIN9__gnu_cxx17__normal_iteratorIPKS0_S2_EEEEPS0_mT_SA_
FNDA:0,_ZNSt6vectorI4MoveSaIS0_EE20_M_allocate_and_copyIN9__gnu_cxx17__normal_iteratorIPKS0_S2_EEEEPS0_mT_SA_
FN:1753,_ZNKSt6vectorI4MoveSaIS0_EE12_M_check_lenEmPKc
FNDA:0,_ZNKSt6vectorI4MoveSaIS0_EE12_M_check_lenEmPKc
FN:1773,_ZNSt6vectorI4MoveSaIS0_EE11_S_max_sizeERKS1_
FNDA:0,_ZNSt6vectorI4MoveSaIS0_EE11_S_max_sizeERKS1_
FN:1789,_ZNSt6vectorI8PositionSaIS0_EE15_M_erase_at_endEPS0_
FNDA:0,_ZNSt6vectorI8PositionSaIS0_EE15_M_erase_at_endEPS0_
FN:1789,_ZNSt6vectorI4MoveSaIS0_EE15_M_erase_at_endEPS0_
FNDA:0,_ZNSt6vectorI4MoveSaIS0_EE15_M_erase_at_endEPS0_
FN:1812,_ZNSt6vectorI4MoveSaIS0_EE14_M_move_assignEOS2_St17integral_constantIbLb1EE
FNDA:0,_ZNSt6vectorI4MoveSaIS0_EE14_M_move_assignEOS2_St17integral_constantIbLb1EE
FN:1812,_ZNSt6vectorI8PositionSaIS0_EE14_M_move_assignEOS2_St17integral_constantIbLb1EE
FNDA:0,_ZNSt6vectorI8PositionSaIS0_EE14_M_move_assignEOS2_St17integral_constantIbLb1EE
DA:94,0
DA:95,0
DA:96,0
DA:94,0
DA:95,0
DA:96,0
DA:99,0
DA:100,0
DA:101,0
DA:102,0
DA:99,0
DA:100,0
DA:101,0
DA:102,0
DA:106,0
DA:108,0
DA:109,0
DA:110,0
DA:111,0
DA:106,0
DA:108,0
DA:109,0
DA:110,0
DA:111,0
DA:114,0
DA:118,0
DA:119,0
DA:120,0
DA:121,0
DA:122,0
DA:114,0
DA:118,0
DA:119,0
DA:120,0
DA:121,0
DA:122,0
DA:128,0
DA:130,0
DA:131,0
DA:128,0
DA:130,0
DA:131,0
DA:133,0
DA:134,0
DA:135,0
DA:133,0
DA:134,0
DA:135,0
DA:140,0
DA:141,0
DA:142,0
DA:140,0
DA:141,0
DA:142,0
DA:273,0
DA:274,0
DA:273,0
DA:274,0
DA:277,0
DA:278,0
DA:277,0
DA:278,0
DA:281,0
DA:282,0
DA:281,0
DA:282,0
DA:285,0
DA:285,0
DA:290,0
DA:291,0
DA:290,0
DA:291,0
DA:300,0
DA:301,0
DA:302,0
DA:300,0
DA:301,0
DA:302,0
DA:305,0
DA:305,0
DA:330,0
DA:332,0
DA:333,0
DA:334,0
DA:330,0
DA:332,0
DA:333,0
DA:334,0
DA:340,0
DA:343,0
DA:340,0
DA:343,0
DA:347,0
DA:350,0
DA:351,0
DA:352,0
DA:347,0
DA:350,0
DA:351,0
DA:352,0
DA:356,0
DA:358,0
DA:359,0
DA:360,0
DA:361,0
DA:356,0
DA:358,0
DA:359,0
DA:360,0
DA:361,0
DA:428,0
DA:433,0
DA:441,0
DA:446,0
DA:450,0
DA:453,0
DA:462,0
DA:466,0
DA:484,0
DA:484,0
DA:494,0
DA:495,0
DA:494,0
DA:495,0
DA:550,0
DA:552,0
DA:554,0
DA:555,0
DA:557,0
DA:558,0
DA:550,0
DA:552,0
DA:554,0
DA:555,0
DA:557,0
DA:558,0
DA:569,0
DA:569,0
DA:675,0
DA:677,0
DA:678,0
DA:680,0
DA:675,0
DA:677,0
DA:678,0
DA:680,0
DA:706,0
DA:708,0
DA:711,0
DA:712,0
DA:706,0
DA:708,0
DA:711,0
DA:712,0
DA:808,0
DA:809,0
DA:808,0
DA:809,0
DA:817,0
DA:818,0
DA:817,0
DA:818,0
DA:826,0
DA:827,0
DA:826,0
DA:827,0
DA:835,0
DA:836,0
DA:835,0
DA:836,0
DA:915,0
DA:916,0
DA:915,0
DA:916,0
DA:920,0
DA:921,0
DA:995,0
DA:996,0
DA:997,0
DA:995,0
DA:996,0
DA:997,0
DA:1184,0
DA:1186,0
DA:1189,0
DA:1191,0
DA:1195,0
DA:1196,0
DA:1200,7136
DA:1201,7136
DA:1495,0
DA:1496,0
DA:1495,0
DA:1496,0
DA:1505,0
DA:1508,0
DA:1511,0
DA:1512,0
DA:1513,0
DA:1515,0
DA:1517,0
DA:1518,0
DA:1505,0
DA:1508,0
DA:1511,0
DA:1512,0
DA:1513,0
DA:1515,0
DA:1517,0
DA:1518,0
DA:1753,0
DA:1755,0
DA:1756,0
DA:1758,0
DA:1759,0
DA:1773,0
DA:1778,0
DA:1780,0
DA:1781,0
DA:1789,0
DA:1791,0
DA:1793,0
DA:1794,0
DA:1795,0
DA:1798,0
DA:1789,0
DA:1791,0
DA:1793,0
DA:1794,0
DA:1795,0
DA:1798,0
DA:1812,0
DA:1814,0
DA:1815,0
DA:1816,0
DA:1817,0
DA:1818,0
DA:1812,0
DA:1814,0
DA:1815,0
DA:1816,0
DA:1817,0
DA:1818,0
end_of_record
SF:/home/napiad/studia/eiti/mgr/sem1/zpr/checkers-webapp/checkers/src/Move.h
FN:22,_ZN4MoveC2Ev
FNDA:0,_ZN4MoveC2Ev
DA:22,0
end_of_record
SF:/usr/include/x86_64-linux-gnu/c++/9/bits/gthr-default.h
FN:248,_ZL18__gthread_active_pv
FNDA:0,_ZL18__gthread_active_pv
DA:248,0
DA:252,0
end_of_record
SF:/usr/include/c++/9/bits/alloc_traits.h
FN:443,_ZNSt16allocator_traitsISaISt13_Rb_tree_nodeISt4pairIKNSt7__cxx1112basic_stringIcSt11char_traitsIcESaIcEEE8PositionEEEE8allocateERSC_m
FNDA:0,_ZNSt16allocator_traitsISaISt13_Rb_tree_nodeISt4pairIKNSt7__cxx1112basic_stringIcSt11char_traitsIcESaIcEEE8PositionEEEE8allocateERSC_m
FN:443,_ZNSt16allocator_traitsISaISt13_Rb_tree_nodeISt4pairIK9PieceNamecEEEE8allocateERS6_m
FNDA:0,_ZNSt16allocator_traitsISaISt13_Rb_tree_nodeISt4pairIK9PieceNamecEEEE8allocateERS6_m
FN:443,_ZNSt16allocator_traitsISaI8PositionEE8allocateERS1_m
FNDA:0,_ZNSt16allocator_traitsISaI8PositionEE8allocateERS1_m
FN:443,_ZNSt16allocator_traitsISaI4MoveEE8allocateERS1_m
FNDA:0,_ZNSt16allocator_traitsISaI4MoveEE8allocateERS1_m
FN:469,_ZNSt16allocator_traitsISaI8PositionEE10deallocateERS1_PS0_m
FNDA:0,_ZNSt16allocator_traitsISaI8PositionEE10deallocateERS1_PS0_m
FN:469,_ZNSt16allocator_traitsISaI4MoveEE10deallocateERS1_PS0_m
FNDA:0,_ZNSt16allocator_traitsISaI4MoveEE10deallocateERS1_PS0_m
FN:469,_ZNSt16allocator_traitsISaISt13_Rb_tree_nodeISt4pairIK9PieceNamecEEEE10deallocateERS6_PS5_m
FNDA:0,_ZNSt16allocator_traitsISaISt13_Rb_tree_nodeISt4pairIK9PieceNamecEEEE10deallocateERS6_PS5_m
FN:469,_ZNSt16allocator_traitsISaISt13_Rb_tree_nodeISt4pairIKNSt7__cxx1112basic_stringIcSt11char_traitsIcESaIcEEE8PositionEEEE10deallocateERSC_PSB_m
FNDA:0,_ZNSt16allocator_traitsISaISt13_Rb_tree_nodeISt4pairIKNSt7__cxx1112basic_stringIcSt11char_traitsIcESaIcEEE8PositionEEEE10deallocateERSC_PSB_m
FN:482,_ZNSt16allocator_traitsISaI4MoveEE9constructIS0_JRKS0_EEEvRS1_PT_DpOT0_
FNDA:0,_ZNSt16allocator_traitsISaI4MoveEE9constructIS0_JRKS0_EEEvRS1_PT_DpOT0_
FN:482,_ZNSt16allocator_traitsISaISt13_Rb_tree_nodeISt4pairIK9PieceNamecEEEE9constructIS4_JRKS4_EEEvRS6_PT_DpOT0_
FNDA:0,_ZNSt16allocator_traitsISaISt13_Rb_tree_nodeISt4pairIK9PieceNamecEEEE9constructIS4_JRKS4_EEEvRS6_PT_DpOT0_
FN:482,_ZNSt16allocator_traitsISaISt13_Rb_tree_nodeISt4pairIKNSt7__cxx1112basic_stringIcSt11char_traitsIcESaIcEEE8PositionEEEE9constructISA_JRKSA_EEEvRSC_PT_DpOT0_
FNDA:0,_ZNSt16allocator_traitsISaISt13_Rb_tree_nodeISt4pairIKNSt7__cxx1112basic_stringIcSt11char_traitsIcESaIcEEE8PositionEEEE9constructISA_JRKSA_EEEvRSC_PT_DpOT0_
FN:482,_ZNSt16allocator_traitsISaI4MoveEE9constructIS0_JS0_EEEvRS1_PT_DpOT0_
FNDA:0,_ZNSt16allocator_traitsISaI4MoveEE9constructIS0_JS0_EEEvRS1_PT_DpOT0_
FN:495,_ZNSt16allocator_traitsISaISt13_Rb_tree_nodeISt4pairIKNSt7__cxx1112basic_stringIcSt11char_traitsIcESaIcEEE8PositionEEEE7destroyISA_EEvRSC_PT_
FNDA:0,_ZNSt16allocator_traitsISaISt13_Rb_tree_nodeISt4pairIKNSt7__cxx1112basic_stringIcSt11char_traitsIcESaIcEEE8PositionEEEE7destroyISA_EEvRSC_PT_
FN:495,_ZNSt16allocator_traitsISaISt13_Rb_tree_nodeISt4pairIK9PieceNamecEEEE7destroyIS4_EEvRS6_PT_
FNDA:0,_ZNSt16allocator_traitsISaISt13_Rb_tree_nodeISt4pairIK9PieceNamecEEEE7destroyIS4_EEvRS6_PT_
FN:495,_ZNSt16allocator_traitsISaI4MoveEE7destroyIS0_EEvRS1_PT_
FNDA:0,_ZNSt16allocator_traitsISaI4MoveEE7destroyIS0_EEvRS1_PT_
FN:505,_ZNSt16allocator_traitsISaI4MoveEE8max_sizeERKS1_
FNDA:0,_ZNSt16allocator_traitsISaI4MoveEE8max_sizeERKS1_
FN:514,_ZNSt16allocator_traitsISaISt13_Rb_tree_nodeISt4pairIKNSt7__cxx1112basic_stringIcSt11char_traitsIcESaIcEEE8PositionEEEE37select_on_container_copy_constructionERKSC_
FNDA:0,_ZNSt16allocator_traitsISaISt13_Rb_tree_nodeISt4pairIKNSt7__cxx1112basic_stringIcSt11char_traitsIcESaIcEEE8PositionEEEE37select_on_container_copy_constructionERKSC_
FN:514,_ZNSt16allocator_traitsISaI8PositionEE37select_on_container_copy_constructionERKS1_
FNDA:0,_ZNSt16allocator_traitsISaI8PositionEE37select_on_container_copy_constructionERKS1_
FN:514,_ZNSt16allocator_traitsISaI4MoveEE37select_on_container_copy_constructionERKS1_
FNDA:0,_ZNSt16allocator_traitsISaI4MoveEE37select_on_container_copy_constructionERKS1_
FN:514,_ZNSt16allocator_traitsISaIcEE37select_on_container_copy_constructionERKS0_
FNDA:0,_ZNSt16allocator_traitsISaIcEE37select_on_container_copy_constructionERKS0_
FN:514,_ZNSt16allocator_traitsISaISt13_Rb_tree_nodeISt4pairIK9PieceNamecEEEE37select_on_container_copy_constructionERKS6_
FNDA:0,_ZNSt16allocator_traitsISaISt13_Rb_tree_nodeISt4pairIK9PieceNamecEEEE37select_on_container_copy_constructionERKS6_
FN:526,_ZSt18__do_alloc_on_copyISaI8PositionEEvRT_RKS2_St17integral_constantIbLb0EE
FNDA:0,_ZSt18__do_alloc_on_copyISaI8PositionEEvRT_RKS2_St17integral_constantIbLb0EE
FN:526,_ZSt18__do_alloc_on_copyISaI4MoveEEvRT_RKS2_St17integral_constantIbLb0EE
FNDA:0,_ZSt18__do_alloc_on_copyISaI4MoveEEvRT_RKS2_St17integral_constantIbLb0EE
FN:530,_ZSt15__alloc_on_copyISaI4MoveEEvRT_RKS2_
FNDA:0,_ZSt15__alloc_on_copyISaI4MoveEEvRT_RKS2_
FN:530,_ZSt15__alloc_on_copyISaI8PositionEEvRT_RKS2_
FNDA:0,_ZSt15__alloc_on_copyISaI8PositionEEvRT_RKS2_
FN:545,_ZSt18__do_alloc_on_moveISaI8PositionEEvRT_S3_St17integral_constantIbLb1EE
FNDA:0,_ZSt18__do_alloc_on_moveISaI8PositionEEvRT_S3_St17integral_constantIbLb1EE
FN:545,_ZSt18__do_alloc_on_moveISaI4MoveEEvRT_S3_St17integral_constantIbLb1EE
FNDA:0,_ZSt18__do_alloc_on_moveISaI4MoveEEvRT_S3_St17integral_constantIbLb1EE
FN:553,_ZSt15__alloc_on_moveISaI8PositionEEvRT_S3_
FNDA:0,_ZSt15__alloc_on_moveISaI8PositionEEvRT_S3_
FN:553,_ZSt15__alloc_on_moveISaI4MoveEEvRT_S3_
FNDA:0,_ZSt15__alloc_on_moveISaI4MoveEEvRT_S3_
DA:443,0
DA:444,0
DA:443,0
DA:444,0
DA:443,0
DA:444,0
DA:443,0
DA:444,0
DA:469,0
DA:470,0
DA:469,0
DA:470,0
DA:469,0
DA:470,0
DA:469,0
DA:470,0
DA:482,0
DA:484,0
DA:482,0
DA:484,0
DA:482,0
DA:484,0
DA:482,0
DA:484,0
DA:495,0
DA:497,0
DA:495,0
DA:497,0
DA:495,0
DA:497,0
DA:505,0
DA:506,0
DA:514,0
DA:515,0
DA:514,0
DA:515,0
DA:514,0
DA:515,0
DA:514,0
DA:515,0
DA:514,0
DA:515,0
DA:526,0
DA:527,0
DA:526,0
DA:527,0
DA:530,0
DA:534,0
DA:535,0
DA:530,0
DA:534,0
DA:535,0
DA:545,0
DA:546,0
DA:545,0
DA:546,0
DA:553,0
DA:557,0
DA:558,0
DA:553,0
DA:557,0
DA:558,0
end_of_record
SF:/home/napiad/studia/eiti/mgr/sem1/zpr/checkers-webapp/checkers/src/Board.h
end_of_record
SF:/usr/include/c++/9/new
FN:173,_ZnwmPv
FNDA:0,_ZnwmPv
FN:179,_ZdlPvS_
FNDA:0,_ZdlPvS_
DA:173,0
DA:174,0
DA:179,0
end_of_record
SF:/home/napiad/studia/eiti/mgr/sem1/zpr/checkers-webapp/checkers/src/King.cc
FN:11,_ZN4KingC2E8PositionbbR5Board
FNDA:372,_ZN4KingC2E8PositionbbR5Board
FN:18,_ZNK4King19cloneImplementationEv
FNDA:14030,_ZNK4King19cloneImplementationEv
FN:24,_ZNK4King12captureMovesERSt6vectorI4MoveSaIS1_EE5BoardS1_
FNDA:1392,_ZNK4King12captureMovesERSt6vectorI4MoveSaIS1_EE5BoardS1_
FN:70,_ZNK4King15getCaptureMovesER5Board
FNDA:1041,_ZNK4King15getCaptureMovesER5Board
FN:79,_ZNK4King18getNonCaptureMovesER5Board
FNDA:831,_ZNK4King18getNonCaptureMovesER5Board
FN:99,_ZNK4King5printERSo
FNDA:0,_ZNK4King5printERSo
DA:11,372
DA:12,372
DA:13,68
DA:15,304
DA:16,372
DA:18,14030
DA:19,14030
DA:24,1392
DA:25,1392
DA:26,1392
DA:28,2784
DA:29,2784
DA:31,1392
DA:33,1392
DA:34,6960
DA:35,5568
DA:36,5568
DA:37,5568
DA:38,17490
DA:39,11934
DA:40,11934
DA:41,11922
DA:42,342
DA:43,684
DA:45,342
DA:46,29
DA:48,342
DA:49,342
DA:50,342
DA:51,342
DA:52,342
DA:54,11922
DA:55,266
DA:57,266
DA:58,266
DA:61,11922
DA:62,11922
DA:65,1392
DA:66,336
DA:68,1392
DA:70,1041
DA:71,1041
DA:73,2082
DA:74,1041
DA:76,2082
DA:79,831
DA:81,831
DA:83,831
DA:84,831
DA:85,831
DA:87,4155
DA:88,3324
DA:89,10460
DA:90,7136
DA:91,7136
DA:92,7136
DA:96,1662
DA:99,0
DA:100,0
DA:101,0
DA:102,0
end_of_record
SF:/usr/include/c++/9/bits/stl_iterator_base_types.h
FN:205,_ZSt19__iterator_categoryIPcENSt15iterator_traitsIT_E17iterator_categoryERKS2_
FNDA:0,_ZSt19__iterator_categoryIPcENSt15iterator_traitsIT_E17iterator_categoryERKS2_
DA:205,0
DA:206,0
end_of_record
SF:/home/napiad/studia/eiti/mgr/sem1/zpr/checkers-webapp/checkers/src/King.h
FN:22,_ZN4KingC2ERKS_
FNDA:14030,_ZN4KingC2ERKS_
DA:22,14030
end_of_record
SF:/usr/include/c++/9/ext/type_traits.h
FN:152,_ZN9__gnu_cxx17__is_null_pointerIcEEbPT_
FNDA:0,_ZN9__gnu_cxx17__is_null_pointerIcEEbPT_
DA:152,0
DA:153,0
end_of_record
SF:/usr/include/c++/9/bits/basic_string.h
FN:243,_ZNSt7__cxx1112basic_stringIcSt11char_traitsIcESaIcEE16_M_construct_auxIPcEEvT_S7_St12__false_type
FNDA:0,_ZNSt7__cxx1112basic_stringIcSt11char_traitsIcESaIcEE16_M_construct_auxIPcEEvT_S7_St12__false_type
FN:263,_ZNSt7__cxx1112basic_stringIcSt11char_traitsIcESaIcEE12_M_constructIPcEEvT_S7_
FNDA:0,_ZNSt7__cxx1112basic_stringIcSt11char_traitsIcESaIcEE12_M_constructIPcEEvT_S7_
DA:243,0
DA:247,0
DA:248,0
DA:263,0
DA:266,0
DA:267,0
end_of_record
SF:/usr/include/c++/9/ext/aligned_buffer.h
FN:64,_ZN9__gnu_cxx16__aligned_membufISt4pairIKNSt7__cxx1112basic_stringIcSt11char_traitsIcESaIcEEE8PositionEE7_M_addrEv
FNDA:0,_ZN9__gnu_cxx16__aligned_membufISt4pairIKNSt7__cxx1112basic_stringIcSt11char_traitsIcESaIcEEE8PositionEE7_M_addrEv
FN:64,_ZN9__gnu_cxx16__aligned_membufISt4pairIK9PieceNamecEE7_M_addrEv
FNDA:0,_ZN9__gnu_cxx16__aligned_membufISt4pairIK9PieceNamecEE7_M_addrEv
FN:68,_ZNK9__gnu_cxx16__aligned_membufISt4pairIK9PieceNamecEE7_M_addrEv
FNDA:0,_ZNK9__gnu_cxx16__aligned_membufISt4pairIK9PieceNamecEE7_M_addrEv
FN:68,_ZNK9__gnu_cxx16__aligned_membufISt4pairIKNSt7__cxx1112basic_stringIcSt11char_traitsIcESaIcEEE8PositionEE7_M_addrEv
FNDA:0,_ZNK9__gnu_cxx16__aligned_membufISt4pairIKNSt7__cxx1112basic_stringIcSt11char_traitsIcESaIcEEE8PositionEE7_M_addrEv
FN:72,_ZN9__gnu_cxx16__aligned_membufISt4pairIKNSt7__cxx1112basic_stringIcSt11char_traitsIcESaIcEEE8PositionEE6_M_ptrEv
FNDA:0,_ZN9__gnu_cxx16__aligned_membufISt4pairIKNSt7__cxx1112basic_stringIcSt11char_traitsIcESaIcEEE8PositionEE6_M_ptrEv
FN:72,_ZN9__gnu_cxx16__aligned_membufISt4pairIK9PieceNamecEE6_M_ptrEv
FNDA:0,_ZN9__gnu_cxx16__aligned_membufISt4pairIK9PieceNamecEE6_M_ptrEv
FN:76,_ZNK9__gnu_cxx16__aligned_membufISt4pairIK9PieceNamecEE6_M_ptrEv
FNDA:0,_ZNK9__gnu_cxx16__aligned_membufISt4pairIK9PieceNamecEE6_M_ptrEv
FN:76,_ZNK9__gnu_cxx16__aligned_membufISt4pairIKNSt7__cxx1112basic_stringIcSt11char_traitsIcESaIcEEE8PositionEE6_M_ptrEv
FNDA:0,_ZNK9__gnu_cxx16__aligned_membufISt4pairIKNSt7__cxx1112basic_stringIcSt11char_traitsIcESaIcEEE8PositionEE6_M_ptrEv
DA:64,0
DA:65,0
DA:64,0
DA:65,0
DA:68,0
DA:69,0
DA:68,0
DA:69,0
DA:72,0
DA:73,0
DA:72,0
DA:73,0
DA:76,0
DA:77,0
DA:76,0
DA:77,0
end_of_record
SF:/home/napiad/studia/eiti/mgr/sem1/zpr/checkers-webapp/checkers/src/Piece.h
FN:27,_ZN5PieceD0Ev
FNDA:0,_ZN5PieceD0Ev
FN:27,_ZN5PieceD2Ev
FNDA:0,_ZN5PieceD2Ev
DA:27,0
DA:27,0
end_of_record
SF:/usr/include/c++/9/ext/atomicity.h
FN:48,_ZN9__gnu_cxxL18__exchange_and_addEPVii
FNDA:0,_ZN9__gnu_cxxL18__exchange_and_addEPVii
FN:65,_ZN9__gnu_cxxL25__exchange_and_add_singleEPii
FNDA:0,_ZN9__gnu_cxxL25__exchange_and_add_singleEPii
FN:78,_ZN9__gnu_cxxL27__exchange_and_add_dispatchEPii
FNDA:0,_ZN9__gnu_cxxL27__exchange_and_add_dispatchEPii
DA:48,0
DA:49,0
DA:65,0
DA:67,0
DA:68,0
DA:69,0
DA:78,0
DA:81,0
DA:82,0
DA:84,0
end_of_record
SF:/usr/include/c++/9/bits/stl_algobase.h
FN:198,_ZSt3minImERKT_S2_S2_
FNDA:0,_ZSt3minImERKT_S2_S2_
FN:222,_ZSt3maxImERKT_S2_S2_
FNDA:0,_ZSt3maxImERKT_S2_S2_
FN:280,_ZSt12__niter_baseIP4MoveET_S2_
FNDA:0,_ZSt12__niter_baseIP4MoveET_S2_
FN:280,_ZSt12__niter_baseIP8PositionET_S2_
FNDA:0,_ZSt12__niter_baseIP8PositionET_S2_
FN:289,_ZSt12__niter_wrapIN9__gnu_cxx17__normal_iteratorIP4MoveSt6vectorIS2_SaIS2_EEEES3_ET_S8_T0_
FNDA:0,_ZSt12__niter_wrapIN9__gnu_cxx17__normal_iteratorIP4MoveSt6vectorIS2_SaIS2_EEEES3_ET_S8_T0_
FN:289,_ZSt12__niter_wrapIN9__gnu_cxx17__normal_iteratorIP8PositionSt6vectorIS2_SaIS2_EEEES3_ET_S8_T0_
FNDA:0,_ZSt12__niter_wrapIN9__gnu_cxx17__normal_iteratorIP8PositionSt6vectorIS2_SaIS2_EEEES3_ET_S8_T0_
FN:295,_ZSt12__niter_wrapIP4MoveET_RKS2_S2_
FNDA:0,_ZSt12__niter_wrapIP4MoveET_RKS2_S2_
FN:295,_ZSt12__niter_wrapIP8PositionET_RKS2_S2_
FNDA:0,_ZSt12__niter_wrapIP8PositionET_RKS2_S2_
FN:337,_ZNSt11__copy_moveILb0ELb0ESt26random_access_iterator_tagE8__copy_mIP4MoveS4_EET0_T_S6_S5_
FNDA:0,_ZNSt11__copy_moveILb0ELb0ESt26random_access_iterator_tagE8__copy_mIP4MoveS4_EET0_T_S6_S5_
FN:337,_ZNSt11__copy_moveILb0ELb0ESt26random_access_iterator_tagE8__copy_mIPK4MovePS3_EET0_T_S8_S7_
FNDA:0,_ZNSt11__copy_moveILb0ELb0ESt26random_access_iterator_tagE8__copy_mIPK4MovePS3_EET0_T_S8_S7_
FN:375,_ZNSt11__copy_moveILb0ELb1ESt26random_access_iterator_tagE8__copy_mI8PositionEEPT_PKS4_S7_S5_
FNDA:0,_ZNSt11__copy_moveILb0ELb1ESt26random_access_iterator_tagE8__copy_mI8PositionEEPT_PKS4_S7_S5_
FN:393,_ZSt13__copy_move_aILb0EP8PositionS1_ET1_T0_S3_S2_
FNDA:0,_ZSt13__copy_move_aILb0EP8PositionS1_ET1_T0_S3_S2_
FN:393,_ZSt13__copy_move_aILb0EPK8PositionPS0_ET1_T0_S5_S4_
FNDA:0,_ZSt13__copy_move_aILb0EPK8PositionPS0_ET1_T0_S5_S4_
FN:393,_ZSt13__copy_move_aILb0EPK4MovePS0_ET1_T0_S5_S4_
FNDA:0,_ZSt13__copy_move_aILb0EPK4MovePS0_ET1_T0_S5_S4_
FN:393,_ZSt13__copy_move_aILb0EP4MoveS1_ET1_T0_S3_S2_
FNDA:0,_ZSt13__copy_move_aILb0EP4MoveS1_ET1_T0_S3_S2_
FN:438,_ZSt14__copy_move_a2ILb0EP4MoveS1_ET1_T0_S3_S2_
FNDA:0,_ZSt14__copy_move_a2ILb0EP4MoveS1_ET1_T0_S3_S2_
FN:438,_ZSt14__copy_move_a2ILb0EN9__gnu_cxx17__normal_iteratorIPK4MoveSt6vectorIS2_SaIS2_EEEENS1_IPS2_S7_EEET1_T0_SC_SB_
FNDA:0,_ZSt14__copy_move_a2ILb0EN9__gnu_cxx17__normal_iteratorIPK4MoveSt6vectorIS2_SaIS2_EEEENS1_IPS2_S7_EEET1_T0_SC_SB_
FN:438,_ZSt14__copy_move_a2ILb0EP8PositionS1_ET1_T0_S3_S2_
FNDA:0,_ZSt14__copy_move_a2ILb0EP8PositionS1_ET1_T0_S3_S2_
FN:438,_ZSt14__copy_move_a2ILb0EN9__gnu_cxx17__normal_iteratorIPK8PositionSt6vectorIS2_SaIS2_EEEENS1_IPS2_S7_EEET1_T0_SC_SB_
FNDA:0,_ZSt14__copy_move_a2ILb0EN9__gnu_cxx17__normal_iteratorIPK8PositionSt6vectorIS2_SaIS2_EEEENS1_IPS2_S7_EEET1_T0_SC_SB_
FN:465,_ZSt4copyIP4MoveS1_ET0_T_S3_S2_
FNDA:0,_ZSt4copyIP4MoveS1_ET0_T_S3_S2_
FN:465,_ZSt4copyIN9__gnu_cxx17__normal_iteratorIPK4MoveSt6vectorIS2_SaIS2_EEEENS1_IPS2_S7_EEET0_T_SC_SB_
FNDA:0,_ZSt4copyIN9__gnu_cxx17__normal_iteratorIPK4MoveSt6vectorIS2_SaIS2_EEEENS1_IPS2_S7_EEET0_T_SC_SB_
FN:465,_ZSt4copyIP8PositionS1_ET0_T_S3_S2_
FNDA:0,_ZSt4copyIP8PositionS1_ET0_T_S3_S2_
FN:465,_ZSt4copyIN9__gnu_cxx17__normal_iteratorIPK8PositionSt6vectorIS2_SaIS2_EEEENS1_IPS2_S7_EEET0_T_SC_SB_
FNDA:0,_ZSt4copyIN9__gnu_cxx17__normal_iteratorIPK8PositionSt6vectorIS2_SaIS2_EEEENS1_IPS2_S7_EEET0_T_SC_SB_
DA:198,0
DA:203,0
DA:204,0
DA:205,0
DA:222,0
DA:227,0
DA:228,0
DA:229,0
DA:280,0
DA:282,0
DA:280,0
DA:282,0
DA:289,0
DA:290,0
DA:289,0
DA:290,0
DA:295,0
DA:296,0
DA:295,0
DA:296,0
DA:337,0
DA:340,0
DA:342,0
DA:343,0
DA:344,0
DA:346,0
DA:337,0
DA:340,0
DA:342,0
DA:343,0
DA:344,0
DA:346,0
DA:375,0
DA:384,0
DA:385,0
DA:386,0
DA:387,0
DA:393,0
DA:398,0
DA:404,0
DA:393,0
DA:398,0
DA:404,0
DA:393,0
DA:398,0
DA:404,0
DA:393,0
DA:398,0
DA:404,0
DA:438,0
DA:440,0
DA:443,0
DA:438,0
DA:440,0
DA:443,0
DA:438,0
DA:440,0
DA:443,0
DA:438,0
DA:440,0
DA:443,0
DA:465,0
DA:474,0
DA:465,0
DA:474,0
DA:465,0
DA:474,0
DA:465,0
DA:474,0
end_of_record
SF:/usr/include/c++/9/bits/shared_ptr_base.h
FN:117,_ZNSt16_Sp_counted_baseILN9__gnu_cxx12_Lock_policyE2EEC2Ev
FNDA:0,_ZNSt16_Sp_counted_baseILN9__gnu_cxx12_Lock_policyE2EEC2Ev
FN:121,_ZNSt16_Sp_counted_baseILN9__gnu_cxx12_Lock_policyE2EED0Ev
FNDA:0,_ZNSt16_Sp_counted_baseILN9__gnu_cxx12_Lock_policyE2EED0Ev
FN:121,_ZNSt16_Sp_counted_baseILN9__gnu_cxx12_Lock_policyE2EED2Ev
FNDA:0,_ZNSt16_Sp_counted_baseILN9__gnu_cxx12_Lock_policyE2EED2Ev
FN:131,_ZNSt16_Sp_counted_baseILN9__gnu_cxx12_Lock_policyE2EE10_M_destroyEv
FNDA:0,_ZNSt16_Sp_counted_baseILN9__gnu_cxx12_Lock_policyE2EE10_M_destroyEv
FN:148,_ZNSt16_Sp_counted_baseILN9__gnu_cxx12_Lock_policyE2EE10_M_releaseEv
FNDA:0,_ZNSt16_Sp_counted_baseILN9__gnu_cxx12_Lock_policyE2EE10_M_releaseEv
FN:372,_ZNSt15_Sp_counted_ptrIP4KingLN9__gnu_cxx12_Lock_policyE2EEC2ES1_
FNDA:14030,_ZNSt15_Sp_counted_ptrIP4KingLN9__gnu_cxx12_Lock_policyE2EEC2ES1_
FN:376,_ZNSt15_Sp_counted_ptrIP4KingLN9__gnu_cxx12_Lock_policyE2EE10_M_disposeEv
FNDA:14030,_ZNSt15_Sp_counted_ptrIP4KingLN9__gnu_cxx12_Lock_policyE2EE10_M_disposeEv
FN:380,_ZNSt15_Sp_counted_ptrIP4KingLN9__gnu_cxx12_Lock_policyE2EE10_M_destroyEv
FNDA:14030,_ZNSt15_Sp_counted_ptrIP4KingLN9__gnu_cxx12_Lock_policyE2EE10_M_destroyEv
FN:384,_ZNSt15_Sp_counted_ptrIP4KingLN9__gnu_cxx12_Lock_policyE2EE14_M_get_deleterERKSt9type_info
FNDA:0,_ZNSt15_Sp_counted_ptrIP4KingLN9__gnu_cxx12_Lock_policyE2EE14_M_get_deleterERKSt9type_info
FN:616,_ZNSt14__shared_countILN9__gnu_cxx12_Lock_policyE2EEC2Ev
FNDA:0,_ZNSt14__shared_countILN9__gnu_cxx12_Lock_policyE2EEC2Ev
FN:621,_ZNSt14__shared_countILN9__gnu_cxx12_Lock_policyE2EEC2IP4KingEET_
FNDA:14030,_ZNSt14__shared_countILN9__gnu_cxx12_Lock_policyE2EEC2IP4KingEET_
FN:635,_ZNSt14__shared_countILN9__gnu_cxx12_Lock_policyE2EEC2IP4KingEET_St17integral_constantIbLb0EE
FNDA:14030,_ZNSt14__shared_countILN9__gnu_cxx12_Lock_policyE2EEC2IP4KingEET_St17integral_constantIbLb0EE
FN:727,_ZNSt14__shared_countILN9__gnu_cxx12_Lock_policyE2EED2Ev
FNDA:0,_ZNSt14__shared_countILN9__gnu_cxx12_Lock_policyE2EED2Ev
FN:756,_ZNSt14__shared_countILN9__gnu_cxx12_Lock_policyE2EE7_M_swapERS2_
FNDA:0,_ZNSt14__shared_countILN9__gnu_cxx12_Lock_policyE2EE7_M_swapERS2_
FN:1124,_ZNSt12__shared_ptrI4KingLN9__gnu_cxx12_Lock_policyE2EEC2IS0_vEEPT_
FNDA:14030,_ZNSt12__shared_ptrI4KingLN9__gnu_cxx12_Lock_policyE2EEC2IS0_vEEPT_
FN:1169,_ZNSt12__shared_ptrI4KingLN9__gnu_cxx12_Lock_policyE2EED2Ev
FNDA:0,_ZNSt12__shared_ptrI4KingLN9__gnu_cxx12_Lock_policyE2EED2Ev
FN:1184,_ZNSt12__shared_ptrI5PieceLN9__gnu_cxx12_Lock_policyE2EEC2I4KingvEEOS_IT_LS2_2EE
FNDA:0,_ZNSt12__shared_ptrI5PieceLN9__gnu_cxx12_Lock_policyE2EEC2I4KingvEEOS_IT_LS2_2EE
FN:1388,_ZNSt12__shared_ptrI4KingLN9__gnu_cxx12_Lock_policyE2EE31_M_enable_shared_from_this_withIS0_S0_EENSt9enable_ifIXntsrNS3_15__has_esft_baseIT0_vEE5valueEvE4typeEPT_
FNDA:0,_ZNSt12__shared_ptrI4KingLN9__gnu_cxx12_Lock_policyE2EE31_M_enable_shared_from_this_withIS0_S0_EENSt9enable_ifIXntsrNS3_15__has_esft_baseIT0_vEE5valueEvE4typeEPT_
DA:117,0
DA:118,0
DA:121,0
DA:122,0
DA:121,0
DA:122,0
DA:131,0
DA:132,0
DA:148,0
DA:152,0
DA:155,0
DA:167,0
DA:168,0
DA:171,0
DA:174,0
DA:372,14030
DA:373,14030
DA:376,14030
DA:377,14030
DA:380,14030
DA:381,14030
DA:384,0
DA:385,0
DA:616,0
DA:617,0
DA:621,14030
DA:625,14030
DA:627,0
DA:629,0
DA:630,0
DA:632,14030
DA:635,14030
DA:636,14030
DA:637,14030
DA:727,0
DA:729,0
DA:730,0
DA:731,0
DA:756,0
DA:758,0
DA:759,0
DA:760,0
DA:761,0
DA:1124,14030
DA:1125,14030
DA:1129,14030
DA:1130,14030
DA:1169,0
DA:1184,0
DA:1185,0
DA:1187,0
DA:1188,0
DA:1189,0
DA:1388,0
DA:1389,0
end_of_record
SF:/usr/include/c++/9/bits/cpp_type_traits.h
FN:428,_ZSt12__miter_baseIP4MoveET_S2_
FNDA:0,_ZSt12__miter_baseIP4MoveET_S2_
FN:428,_ZSt12__miter_baseIN9__gnu_cxx17__normal_iteratorIPK4MoveSt6vectorIS2_SaIS2_EEEEET_S9_
FNDA:0,_ZSt12__miter_baseIN9__gnu_cxx17__normal_iteratorIPK4MoveSt6vectorIS2_SaIS2_EEEEET_S9_
FN:428,_ZSt12__miter_baseIP8PositionET_S2_
FNDA:0,_ZSt12__miter_baseIP8PositionET_S2_
FN:428,_ZSt12__miter_baseIN9__gnu_cxx17__normal_iteratorIPK8PositionSt6vectorIS2_SaIS2_EEEEET_S9_
FNDA:0,_ZSt12__miter_baseIN9__gnu_cxx17__normal_iteratorIPK8PositionSt6vectorIS2_SaIS2_EEEEET_S9_
DA:428,0
DA:429,0
DA:428,0
DA:429,0
DA:428,0
DA:429,0
DA:428,0
DA:429,0
end_of_record
SF:/usr/include/c++/9/ext/new_allocator.h
FN:80,_ZN9__gnu_cxx13new_allocatorI4MoveEC2Ev
FNDA:0,_ZN9__gnu_cxx13new_allocatorI4MoveEC2Ev
FN:80,_ZN9__gnu_cxx13new_allocatorI8PositionEC2Ev
FNDA:0,_ZN9__gnu_cxx13new_allocatorI8PositionEC2Ev
FN:83,_ZN9__gnu_cxx13new_allocatorI4MoveEC2ERKS2_
FNDA:0,_ZN9__gnu_cxx13new_allocatorI4MoveEC2ERKS2_
FN:83,_ZN9__gnu_cxx13new_allocatorIcEC2ERKS1_
FNDA:0,_ZN9__gnu_cxx13new_allocatorIcEC2ERKS1_
FN:83,_ZN9__gnu_cxx13new_allocatorI8PositionEC2ERKS2_
FNDA:0,_ZN9__gnu_cxx13new_allocatorI8PositionEC2ERKS2_
FN:83,_ZN9__gnu_cxx13new_allocatorISt13_Rb_tree_nodeISt4pairIKNSt7__cxx1112basic_stringIcSt11char_traitsIcESaIcEEE8PositionEEEC2ERKSD_
FNDA:0,_ZN9__gnu_cxx13new_allocatorISt13_Rb_tree_nodeISt4pairIKNSt7__cxx1112basic_stringIcSt11char_traitsIcESaIcEEE8PositionEEEC2ERKSD_
FN:83,_ZN9__gnu_cxx13new_allocatorISt13_Rb_tree_nodeISt4pairIK9PieceNamecEEEC2ERKS7_
FNDA:0,_ZN9__gnu_cxx13new_allocatorISt13_Rb_tree_nodeISt4pairIK9PieceNamecEEEC2ERKS7_
FN:89,_ZN9__gnu_cxx13new_allocatorISt13_Rb_tree_nodeISt4pairIKNSt7__cxx1112basic_stringIcSt11char_traitsIcESaIcEEE8PositionEEED2Ev
FNDA:0,_ZN9__gnu_cxx13new_allocatorISt13_Rb_tree_nodeISt4pairIKNSt7__cxx1112basic_stringIcSt11char_traitsIcESaIcEEE8PositionEEED2Ev
FN:89,_ZN9__gnu_cxx13new_allocatorISt13_Rb_tree_nodeISt4pairIK9PieceNamecEEED2Ev
FNDA:0,_ZN9__gnu_cxx13new_allocatorISt13_Rb_tree_nodeISt4pairIK9PieceNamecEEED2Ev
FN:89,_ZN9__gnu_cxx13new_allocatorI8PositionED2Ev
FNDA:0,_ZN9__gnu_cxx13new_allocatorI8PositionED2Ev
FN:89,_ZN9__gnu_cxx13new_allocatorI4MoveED2Ev
FNDA:0,_ZN9__gnu_cxx13new_allocatorI4MoveED2Ev
FN:89,_ZN9__gnu_cxx13new_allocatorIcED2Ev
FNDA:0,_ZN9__gnu_cxx13new_allocatorIcED2Ev
FN:102,_ZN9__gnu_cxx13new_allocatorI4MoveE8allocateEmPKv
FNDA:0,_ZN9__gnu_cxx13new_allocatorI4MoveE8allocateEmPKv
FN:102,_ZN9__gnu_cxx13new_allocatorI8PositionE8allocateEmPKv
FNDA:0,_ZN9__gnu_cxx13new_allocatorI8PositionE8allocateEmPKv
FN:102,_ZN9__gnu_cxx13new_allocatorISt13_Rb_tree_nodeISt4pairIK9PieceNamecEEE8allocateEmPKv
FNDA:0,_ZN9__gnu_cxx13new_allocatorISt13_Rb_tree_nodeISt4pairIK9PieceNamecEEE8allocateEmPKv
FN:102,_ZN9__gnu_cxx13new_allocatorISt13_Rb_tree_nodeISt4pairIKNSt7__cxx1112basic_stringIcSt11char_traitsIcESaIcEEE8PositionEEE8allocateEmPKv
FNDA:0,_ZN9__gnu_cxx13new_allocatorISt13_Rb_tree_nodeISt4pairIKNSt7__cxx1112basic_stringIcSt11char_traitsIcESaIcEEE8PositionEEE8allocateEmPKv
FN:119,_ZN9__gnu_cxx13new_allocatorISt13_Rb_tree_nodeISt4pairIK9PieceNamecEEE10deallocateEPS6_m
FNDA:0,_ZN9__gnu_cxx13new_allocatorISt13_Rb_tree_nodeISt4pairIK9PieceNamecEEE10deallocateEPS6_m
FN:119,_ZN9__gnu_cxx13new_allocatorISt13_Rb_tree_nodeISt4pairIKNSt7__cxx1112basic_stringIcSt11char_traitsIcESaIcEEE8PositionEEE10deallocateEPSC_m
FNDA:0,_ZN9__gnu_cxx13new_allocatorISt13_Rb_tree_nodeISt4pairIKNSt7__cxx1112basic_stringIcSt11char_traitsIcESaIcEEE8PositionEEE10deallocateEPSC_m
FN:119,_ZN9__gnu_cxx13new_allocatorI4MoveE10deallocateEPS1_m
FNDA:0,_ZN9__gnu_cxx13new_allocatorI4MoveE10deallocateEPS1_m
FN:119,_ZN9__gnu_cxx13new_allocatorI8PositionE10deallocateEPS1_m
FNDA:0,_ZN9__gnu_cxx13new_allocatorI8PositionE10deallocateEPS1_m
FN:132,_ZNK9__gnu_cxx13new_allocatorI8PositionE8max_sizeEv
FNDA:0,_ZNK9__gnu_cxx13new_allocatorI8PositionE8max_sizeEv
FN:132,_ZNK9__gnu_cxx13new_allocatorI4MoveE8max_sizeEv
FNDA:0,_ZNK9__gnu_cxx13new_allocatorI4MoveE8max_sizeEv
FN:132,_ZNK9__gnu_cxx13new_allocatorISt13_Rb_tree_nodeISt4pairIK9PieceNamecEEE8max_sizeEv
FNDA:0,_ZNK9__gnu_cxx13new_allocatorISt13_Rb_tree_nodeISt4pairIK9PieceNamecEEE8max_sizeEv
FN:132,_ZNK9__gnu_cxx13new_allocatorISt13_Rb_tree_nodeISt4pairIKNSt7__cxx1112basic_stringIcSt11char_traitsIcESaIcEEE8PositionEEE8max_sizeEv
FNDA:0,_ZNK9__gnu_cxx13new_allocatorISt13_Rb_tree_nodeISt4pairIKNSt7__cxx1112basic_stringIcSt11char_traitsIcESaIcEEE8PositionEEE8max_sizeEv
FN:144,_ZN9__gnu_cxx13new_allocatorISt13_Rb_tree_nodeISt4pairIKNSt7__cxx1112basic_stringIcSt11char_traitsIcESaIcEEE8PositionEEE9constructISB_JRKSB_EEEvPT_DpOT0_
FNDA:0,_ZN9__gnu_cxx13new_allocatorISt13_Rb_tree_nodeISt4pairIKNSt7__cxx1112basic_stringIcSt11char_traitsIcESaIcEEE8PositionEEE9constructISB_JRKSB_EEEvPT_DpOT0_
FN:144,_ZN9__gnu_cxx13new_allocatorI4MoveE9constructIS1_JRKS1_EEEvPT_DpOT0_
FNDA:0,_ZN9__gnu_cxx13new_allocatorI4MoveE9constructIS1_JRKS1_EEEvPT_DpOT0_
FN:144,_ZN9__gnu_cxx13new_allocatorI4MoveE9constructIS1_JS1_EEEvPT_DpOT0_
FNDA:0,_ZN9__gnu_cxx13new_allocatorI4MoveE9constructIS1_JS1_EEEvPT_DpOT0_
FN:144,_ZN9__gnu_cxx13new_allocatorISt13_Rb_tree_nodeISt4pairIK9PieceNamecEEE9constructIS5_JRKS5_EEEvPT_DpOT0_
FNDA:0,_ZN9__gnu_cxx13new_allocatorISt13_Rb_tree_nodeISt4pairIK9PieceNamecEEE9constructIS5_JRKS5_EEEvPT_DpOT0_
FN:151,_ZN9__gnu_cxx13new_allocatorI4MoveE7destroyIS1_EEvPT_
FNDA:0,_ZN9__gnu_cxx13new_allocatorI4MoveE7destroyIS1_EEvPT_
FN:151,_ZN9__gnu_cxx13new_allocatorISt13_Rb_tree_nodeISt4pairIK9PieceNamecEEE7destroyIS5_EEvPT_
FNDA:0,_ZN9__gnu_cxx13new_allocatorISt13_Rb_tree_nodeISt4pairIK9PieceNamecEEE7destroyIS5_EEvPT_
FN:151,_ZN9__gnu_cxx13new_allocatorISt13_Rb_tree_nodeISt4pairIKNSt7__cxx1112basic_stringIcSt11char_traitsIcESaIcEEE8PositionEEE7destroyISB_EEvPT_
FNDA:0,_ZN9__gnu_cxx13new_allocatorISt13_Rb_tree_nodeISt4pairIKNSt7__cxx1112basic_stringIcSt11char_traitsIcESaIcEEE8PositionEEE7destroyISB_EEvPT_
DA:80,0
DA:80,0
DA:83,0
DA:83,0
DA:83,0
DA:83,0
DA:83,0
DA:89,0
DA:89,0
DA:89,0
DA:89,0
DA:89,0
DA:102,0
DA:104,0
DA:105,0
DA:114,0
DA:102,0
DA:104,0
DA:105,0
DA:114,0
DA:102,0
DA:104,0
DA:105,0
DA:114,0
DA:102,0
DA:104,0
DA:105,0
DA:114,0
DA:119,0
DA:128,0
DA:129,0
DA:119,0
DA:128,0
DA:129,0
DA:119,0
DA:128,0
DA:129,0
DA:119,0
DA:128,0
DA:129,0
DA:132,0
DA:135,0
DA:132,0
DA:135,0
DA:132,0
DA:135,0
DA:132,0
DA:135,0
DA:144,0
DA:147,0
DA:144,0
DA:147,0
DA:144,0
DA:147,0
DA:144,0
DA:147,0
DA:151,0
DA:153,0
DA:151,0
DA:153,0
DA:151,0
DA:153,0
end_of_record
SF:/usr/include/c++/9/bits/stl_uninitialized.h
FN:76,_ZNSt20__uninitialized_copyILb0EE13__uninit_copyISt13move_iteratorIP4MoveES4_EET0_T_S7_S6_
FNDA:0,_ZNSt20__uninitialized_copyILb0EE13__uninit_copyISt13move_iteratorIP4MoveES4_EET0_T_S7_S6_
FN:76,_ZNSt20__uninitialized_copyILb0EE13__uninit_copyIN9__gnu_cxx17__normal_iteratorIPK8PositionSt6vectorIS4_SaIS4_EEEEPS4_EET0_T_SD_SC_
FNDA:0,_ZNSt20__uninitialized_copyILb0EE13__uninit_copyIN9__gnu_cxx17__normal_iteratorIPK8PositionSt6vectorIS4_SaIS4_EEEEPS4_EET0_T_SD_SC_
FN:76,_ZNSt20__uninitialized_copyILb0EE13__uninit_copyIN9__gnu_cxx17__normal_iteratorIPK4MoveSt6vectorIS4_SaIS4_EEEEPS4_EET0_T_SD_SC_
FNDA:0,_ZNSt20__uninitialized_copyILb0EE13__uninit_copyIN9__gnu_cxx17__normal_iteratorIPK4MoveSt6vectorIS4_SaIS4_EEEEPS4_EET0_T_SD_SC_
FN:76,_ZNSt20__uninitialized_copyILb0EE13__uninit_copyIP8PositionS3_EET0_T_S5_S4_
FNDA:0,_ZNSt20__uninitialized_copyILb0EE13__uninit_copyIP8PositionS3_EET0_T_S5_S4_
FN:76,_ZNSt20__uninitialized_copyILb0EE13__uninit_copyIP4MoveS3_EET0_T_S5_S4_
FNDA:0,_ZNSt20__uninitialized_copyILb0EE13__uninit_copyIP4MoveS3_EET0_T_S5_S4_
FN:115,_ZSt18uninitialized_copyISt13move_iteratorIP4MoveES2_ET0_T_S5_S4_
FNDA:0,_ZSt18uninitialized_copyISt13move_iteratorIP4MoveES2_ET0_T_S5_S4_
FN:115,_ZSt18uninitialized_copyIP4MoveS1_ET0_T_S3_S2_
FNDA:0,_ZSt18uninitialized_copyIP4MoveS1_ET0_T_S3_S2_
FN:115,_ZSt18uninitialized_copyIP8PositionS1_ET0_T_S3_S2_
FNDA:0,_ZSt18uninitialized_copyIP8PositionS1_ET0_T_S3_S2_
FN:115,_ZSt18uninitialized_copyIN9__gnu_cxx17__normal_iteratorIPK4MoveSt6vectorIS2_SaIS2_EEEEPS2_ET0_T_SB_SA_
FNDA:0,_ZSt18uninitialized_copyIN9__gnu_cxx17__normal_iteratorIPK4MoveSt6vectorIS2_SaIS2_EEEEPS2_ET0_T_SB_SA_
FN:115,_ZSt18uninitialized_copyIN9__gnu_cxx17__normal_iteratorIPK8PositionSt6vectorIS2_SaIS2_EEEEPS2_ET0_T_SB_SA_
FNDA:0,_ZSt18uninitialized_copyIN9__gnu_cxx17__normal_iteratorIPK8PositionSt6vectorIS2_SaIS2_EEEEPS2_ET0_T_SB_SA_
FN:305,_ZSt22__uninitialized_copy_aISt13move_iteratorIP4MoveES2_S1_ET0_T_S5_S4_RSaIT1_E
FNDA:0,_ZSt22__uninitialized_copy_aISt13move_iteratorIP4MoveES2_S1_ET0_T_S5_S4_RSaIT1_E
FN:305,_ZSt22__uninitialized_copy_aIP4MoveS1_S0_ET0_T_S3_S2_RSaIT1_E
FNDA:0,_ZSt22__uninitialized_copy_aIP4MoveS1_S0_ET0_T_S3_S2_RSaIT1_E
FN:305,_ZSt22__uninitialized_copy_aIP8PositionS1_S0_ET0_T_S3_S2_RSaIT1_E
FNDA:0,_ZSt22__uninitialized_copy_aIP8PositionS1_S0_ET0_T_S3_S2_RSaIT1_E
FN:305,_ZSt22__uninitialized_copy_aIN9__gnu_cxx17__normal_iteratorIPK4MoveSt6vectorIS2_SaIS2_EEEEPS2_S2_ET0_T_SB_SA_RSaIT1_E
FNDA:0,_ZSt22__uninitialized_copy_aIN9__gnu_cxx17__normal_iteratorIPK4MoveSt6vectorIS2_SaIS2_EEEEPS2_S2_ET0_T_SB_SA_RSaIT1_E
FN:305,_ZSt22__uninitialized_copy_aIN9__gnu_cxx17__normal_iteratorIPK8PositionSt6vectorIS2_SaIS2_EEEEPS2_S2_ET0_T_SB_SA_RSaIT1_E
FNDA:0,_ZSt22__uninitialized_copy_aIN9__gnu_cxx17__normal_iteratorIPK8PositionSt6vectorIS2_SaIS2_EEEEPS2_S2_ET0_T_SB_SA_RSaIT1_E
FN:323,_ZSt34__uninitialized_move_if_noexcept_aIP4MoveS1_SaIS0_EET0_T_S4_S3_RT1_
FNDA:0,_ZSt34__uninitialized_move_if_noexcept_aIP4MoveS1_SaIS0_EET0_T_S4_S3_RT1_
FN:905,_ZSt19__relocate_object_aI4MoveS0_SaIS0_EEvPT_PT0_RT1_
FNDA:0,_ZSt19__relocate_object_aI4MoveS0_SaIS0_EEvPT_PT0_RT1_
FN:936,_ZSt14__relocate_a_1IP4MoveS1_SaIS0_EET0_T_S4_S3_RT1_
FNDA:0,_ZSt14__relocate_a_1IP4MoveS1_SaIS0_EET0_T_S4_S3_RT1_
FN:958,_ZSt12__relocate_aIP4MoveS1_SaIS0_EET0_T_S4_S3_RT1_
FNDA:0,_ZSt12__relocate_aIP4MoveS1_SaIS0_EET0_T_S4_S3_RT1_
DA:76,0
DA:79,0
DA:82,0
DA:83,0
DA:84,0
DA:86,0
DA:88,0
DA:89,0
DA:76,0
DA:79,0
DA:82,0
DA:83,0
DA:84,0
DA:86,0
DA:88,0
DA:89,0
DA:76,0
DA:79,0
DA:82,0
DA:83,0
DA:84,0
DA:76,0
DA:79,0
DA:82,0
DA:83,0
DA:84,0
DA:86,0
DA:88,0
DA:89,0
DA:76,0
DA:79,0
DA:82,0
DA:83,0
DA:84,0
DA:115,0
DA:134,0
DA:140,0
DA:115,0
DA:134,0
DA:140,0
DA:115,0
DA:134,0
DA:140,0
DA:115,0
DA:134,0
DA:140,0
DA:115,0
DA:134,0
DA:140,0
DA:305,0
DA:307,0
DA:305,0
DA:307,0
DA:305,0
DA:307,0
DA:305,0
DA:307,0
DA:305,0
DA:307,0
DA:323,0
DA:329,0
DA:330,0
DA:905,0
DA:912,0
DA:913,0
DA:914,0
DA:936,0
DA:948,0
DA:949,0
DA:950,0
DA:952,0
DA:958,0
DA:964,0
DA:966,0
end_of_record
TN:
SF:/usr/include/c++/9/bits/stl_iterator_base_types.h
FN:205,_ZSt19__iterator_categoryIPcENSt15iterator_traitsIT_E17iterator_categoryERKS2_
FNDA:0,_ZSt19__iterator_categoryIPcENSt15iterator_traitsIT_E17iterator_categoryERKS2_
DA:205,0
DA:206,0
end_of_record
SF:/home/napiad/studia/eiti/mgr/sem1/zpr/checkers-webapp/checkers/src/King.h
end_of_record
SF:/home/napiad/studia/eiti/mgr/sem1/zpr/checkers-webapp/checkers/src/Board.h
end_of_record
SF:/usr/include/c++/9/new
FN:173,_ZnwmPv
FNDA:0,_ZnwmPv
FN:179,_ZdlPvS_
FNDA:0,_ZdlPvS_
DA:173,0
DA:174,0
DA:179,0
end_of_record
SF:/usr/include/c++/9/bits/basic_string.h
FN:243,_ZNSt7__cxx1112basic_stringIcSt11char_traitsIcESaIcEE16_M_construct_auxIPcEEvT_S7_St12__false_type
FNDA:0,_ZNSt7__cxx1112basic_stringIcSt11char_traitsIcESaIcEE16_M_construct_auxIPcEEvT_S7_St12__false_type
FN:263,_ZNSt7__cxx1112basic_stringIcSt11char_traitsIcESaIcEE12_M_constructIPcEEvT_S7_
FNDA:0,_ZNSt7__cxx1112basic_stringIcSt11char_traitsIcESaIcEE12_M_constructIPcEEvT_S7_
DA:243,0
DA:247,0
DA:248,0
DA:263,0
DA:266,0
DA:267,0
end_of_record
SF:/usr/include/c++/9/ext/aligned_buffer.h
FN:64,_ZN9__gnu_cxx16__aligned_membufISt4pairIKNSt7__cxx1112basic_stringIcSt11char_traitsIcESaIcEEE8PositionEE7_M_addrEv
FNDA:0,_ZN9__gnu_cxx16__aligned_membufISt4pairIKNSt7__cxx1112basic_stringIcSt11char_traitsIcESaIcEEE8PositionEE7_M_addrEv
FN:64,_ZN9__gnu_cxx16__aligned_membufISt4pairIK9PieceNamecEE7_M_addrEv
FNDA:0,_ZN9__gnu_cxx16__aligned_membufISt4pairIK9PieceNamecEE7_M_addrEv
FN:68,_ZNK9__gnu_cxx16__aligned_membufISt4pairIK9PieceNamecEE7_M_addrEv
FNDA:0,_ZNK9__gnu_cxx16__aligned_membufISt4pairIK9PieceNamecEE7_M_addrEv
FN:68,_ZNK9__gnu_cxx16__aligned_membufISt4pairIKNSt7__cxx1112basic_stringIcSt11char_traitsIcESaIcEEE8PositionEE7_M_addrEv
FNDA:0,_ZNK9__gnu_cxx16__aligned_membufISt4pairIKNSt7__cxx1112basic_stringIcSt11char_traitsIcESaIcEEE8PositionEE7_M_addrEv
FN:72,_ZN9__gnu_cxx16__aligned_membufISt4pairIKNSt7__cxx1112basic_stringIcSt11char_traitsIcESaIcEEE8PositionEE6_M_ptrEv
FNDA:0,_ZN9__gnu_cxx16__aligned_membufISt4pairIKNSt7__cxx1112basic_stringIcSt11char_traitsIcESaIcEEE8PositionEE6_M_ptrEv
FN:72,_ZN9__gnu_cxx16__aligned_membufISt4pairIK9PieceNamecEE6_M_ptrEv
FNDA:0,_ZN9__gnu_cxx16__aligned_membufISt4pairIK9PieceNamecEE6_M_ptrEv
FN:76,_ZNK9__gnu_cxx16__aligned_membufISt4pairIK9PieceNamecEE6_M_ptrEv
FNDA:0,_ZNK9__gnu_cxx16__aligned_membufISt4pairIK9PieceNamecEE6_M_ptrEv
FN:76,_ZNK9__gnu_cxx16__aligned_membufISt4pairIKNSt7__cxx1112basic_stringIcSt11char_traitsIcESaIcEEE8PositionEE6_M_ptrEv
FNDA:0,_ZNK9__gnu_cxx16__aligned_membufISt4pairIKNSt7__cxx1112basic_stringIcSt11char_traitsIcESaIcEEE8PositionEE6_M_ptrEv
DA:64,0
DA:65,0
DA:64,0
DA:65,0
DA:68,0
DA:69,0
DA:68,0
DA:69,0
DA:72,0
DA:73,0
DA:72,0
DA:73,0
DA:76,0
DA:77,0
DA:76,0
DA:77,0
end_of_record
SF:/home/napiad/studia/eiti/mgr/sem1/zpr/checkers-webapp/checkers/src/Piece.h
FN:27,_ZN5PieceD0Ev
FNDA:0,_ZN5PieceD0Ev
FN:27,_ZN5PieceD2Ev
FNDA:0,_ZN5PieceD2Ev
DA:27,0
DA:27,0
end_of_record
SF:/usr/include/c++/9/ext/atomicity.h
FN:48,_ZN9__gnu_cxxL18__exchange_and_addEPVii
FNDA:0,_ZN9__gnu_cxxL18__exchange_and_addEPVii
FN:65,_ZN9__gnu_cxxL25__exchange_and_add_singleEPii
FNDA:0,_ZN9__gnu_cxxL25__exchange_and_add_singleEPii
FN:78,_ZN9__gnu_cxxL27__exchange_and_add_dispatchEPii
FNDA:0,_ZN9__gnu_cxxL27__exchange_and_add_dispatchEPii
DA:48,0
DA:49,0
DA:65,0
DA:67,0
DA:68,0
DA:69,0
DA:78,0
DA:81,0
DA:82,0
DA:84,0
end_of_record
SF:/home/napiad/studia/eiti/mgr/sem1/zpr/checkers-webapp/checkers/src/Pawn.h
FN:23,_ZN4PawnC2ERKS_
FNDA:8238,_ZN4PawnC2ERKS_
DA:23,8238
end_of_record
SF:/usr/include/c++/9/ext/type_traits.h
FN:152,_ZN9__gnu_cxx17__is_null_pointerIcEEbPT_
FNDA:0,_ZN9__gnu_cxx17__is_null_pointerIcEEbPT_
DA:152,0
DA:153,0
end_of_record
SF:/usr/include/c++/9/ext/new_allocator.h
FN:80,_ZN9__gnu_cxx13new_allocatorI4MoveEC2Ev
FNDA:0,_ZN9__gnu_cxx13new_allocatorI4MoveEC2Ev
FN:80,_ZN9__gnu_cxx13new_allocatorI8PositionEC2Ev
FNDA:0,_ZN9__gnu_cxx13new_allocatorI8PositionEC2Ev
FN:83,_ZN9__gnu_cxx13new_allocatorI8PositionEC2ERKS2_
FNDA:0,_ZN9__gnu_cxx13new_allocatorI8PositionEC2ERKS2_
FN:83,_ZN9__gnu_cxx13new_allocatorI4MoveEC2ERKS2_
FNDA:0,_ZN9__gnu_cxx13new_allocatorI4MoveEC2ERKS2_
FN:83,_ZN9__gnu_cxx13new_allocatorIcEC2ERKS1_
FNDA:0,_ZN9__gnu_cxx13new_allocatorIcEC2ERKS1_
FN:83,_ZN9__gnu_cxx13new_allocatorISt13_Rb_tree_nodeISt4pairIKNSt7__cxx1112basic_stringIcSt11char_traitsIcESaIcEEE8PositionEEEC2ERKSD_
FNDA:0,_ZN9__gnu_cxx13new_allocatorISt13_Rb_tree_nodeISt4pairIKNSt7__cxx1112basic_stringIcSt11char_traitsIcESaIcEEE8PositionEEEC2ERKSD_
FN:83,_ZN9__gnu_cxx13new_allocatorISt13_Rb_tree_nodeISt4pairIK9PieceNamecEEEC2ERKS7_
FNDA:0,_ZN9__gnu_cxx13new_allocatorISt13_Rb_tree_nodeISt4pairIK9PieceNamecEEEC2ERKS7_
FN:89,_ZN9__gnu_cxx13new_allocatorISt13_Rb_tree_nodeISt4pairIKNSt7__cxx1112basic_stringIcSt11char_traitsIcESaIcEEE8PositionEEED2Ev
FNDA:0,_ZN9__gnu_cxx13new_allocatorISt13_Rb_tree_nodeISt4pairIKNSt7__cxx1112basic_stringIcSt11char_traitsIcESaIcEEE8PositionEEED2Ev
FN:89,_ZN9__gnu_cxx13new_allocatorISt13_Rb_tree_nodeISt4pairIK9PieceNamecEEED2Ev
FNDA:0,_ZN9__gnu_cxx13new_allocatorISt13_Rb_tree_nodeISt4pairIK9PieceNamecEEED2Ev
FN:89,_ZN9__gnu_cxx13new_allocatorIcED2Ev
FNDA:0,_ZN9__gnu_cxx13new_allocatorIcED2Ev
FN:89,_ZN9__gnu_cxx13new_allocatorI4MoveED2Ev
FNDA:0,_ZN9__gnu_cxx13new_allocatorI4MoveED2Ev
FN:89,_ZN9__gnu_cxx13new_allocatorI8PositionED2Ev
FNDA:0,_ZN9__gnu_cxx13new_allocatorI8PositionED2Ev
FN:102,_ZN9__gnu_cxx13new_allocatorI4MoveE8allocateEmPKv
FNDA:0,_ZN9__gnu_cxx13new_allocatorI4MoveE8allocateEmPKv
FN:102,_ZN9__gnu_cxx13new_allocatorI8PositionE8allocateEmPKv
FNDA:0,_ZN9__gnu_cxx13new_allocatorI8PositionE8allocateEmPKv
FN:102,_ZN9__gnu_cxx13new_allocatorISt13_Rb_tree_nodeISt4pairIK9PieceNamecEEE8allocateEmPKv
FNDA:0,_ZN9__gnu_cxx13new_allocatorISt13_Rb_tree_nodeISt4pairIK9PieceNamecEEE8allocateEmPKv
FN:102,_ZN9__gnu_cxx13new_allocatorISt13_Rb_tree_nodeISt4pairIKNSt7__cxx1112basic_stringIcSt11char_traitsIcESaIcEEE8PositionEEE8allocateEmPKv
FNDA:0,_ZN9__gnu_cxx13new_allocatorISt13_Rb_tree_nodeISt4pairIKNSt7__cxx1112basic_stringIcSt11char_traitsIcESaIcEEE8PositionEEE8allocateEmPKv
FN:119,_ZN9__gnu_cxx13new_allocatorISt13_Rb_tree_nodeISt4pairIKNSt7__cxx1112basic_stringIcSt11char_traitsIcESaIcEEE8PositionEEE10deallocateEPSC_m
FNDA:0,_ZN9__gnu_cxx13new_allocatorISt13_Rb_tree_nodeISt4pairIKNSt7__cxx1112basic_stringIcSt11char_traitsIcESaIcEEE8PositionEEE10deallocateEPSC_m
FN:119,_ZN9__gnu_cxx13new_allocatorISt13_Rb_tree_nodeISt4pairIK9PieceNamecEEE10deallocateEPS6_m
FNDA:0,_ZN9__gnu_cxx13new_allocatorISt13_Rb_tree_nodeISt4pairIK9PieceNamecEEE10deallocateEPS6_m
FN:119,_ZN9__gnu_cxx13new_allocatorI4MoveE10deallocateEPS1_m
FNDA:0,_ZN9__gnu_cxx13new_allocatorI4MoveE10deallocateEPS1_m
FN:119,_ZN9__gnu_cxx13new_allocatorI8PositionE10deallocateEPS1_m
FNDA:0,_ZN9__gnu_cxx13new_allocatorI8PositionE10deallocateEPS1_m
FN:132,_ZNK9__gnu_cxx13new_allocatorI8PositionE8max_sizeEv
FNDA:0,_ZNK9__gnu_cxx13new_allocatorI8PositionE8max_sizeEv
FN:132,_ZNK9__gnu_cxx13new_allocatorI4MoveE8max_sizeEv
FNDA:0,_ZNK9__gnu_cxx13new_allocatorI4MoveE8max_sizeEv
FN:132,_ZNK9__gnu_cxx13new_allocatorISt13_Rb_tree_nodeISt4pairIK9PieceNamecEEE8max_sizeEv
FNDA:0,_ZNK9__gnu_cxx13new_allocatorISt13_Rb_tree_nodeISt4pairIK9PieceNamecEEE8max_sizeEv
FN:132,_ZNK9__gnu_cxx13new_allocatorISt13_Rb_tree_nodeISt4pairIKNSt7__cxx1112basic_stringIcSt11char_traitsIcESaIcEEE8PositionEEE8max_sizeEv
FNDA:0,_ZNK9__gnu_cxx13new_allocatorISt13_Rb_tree_nodeISt4pairIKNSt7__cxx1112basic_stringIcSt11char_traitsIcESaIcEEE8PositionEEE8max_sizeEv
FN:144,_ZN9__gnu_cxx13new_allocatorISt13_Rb_tree_nodeISt4pairIKNSt7__cxx1112basic_stringIcSt11char_traitsIcESaIcEEE8PositionEEE9constructISB_JRKSB_EEEvPT_DpOT0_
FNDA:0,_ZN9__gnu_cxx13new_allocatorISt13_Rb_tree_nodeISt4pairIKNSt7__cxx1112basic_stringIcSt11char_traitsIcESaIcEEE8PositionEEE9constructISB_JRKSB_EEEvPT_DpOT0_
FN:144,_ZN9__gnu_cxx13new_allocatorI4MoveE9constructIS1_JRKS1_EEEvPT_DpOT0_
FNDA:716,_ZN9__gnu_cxx13new_allocatorI4MoveE9constructIS1_JRKS1_EEEvPT_DpOT0_
FN:144,_ZN9__gnu_cxx13new_allocatorISt13_Rb_tree_nodeISt4pairIK9PieceNamecEEE9constructIS5_JRKS5_EEEvPT_DpOT0_
FNDA:0,_ZN9__gnu_cxx13new_allocatorISt13_Rb_tree_nodeISt4pairIK9PieceNamecEEE9constructIS5_JRKS5_EEEvPT_DpOT0_
FN:144,_ZN9__gnu_cxx13new_allocatorI4MoveE9constructIS1_JS1_EEEvPT_DpOT0_
FNDA:16826,_ZN9__gnu_cxx13new_allocatorI4MoveE9constructIS1_JS1_EEEvPT_DpOT0_
FN:151,_ZN9__gnu_cxx13new_allocatorI4MoveE7destroyIS1_EEvPT_
FNDA:9690,_ZN9__gnu_cxx13new_allocatorI4MoveE7destroyIS1_EEvPT_
FN:151,_ZN9__gnu_cxx13new_allocatorISt13_Rb_tree_nodeISt4pairIK9PieceNamecEEE7destroyIS5_EEvPT_
FNDA:0,_ZN9__gnu_cxx13new_allocatorISt13_Rb_tree_nodeISt4pairIK9PieceNamecEEE7destroyIS5_EEvPT_
FN:151,_ZN9__gnu_cxx13new_allocatorISt13_Rb_tree_nodeISt4pairIKNSt7__cxx1112basic_stringIcSt11char_traitsIcESaIcEEE8PositionEEE7destroyISB_EEvPT_
FNDA:0,_ZN9__gnu_cxx13new_allocatorISt13_Rb_tree_nodeISt4pairIKNSt7__cxx1112basic_stringIcSt11char_traitsIcESaIcEEE8PositionEEE7destroyISB_EEvPT_
DA:80,0
DA:80,0
DA:83,0
DA:83,0
DA:83,0
DA:83,0
DA:83,0
DA:89,0
DA:89,0
DA:89,0
DA:89,0
DA:89,0
DA:102,0
DA:104,0
DA:105,0
DA:114,0
DA:102,0
DA:104,0
DA:105,0
DA:114,0
DA:102,0
DA:104,0
DA:105,0
DA:114,0
DA:102,0
DA:104,0
DA:105,0
DA:114,0
DA:119,0
DA:128,0
DA:129,0
DA:119,0
DA:128,0
DA:129,0
DA:119,0
DA:128,0
DA:129,0
DA:119,0
DA:128,0
DA:129,0
DA:132,0
DA:135,0
DA:132,0
DA:135,0
DA:132,0
DA:135,0
DA:132,0
DA:135,0
DA:144,0
DA:147,0
DA:144,16826
DA:147,16826
DA:144,0
DA:147,0
DA:144,716
DA:147,716
DA:151,0
DA:153,0
DA:151,0
DA:153,0
DA:151,9690
DA:153,9690
end_of_record
SF:/usr/include/c++/9/bits/stl_uninitialized.h
FN:76,_ZNSt20__uninitialized_copyILb0EE13__uninit_copyISt13move_iteratorIP4MoveES4_EET0_T_S7_S6_
FNDA:0,_ZNSt20__uninitialized_copyILb0EE13__uninit_copyISt13move_iteratorIP4MoveES4_EET0_T_S7_S6_
FN:76,_ZNSt20__uninitialized_copyILb0EE13__uninit_copyIN9__gnu_cxx17__normal_iteratorIPK8PositionSt6vectorIS4_SaIS4_EEEEPS4_EET0_T_SD_SC_
FNDA:0,_ZNSt20__uninitialized_copyILb0EE13__uninit_copyIN9__gnu_cxx17__normal_iteratorIPK8PositionSt6vectorIS4_SaIS4_EEEEPS4_EET0_T_SD_SC_
FN:76,_ZNSt20__uninitialized_copyILb0EE13__uninit_copyIN9__gnu_cxx17__normal_iteratorIPK4MoveSt6vectorIS4_SaIS4_EEEEPS4_EET0_T_SD_SC_
FNDA:0,_ZNSt20__uninitialized_copyILb0EE13__uninit_copyIN9__gnu_cxx17__normal_iteratorIPK4MoveSt6vectorIS4_SaIS4_EEEEPS4_EET0_T_SD_SC_
FN:76,_ZNSt20__uninitialized_copyILb0EE13__uninit_copyIP8PositionS3_EET0_T_S5_S4_
FNDA:0,_ZNSt20__uninitialized_copyILb0EE13__uninit_copyIP8PositionS3_EET0_T_S5_S4_
FN:76,_ZNSt20__uninitialized_copyILb0EE13__uninit_copyIP4MoveS3_EET0_T_S5_S4_
FNDA:0,_ZNSt20__uninitialized_copyILb0EE13__uninit_copyIP4MoveS3_EET0_T_S5_S4_
FN:115,_ZSt18uninitialized_copyISt13move_iteratorIP4MoveES2_ET0_T_S5_S4_
FNDA:0,_ZSt18uninitialized_copyISt13move_iteratorIP4MoveES2_ET0_T_S5_S4_
FN:115,_ZSt18uninitialized_copyIP4MoveS1_ET0_T_S3_S2_
FNDA:0,_ZSt18uninitialized_copyIP4MoveS1_ET0_T_S3_S2_
FN:115,_ZSt18uninitialized_copyIP8PositionS1_ET0_T_S3_S2_
FNDA:0,_ZSt18uninitialized_copyIP8PositionS1_ET0_T_S3_S2_
FN:115,_ZSt18uninitialized_copyIN9__gnu_cxx17__normal_iteratorIPK4MoveSt6vectorIS2_SaIS2_EEEEPS2_ET0_T_SB_SA_
FNDA:0,_ZSt18uninitialized_copyIN9__gnu_cxx17__normal_iteratorIPK4MoveSt6vectorIS2_SaIS2_EEEEPS2_ET0_T_SB_SA_
FN:115,_ZSt18uninitialized_copyIN9__gnu_cxx17__normal_iteratorIPK8PositionSt6vectorIS2_SaIS2_EEEEPS2_ET0_T_SB_SA_
FNDA:0,_ZSt18uninitialized_copyIN9__gnu_cxx17__normal_iteratorIPK8PositionSt6vectorIS2_SaIS2_EEEEPS2_ET0_T_SB_SA_
FN:305,_ZSt22__uninitialized_copy_aISt13move_iteratorIP4MoveES2_S1_ET0_T_S5_S4_RSaIT1_E
FNDA:0,_ZSt22__uninitialized_copy_aISt13move_iteratorIP4MoveES2_S1_ET0_T_S5_S4_RSaIT1_E
FN:305,_ZSt22__uninitialized_copy_aIP4MoveS1_S0_ET0_T_S3_S2_RSaIT1_E
FNDA:0,_ZSt22__uninitialized_copy_aIP4MoveS1_S0_ET0_T_S3_S2_RSaIT1_E
FN:305,_ZSt22__uninitialized_copy_aIP8PositionS1_S0_ET0_T_S3_S2_RSaIT1_E
FNDA:0,_ZSt22__uninitialized_copy_aIP8PositionS1_S0_ET0_T_S3_S2_RSaIT1_E
FN:305,_ZSt22__uninitialized_copy_aIN9__gnu_cxx17__normal_iteratorIPK4MoveSt6vectorIS2_SaIS2_EEEEPS2_S2_ET0_T_SB_SA_RSaIT1_E
FNDA:0,_ZSt22__uninitialized_copy_aIN9__gnu_cxx17__normal_iteratorIPK4MoveSt6vectorIS2_SaIS2_EEEEPS2_S2_ET0_T_SB_SA_RSaIT1_E
FN:305,_ZSt22__uninitialized_copy_aIN9__gnu_cxx17__normal_iteratorIPK8PositionSt6vectorIS2_SaIS2_EEEEPS2_S2_ET0_T_SB_SA_RSaIT1_E
FNDA:0,_ZSt22__uninitialized_copy_aIN9__gnu_cxx17__normal_iteratorIPK8PositionSt6vectorIS2_SaIS2_EEEEPS2_S2_ET0_T_SB_SA_RSaIT1_E
FN:323,_ZSt34__uninitialized_move_if_noexcept_aIP4MoveS1_SaIS0_EET0_T_S4_S3_RT1_
FNDA:0,_ZSt34__uninitialized_move_if_noexcept_aIP4MoveS1_SaIS0_EET0_T_S4_S3_RT1_
FN:905,_ZSt19__relocate_object_aI4MoveS0_SaIS0_EEvPT_PT0_RT1_
FNDA:9690,_ZSt19__relocate_object_aI4MoveS0_SaIS0_EEvPT_PT0_RT1_
FN:936,_ZSt14__relocate_a_1IP4MoveS1_SaIS0_EET0_T_S4_S3_RT1_
FNDA:8916,_ZSt14__relocate_a_1IP4MoveS1_SaIS0_EET0_T_S4_S3_RT1_
FN:958,_ZSt12__relocate_aIP4MoveS1_SaIS0_EET0_T_S4_S3_RT1_
FNDA:8916,_ZSt12__relocate_aIP4MoveS1_SaIS0_EET0_T_S4_S3_RT1_
DA:76,0
DA:79,0
DA:82,0
DA:83,0
DA:84,0
DA:86,0
DA:88,0
DA:89,0
DA:76,0
DA:79,0
DA:82,0
DA:83,0
DA:84,0
DA:86,0
DA:88,0
DA:89,0
DA:76,0
DA:79,0
DA:82,0
DA:83,0
DA:84,0
DA:76,0
DA:79,0
DA:82,0
DA:83,0
DA:84,0
DA:86,0
DA:88,0
DA:89,0
DA:76,0
DA:79,0
DA:82,0
DA:83,0
DA:84,0
DA:115,0
DA:134,0
DA:140,0
DA:115,0
DA:134,0
DA:140,0
DA:115,0
DA:134,0
DA:140,0
DA:115,0
DA:134,0
DA:140,0
DA:115,0
DA:134,0
DA:140,0
DA:305,0
DA:307,0
DA:305,0
DA:307,0
DA:305,0
DA:307,0
DA:305,0
DA:307,0
DA:305,0
DA:307,0
DA:323,0
DA:329,0
DA:330,0
DA:905,9690
DA:912,9690
DA:913,9690
DA:914,9690
DA:936,8916
DA:948,8916
DA:949,18606
DA:950,9690
DA:952,8916
DA:958,8916
DA:964,8916
DA:966,8916
end_of_record
SF:/usr/include/c++/9/bits/stl_algobase.h
FN:198,_ZSt3minImERKT_S2_S2_
FNDA:0,_ZSt3minImERKT_S2_S2_
FN:222,_ZSt3maxImERKT_S2_S2_
FNDA:0,_ZSt3maxImERKT_S2_S2_
FN:280,_ZSt12__niter_baseIP4MoveET_S2_
FNDA:0,_ZSt12__niter_baseIP4MoveET_S2_
FN:280,_ZSt12__niter_baseIP8PositionET_S2_
FNDA:0,_ZSt12__niter_baseIP8PositionET_S2_
FN:289,_ZSt12__niter_wrapIN9__gnu_cxx17__normal_iteratorIP4MoveSt6vectorIS2_SaIS2_EEEES3_ET_S8_T0_
FNDA:0,_ZSt12__niter_wrapIN9__gnu_cxx17__normal_iteratorIP4MoveSt6vectorIS2_SaIS2_EEEES3_ET_S8_T0_
FN:289,_ZSt12__niter_wrapIN9__gnu_cxx17__normal_iteratorIP8PositionSt6vectorIS2_SaIS2_EEEES3_ET_S8_T0_
FNDA:0,_ZSt12__niter_wrapIN9__gnu_cxx17__normal_iteratorIP8PositionSt6vectorIS2_SaIS2_EEEES3_ET_S8_T0_
FN:295,_ZSt12__niter_wrapIP4MoveET_RKS2_S2_
FNDA:0,_ZSt12__niter_wrapIP4MoveET_RKS2_S2_
FN:295,_ZSt12__niter_wrapIP8PositionET_RKS2_S2_
FNDA:0,_ZSt12__niter_wrapIP8PositionET_RKS2_S2_
FN:337,_ZNSt11__copy_moveILb0ELb0ESt26random_access_iterator_tagE8__copy_mIP4MoveS4_EET0_T_S6_S5_
FNDA:0,_ZNSt11__copy_moveILb0ELb0ESt26random_access_iterator_tagE8__copy_mIP4MoveS4_EET0_T_S6_S5_
FN:337,_ZNSt11__copy_moveILb0ELb0ESt26random_access_iterator_tagE8__copy_mIPK4MovePS3_EET0_T_S8_S7_
FNDA:0,_ZNSt11__copy_moveILb0ELb0ESt26random_access_iterator_tagE8__copy_mIPK4MovePS3_EET0_T_S8_S7_
FN:375,_ZNSt11__copy_moveILb0ELb1ESt26random_access_iterator_tagE8__copy_mI8PositionEEPT_PKS4_S7_S5_
FNDA:0,_ZNSt11__copy_moveILb0ELb1ESt26random_access_iterator_tagE8__copy_mI8PositionEEPT_PKS4_S7_S5_
FN:393,_ZSt13__copy_move_aILb0EP8PositionS1_ET1_T0_S3_S2_
FNDA:0,_ZSt13__copy_move_aILb0EP8PositionS1_ET1_T0_S3_S2_
FN:393,_ZSt13__copy_move_aILb0EPK8PositionPS0_ET1_T0_S5_S4_
FNDA:0,_ZSt13__copy_move_aILb0EPK8PositionPS0_ET1_T0_S5_S4_
FN:393,_ZSt13__copy_move_aILb0EPK4MovePS0_ET1_T0_S5_S4_
FNDA:0,_ZSt13__copy_move_aILb0EPK4MovePS0_ET1_T0_S5_S4_
FN:393,_ZSt13__copy_move_aILb0EP4MoveS1_ET1_T0_S3_S2_
FNDA:0,_ZSt13__copy_move_aILb0EP4MoveS1_ET1_T0_S3_S2_
FN:438,_ZSt14__copy_move_a2ILb0EP4MoveS1_ET1_T0_S3_S2_
FNDA:0,_ZSt14__copy_move_a2ILb0EP4MoveS1_ET1_T0_S3_S2_
FN:438,_ZSt14__copy_move_a2ILb0EN9__gnu_cxx17__normal_iteratorIPK4MoveSt6vectorIS2_SaIS2_EEEENS1_IPS2_S7_EEET1_T0_SC_SB_
FNDA:0,_ZSt14__copy_move_a2ILb0EN9__gnu_cxx17__normal_iteratorIPK4MoveSt6vectorIS2_SaIS2_EEEENS1_IPS2_S7_EEET1_T0_SC_SB_
FN:438,_ZSt14__copy_move_a2ILb0EP8PositionS1_ET1_T0_S3_S2_
FNDA:0,_ZSt14__copy_move_a2ILb0EP8PositionS1_ET1_T0_S3_S2_
FN:438,_ZSt14__copy_move_a2ILb0EN9__gnu_cxx17__normal_iteratorIPK8PositionSt6vectorIS2_SaIS2_EEEENS1_IPS2_S7_EEET1_T0_SC_SB_
FNDA:0,_ZSt14__copy_move_a2ILb0EN9__gnu_cxx17__normal_iteratorIPK8PositionSt6vectorIS2_SaIS2_EEEENS1_IPS2_S7_EEET1_T0_SC_SB_
FN:465,_ZSt4copyIP4MoveS1_ET0_T_S3_S2_
FNDA:0,_ZSt4copyIP4MoveS1_ET0_T_S3_S2_
FN:465,_ZSt4copyIN9__gnu_cxx17__normal_iteratorIPK4MoveSt6vectorIS2_SaIS2_EEEENS1_IPS2_S7_EEET0_T_SC_SB_
FNDA:0,_ZSt4copyIN9__gnu_cxx17__normal_iteratorIPK4MoveSt6vectorIS2_SaIS2_EEEENS1_IPS2_S7_EEET0_T_SC_SB_
FN:465,_ZSt4copyIP8PositionS1_ET0_T_S3_S2_
FNDA:0,_ZSt4copyIP8PositionS1_ET0_T_S3_S2_
FN:465,_ZSt4copyIN9__gnu_cxx17__normal_iteratorIPK8PositionSt6vectorIS2_SaIS2_EEEENS1_IPS2_S7_EEET0_T_SC_SB_
FNDA:0,_ZSt4copyIN9__gnu_cxx17__normal_iteratorIPK8PositionSt6vectorIS2_SaIS2_EEEENS1_IPS2_S7_EEET0_T_SC_SB_
DA:198,0
DA:203,0
DA:204,0
DA:205,0
DA:222,0
DA:227,0
DA:228,0
DA:229,0
DA:280,0
DA:282,0
DA:280,0
DA:282,0
DA:289,0
DA:290,0
DA:289,0
DA:290,0
DA:295,0
DA:296,0
DA:295,0
DA:296,0
DA:337,0
DA:340,0
DA:342,0
DA:343,0
DA:344,0
DA:346,0
DA:337,0
DA:340,0
DA:342,0
DA:343,0
DA:344,0
DA:346,0
DA:375,0
DA:384,0
DA:385,0
DA:386,0
DA:387,0
DA:393,0
DA:398,0
DA:404,0
DA:393,0
DA:398,0
DA:404,0
DA:393,0
DA:398,0
DA:404,0
DA:393,0
DA:398,0
DA:404,0
DA:438,0
DA:440,0
DA:443,0
DA:438,0
DA:440,0
DA:443,0
DA:438,0
DA:440,0
DA:443,0
DA:438,0
DA:440,0
DA:443,0
DA:465,0
DA:474,0
DA:465,0
DA:474,0
DA:465,0
DA:474,0
DA:465,0
DA:474,0
end_of_record
SF:/usr/include/c++/9/bits/shared_ptr_base.h
FN:117,_ZNSt16_Sp_counted_baseILN9__gnu_cxx12_Lock_policyE2EEC2Ev
FNDA:0,_ZNSt16_Sp_counted_baseILN9__gnu_cxx12_Lock_policyE2EEC2Ev
FN:121,_ZNSt16_Sp_counted_baseILN9__gnu_cxx12_Lock_policyE2EED0Ev
FNDA:0,_ZNSt16_Sp_counted_baseILN9__gnu_cxx12_Lock_policyE2EED0Ev
FN:121,_ZNSt16_Sp_counted_baseILN9__gnu_cxx12_Lock_policyE2EED2Ev
FNDA:0,_ZNSt16_Sp_counted_baseILN9__gnu_cxx12_Lock_policyE2EED2Ev
FN:131,_ZNSt16_Sp_counted_baseILN9__gnu_cxx12_Lock_policyE2EE10_M_destroyEv
FNDA:0,_ZNSt16_Sp_counted_baseILN9__gnu_cxx12_Lock_policyE2EE10_M_destroyEv
FN:148,_ZNSt16_Sp_counted_baseILN9__gnu_cxx12_Lock_policyE2EE10_M_releaseEv
FNDA:0,_ZNSt16_Sp_counted_baseILN9__gnu_cxx12_Lock_policyE2EE10_M_releaseEv
FN:372,_ZNSt15_Sp_counted_ptrIP4PawnLN9__gnu_cxx12_Lock_policyE2EEC2ES1_
FNDA:8238,_ZNSt15_Sp_counted_ptrIP4PawnLN9__gnu_cxx12_Lock_policyE2EEC2ES1_
FN:376,_ZNSt15_Sp_counted_ptrIP4PawnLN9__gnu_cxx12_Lock_policyE2EE10_M_disposeEv
FNDA:8238,_ZNSt15_Sp_counted_ptrIP4PawnLN9__gnu_cxx12_Lock_policyE2EE10_M_disposeEv
FN:380,_ZNSt15_Sp_counted_ptrIP4PawnLN9__gnu_cxx12_Lock_policyE2EE10_M_destroyEv
FNDA:8238,_ZNSt15_Sp_counted_ptrIP4PawnLN9__gnu_cxx12_Lock_policyE2EE10_M_destroyEv
FN:384,_ZNSt15_Sp_counted_ptrIP4PawnLN9__gnu_cxx12_Lock_policyE2EE14_M_get_deleterERKSt9type_info
FNDA:0,_ZNSt15_Sp_counted_ptrIP4PawnLN9__gnu_cxx12_Lock_policyE2EE14_M_get_deleterERKSt9type_info
FN:616,_ZNSt14__shared_countILN9__gnu_cxx12_Lock_policyE2EEC2Ev
FNDA:0,_ZNSt14__shared_countILN9__gnu_cxx12_Lock_policyE2EEC2Ev
FN:621,_ZNSt14__shared_countILN9__gnu_cxx12_Lock_policyE2EEC2IP4PawnEET_
FNDA:8238,_ZNSt14__shared_countILN9__gnu_cxx12_Lock_policyE2EEC2IP4PawnEET_
FN:635,_ZNSt14__shared_countILN9__gnu_cxx12_Lock_policyE2EEC2IP4PawnEET_St17integral_constantIbLb0EE
FNDA:8238,_ZNSt14__shared_countILN9__gnu_cxx12_Lock_policyE2EEC2IP4PawnEET_St17integral_constantIbLb0EE
FN:727,_ZNSt14__shared_countILN9__gnu_cxx12_Lock_policyE2EED2Ev
FNDA:0,_ZNSt14__shared_countILN9__gnu_cxx12_Lock_policyE2EED2Ev
FN:756,_ZNSt14__shared_countILN9__gnu_cxx12_Lock_policyE2EE7_M_swapERS2_
FNDA:0,_ZNSt14__shared_countILN9__gnu_cxx12_Lock_policyE2EE7_M_swapERS2_
FN:1124,_ZNSt12__shared_ptrI4PawnLN9__gnu_cxx12_Lock_policyE2EEC2IS0_vEEPT_
FNDA:8238,_ZNSt12__shared_ptrI4PawnLN9__gnu_cxx12_Lock_policyE2EEC2IS0_vEEPT_
FN:1169,_ZNSt12__shared_ptrI4PawnLN9__gnu_cxx12_Lock_policyE2EED2Ev
FNDA:0,_ZNSt12__shared_ptrI4PawnLN9__gnu_cxx12_Lock_policyE2EED2Ev
FN:1184,_ZNSt12__shared_ptrI5PieceLN9__gnu_cxx12_Lock_policyE2EEC2I4PawnvEEOS_IT_LS2_2EE
FNDA:0,_ZNSt12__shared_ptrI5PieceLN9__gnu_cxx12_Lock_policyE2EEC2I4PawnvEEOS_IT_LS2_2EE
FN:1388,_ZNSt12__shared_ptrI4PawnLN9__gnu_cxx12_Lock_policyE2EE31_M_enable_shared_from_this_withIS0_S0_EENSt9enable_ifIXntsrNS3_15__has_esft_baseIT0_vEE5valueEvE4typeEPT_
FNDA:0,_ZNSt12__shared_ptrI4PawnLN9__gnu_cxx12_Lock_policyE2EE31_M_enable_shared_from_this_withIS0_S0_EENSt9enable_ifIXntsrNS3_15__has_esft_baseIT0_vEE5valueEvE4typeEPT_
DA:117,0
DA:118,0
DA:121,0
DA:122,0
DA:121,0
DA:122,0
DA:131,0
DA:132,0
DA:148,0
DA:152,0
DA:155,0
DA:167,0
DA:168,0
DA:171,0
DA:174,0
DA:372,8238
DA:373,8238
DA:376,8238
DA:377,8238
DA:380,8238
DA:381,8238
DA:384,0
DA:385,0
DA:616,0
DA:617,0
DA:621,8238
DA:625,8238
DA:627,0
DA:629,0
DA:630,0
DA:632,8238
DA:635,8238
DA:636,8238
DA:637,8238
DA:727,0
DA:729,0
DA:730,0
DA:731,0
DA:756,0
DA:758,0
DA:759,0
DA:760,0
DA:761,0
DA:1124,8238
DA:1125,8238
DA:1129,8238
DA:1130,8238
DA:1169,0
DA:1184,0
DA:1185,0
DA:1187,0
DA:1188,0
DA:1189,0
DA:1388,0
DA:1389,0
end_of_record
SF:/usr/include/c++/9/bits/cpp_type_traits.h
FN:428,_ZSt12__miter_baseIP4MoveET_S2_
FNDA:0,_ZSt12__miter_baseIP4MoveET_S2_
FN:428,_ZSt12__miter_baseIN9__gnu_cxx17__normal_iteratorIPK4MoveSt6vectorIS2_SaIS2_EEEEET_S9_
FNDA:0,_ZSt12__miter_baseIN9__gnu_cxx17__normal_iteratorIPK4MoveSt6vectorIS2_SaIS2_EEEEET_S9_
FN:428,_ZSt12__miter_baseIP8PositionET_S2_
FNDA:0,_ZSt12__miter_baseIP8PositionET_S2_
FN:428,_ZSt12__miter_baseIN9__gnu_cxx17__normal_iteratorIPK8PositionSt6vectorIS2_SaIS2_EEEEET_S9_
FNDA:0,_ZSt12__miter_baseIN9__gnu_cxx17__normal_iteratorIPK8PositionSt6vectorIS2_SaIS2_EEEEET_S9_
DA:428,0
DA:429,0
DA:428,0
DA:429,0
DA:428,0
DA:429,0
DA:428,0
DA:429,0
end_of_record
SF:/usr/include/c++/9/bits/stl_pair.h
FN:303,_ZNSt4pairIKNSt7__cxx1112basic_stringIcSt11char_traitsIcESaIcEEE8PositionEC2ERKS8_
FNDA:0,_ZNSt4pairIKNSt7__cxx1112basic_stringIcSt11char_traitsIcESaIcEEE8PositionEC2ERKS8_
DA:303,0
end_of_record
SF:/usr/include/c++/9/bits/stl_map.h
FN:205,_ZNSt3mapI9PieceNamecSt4lessIS0_ESaISt4pairIKS0_cEEEC2ERKS7_
FNDA:0,_ZNSt3mapI9PieceNamecSt4lessIS0_ESaISt4pairIKS0_cEEEC2ERKS7_
FN:205,_ZNSt3mapINSt7__cxx1112basic_stringIcSt11char_traitsIcESaIcEEE8PositionSt4lessIS5_ESaISt4pairIKS5_S6_EEEC2ERKSD_
FNDA:0,_ZNSt3mapINSt7__cxx1112basic_stringIcSt11char_traitsIcESaIcEEE8PositionSt4lessIS5_ESaISt4pairIKS5_S6_EEEC2ERKSD_
FN:300,_ZNSt3mapINSt7__cxx1112basic_stringIcSt11char_traitsIcESaIcEEE8PositionSt4lessIS5_ESaISt4pairIKS5_S6_EEED2Ev
FNDA:0,_ZNSt3mapINSt7__cxx1112basic_stringIcSt11char_traitsIcESaIcEEE8PositionSt4lessIS5_ESaISt4pairIKS5_S6_EEED2Ev
FN:300,_ZNSt3mapI9PieceNamecSt4lessIS0_ESaISt4pairIKS0_cEEED2Ev
FNDA:0,_ZNSt3mapI9PieceNamecSt4lessIS0_ESaISt4pairIKS0_cEEED2Ev
DA:205,0
DA:205,0
DA:300,0
DA:300,0
end_of_record
SF:/usr/include/c++/9/bits/stl_iterator_base_funcs.h
FN:98,_ZSt10__distanceIPcENSt15iterator_traitsIT_E15difference_typeES2_S2_St26random_access_iterator_tag
FNDA:0,_ZSt10__distanceIPcENSt15iterator_traitsIT_E15difference_typeES2_S2_St26random_access_iterator_tag
FN:138,_ZSt8distanceIPcENSt15iterator_traitsIT_E15difference_typeES2_S2_
FNDA:0,_ZSt8distanceIPcENSt15iterator_traitsIT_E15difference_typeES2_S2_
DA:98,0
DA:104,0
DA:138,0
DA:141,0
DA:142,0
end_of_record
SF:/usr/include/c++/9/bits/vector.tcc
FN:198,_ZNSt6vectorI4MoveSaIS0_EEaSERKS2_
FNDA:0,_ZNSt6vectorI4MoveSaIS0_EEaSERKS2_
FN:198,_ZNSt6vectorI8PositionSaIS0_EEaSERKS2_
FNDA:0,_ZNSt6vectorI8PositionSaIS0_EEaSERKS2_
FN:426,_ZNSt6vectorI4MoveSaIS0_EE17_M_realloc_insertIJRKS0_EEEvN9__gnu_cxx17__normal_iteratorIPS0_S2_EEDpOT_
FNDA:690,_ZNSt6vectorI4MoveSaIS0_EE17_M_realloc_insertIJRKS0_EEEvN9__gnu_cxx17__normal_iteratorIPS0_S2_EEDpOT_
DA:198,0
DA:201,0
DA:205,0
DA:207,0
DA:208,0
DA:211,0
DA:212,0
DA:213,0
DA:214,0
DA:215,0
DA:216,0
DA:217,0
DA:219,0
DA:223,0
DA:224,0
DA:226,0
DA:228,0
DA:229,0
DA:230,0
DA:231,0
DA:232,0
DA:233,0
DA:234,0
DA:236,0
DA:238,0
DA:239,0
DA:243,0
DA:245,0
DA:246,0
DA:248,0
DA:250,0
DA:252,0
DA:198,0
DA:201,0
DA:205,0
DA:207,0
DA:208,0
DA:211,0
DA:212,0
DA:213,0
DA:214,0
DA:215,0
DA:216,0
DA:217,0
DA:219,0
DA:223,0
DA:224,0
DA:226,0
DA:228,0
DA:229,0
DA:230,0
DA:231,0
DA:232,0
DA:233,0
DA:234,0
DA:236,0
DA:238,0
DA:239,0
DA:243,0
DA:245,0
DA:246,0
DA:248,0
DA:250,0
DA:252,0
DA:426,690
DA:435,690
DA:437,690
DA:438,690
DA:439,690
DA:440,690
DA:441,690
DA:449,690
DA:450,690
DA:456,690
DA:459,690
DA:461,690
DA:462,690
DA:464,690
DA:466,690
DA:467,690
DA:474,0
DA:475,0
DA:477,0
DA:481,0
DA:482,0
DA:485,0
DA:487,0
DA:488,0
DA:489,0
DA:491,0
DA:492,0
DA:493,0
DA:496,690
DA:498,0
DA:500,690
DA:501,690
DA:502,690
DA:503,690
DA:504,690
DA:505,690
end_of_record
SF:/home/napiad/studia/eiti/mgr/sem1/zpr/checkers-webapp/checkers/src/Pawn.cc
FN:15,_ZN4PawnC2E8PositionbbR5Board
FNDA:235,_ZN4PawnC2E8PositionbbR5Board
FN:22,_ZNK4Pawn19cloneImplementationEv
FNDA:8238,_ZNK4Pawn19cloneImplementationEv
FN:26,_ZNK4Pawn12captureMovesERSt6vectorI4MoveSaIS1_EE5BoardS1_
FNDA:750,_ZNK4Pawn12captureMovesERSt6vectorI4MoveSaIS1_EE5BoardS1_
FN:68,_ZNK4Pawn15getCaptureMovesER5Board
FNDA:690,_ZNK4Pawn15getCaptureMovesER5Board
FN:77,_ZNK4Pawn18getNonCaptureMovesER5Board
FNDA:353,_ZNK4Pawn18getNonCaptureMovesER5Board
FN:110,_ZNK4Pawn5printERSo
FNDA:0,_ZNK4Pawn5printERSo
DA:15,235
DA:16,235
DA:17,111
DA:19,124
DA:20,235
DA:22,8238
DA:23,8238
DA:26,750
DA:27,750
DA:28,750
DA:30,1500
DA:31,1500
DA:32,750
DA:34,750
DA:35,3750
DA:36,3000
DA:37,3000
DA:38,2290
DA:39,128
DA:40,128
DA:41,69
DA:42,69
DA:44,69
DA:45,13
DA:46,69
DA:47,69
DA:48,9
DA:49,18
DA:50,9
DA:51,9
DA:52,9
DA:53,9
DA:55,60
DA:56,60
DA:57,60
DA:58,60
DA:63,750
DA:64,47
DA:66,750
DA:68,690
DA:69,690
DA:70,1380
DA:72,690
DA:74,1380
DA:77,353
DA:79,353
DA:81,353
DA:82,353
DA:83,210
DA:84,140
DA:85,140
DA:86,102
DA:87,51
DA:88,2
DA:90,51
DA:95,849
DA:96,566
DA:97,566
DA:98,364
DA:99,182
DA:100,2
DA:102,182
DA:107,706
DA:110,0
DA:111,0
DA:112,0
DA:113,0
end_of_record
SF:/usr/include/c++/9/iostream
end_of_record
SF:/usr/include/c++/9/bits/basic_string.tcc
FN:206,_ZNSt7__cxx1112basic_stringIcSt11char_traitsIcESaIcEE12_M_constructIPcEEvT_S7_St20forward_iterator_tag
FNDA:0,_ZNSt7__cxx1112basic_stringIcSt11char_traitsIcESaIcEE12_M_constructIPcEEvT_S7_St20forward_iterator_tag
DA:206,0
DA:211,0
DA:212,0
DA:215,0
DA:217,0
DA:219,0
DA:220,0
DA:225,0
DA:226,0
DA:228,0
DA:229,0
DA:232,0
DA:233,0
end_of_record
SF:/usr/include/c++/9/bits/stl_iterator.h
FN:806,_ZN9__gnu_cxx17__normal_iteratorIPK8PositionSt6vectorIS1_SaIS1_EEEC2ERKS3_
FNDA:0,_ZN9__gnu_cxx17__normal_iteratorIPK8PositionSt6vectorIS1_SaIS1_EEEC2ERKS3_
FN:806,_ZN9__gnu_cxx17__normal_iteratorIPK4MoveSt6vectorIS1_SaIS1_EEEC2ERKS3_
FNDA:0,_ZN9__gnu_cxx17__normal_iteratorIPK4MoveSt6vectorIS1_SaIS1_EEEC2ERKS3_
FN:806,_ZN9__gnu_cxx17__normal_iteratorIP8PositionSt6vectorIS1_SaIS1_EEEC2ERKS2_
FNDA:0,_ZN9__gnu_cxx17__normal_iteratorIP8PositionSt6vectorIS1_SaIS1_EEEC2ERKS2_
FN:806,_ZN9__gnu_cxx17__normal_iteratorIP4MoveSt6vectorIS1_SaIS1_EEEC2ERKS2_
FNDA:0,_ZN9__gnu_cxx17__normal_iteratorIP4MoveSt6vectorIS1_SaIS1_EEEC2ERKS2_
FN:819,_ZNK9__gnu_cxx17__normal_iteratorIP4MoveSt6vectorIS1_SaIS1_EEEdeEv
FNDA:0,_ZNK9__gnu_cxx17__normal_iteratorIP4MoveSt6vectorIS1_SaIS1_EEEdeEv
FN:819,_ZNK9__gnu_cxx17__normal_iteratorIPK8PositionSt6vectorIS1_SaIS1_EEEdeEv
FNDA:0,_ZNK9__gnu_cxx17__normal_iteratorIPK8PositionSt6vectorIS1_SaIS1_EEEdeEv
FN:819,_ZNK9__gnu_cxx17__normal_iteratorIPK4MoveSt6vectorIS1_SaIS1_EEEdeEv
FNDA:0,_ZNK9__gnu_cxx17__normal_iteratorIPK4MoveSt6vectorIS1_SaIS1_EEEdeEv
FN:827,_ZN9__gnu_cxx17__normal_iteratorIPK4MoveSt6vectorIS1_SaIS1_EEEppEv
FNDA:0,_ZN9__gnu_cxx17__normal_iteratorIPK4MoveSt6vectorIS1_SaIS1_EEEppEv
FN:827,_ZN9__gnu_cxx17__normal_iteratorIPK8PositionSt6vectorIS1_SaIS1_EEEppEv
FNDA:0,_ZN9__gnu_cxx17__normal_iteratorIPK8PositionSt6vectorIS1_SaIS1_EEEppEv
FN:827,_ZN9__gnu_cxx17__normal_iteratorIP4MoveSt6vectorIS1_SaIS1_EEEppEv
FNDA:0,_ZN9__gnu_cxx17__normal_iteratorIP4MoveSt6vectorIS1_SaIS1_EEEppEv
FN:859,_ZNK9__gnu_cxx17__normal_iteratorIP8PositionSt6vectorIS1_SaIS1_EEEplEl
FNDA:0,_ZNK9__gnu_cxx17__normal_iteratorIP8PositionSt6vectorIS1_SaIS1_EEEplEl
FN:859,_ZNK9__gnu_cxx17__normal_iteratorIP4MoveSt6vectorIS1_SaIS1_EEEplEl
FNDA:0,_ZNK9__gnu_cxx17__normal_iteratorIP4MoveSt6vectorIS1_SaIS1_EEEplEl
FN:871,_ZNK9__gnu_cxx17__normal_iteratorIPK4MoveSt6vectorIS1_SaIS1_EEE4baseEv
FNDA:0,_ZNK9__gnu_cxx17__normal_iteratorIPK4MoveSt6vectorIS1_SaIS1_EEE4baseEv
FN:871,_ZNK9__gnu_cxx17__normal_iteratorIP8PositionSt6vectorIS1_SaIS1_EEE4baseEv
FNDA:0,_ZNK9__gnu_cxx17__normal_iteratorIP8PositionSt6vectorIS1_SaIS1_EEE4baseEv
FN:871,_ZNK9__gnu_cxx17__normal_iteratorIPK8PositionSt6vectorIS1_SaIS1_EEE4baseEv
FNDA:0,_ZNK9__gnu_cxx17__normal_iteratorIPK8PositionSt6vectorIS1_SaIS1_EEE4baseEv
FN:871,_ZNK9__gnu_cxx17__normal_iteratorIP4MoveSt6vectorIS1_SaIS1_EEE4baseEv
FNDA:0,_ZNK9__gnu_cxx17__normal_iteratorIP4MoveSt6vectorIS1_SaIS1_EEE4baseEv
FN:907,_ZN9__gnu_cxxneIPK8PositionSt6vectorIS1_SaIS1_EEEEbRKNS_17__normal_iteratorIT_T0_EESC_
FNDA:0,_ZN9__gnu_cxxneIPK8PositionSt6vectorIS1_SaIS1_EEEEbRKNS_17__normal_iteratorIT_T0_EESC_
FN:907,_ZN9__gnu_cxxneIPK4MoveSt6vectorIS1_SaIS1_EEEEbRKNS_17__normal_iteratorIT_T0_EESC_
FNDA:0,_ZN9__gnu_cxxneIPK4MoveSt6vectorIS1_SaIS1_EEEEbRKNS_17__normal_iteratorIT_T0_EESC_
FN:907,_ZN9__gnu_cxxneIP4MoveSt6vectorIS1_SaIS1_EEEEbRKNS_17__normal_iteratorIT_T0_EESB_
FNDA:0,_ZN9__gnu_cxxneIP4MoveSt6vectorIS1_SaIS1_EEEEbRKNS_17__normal_iteratorIT_T0_EESB_
FN:989,_ZN9__gnu_cxxmiIP4MoveSt6vectorIS1_SaIS1_EEEENS_17__normal_iteratorIT_T0_E15difference_typeERKS9_SC_
FNDA:4458,_ZN9__gnu_cxxmiIP4MoveSt6vectorIS1_SaIS1_EEEENS_17__normal_iteratorIT_T0_E15difference_typeERKS9_SC_
FN:1010,_ZSt12__niter_baseIP4MoveSt6vectorIS0_SaIS0_EEET_N9__gnu_cxx17__normal_iteratorIS5_T0_EE
FNDA:0,_ZSt12__niter_baseIP4MoveSt6vectorIS0_SaIS0_EEET_N9__gnu_cxx17__normal_iteratorIS5_T0_EE
FN:1010,_ZSt12__niter_baseIPK4MoveSt6vectorIS0_SaIS0_EEET_N9__gnu_cxx17__normal_iteratorIS6_T0_EE
FNDA:0,_ZSt12__niter_baseIPK4MoveSt6vectorIS0_SaIS0_EEET_N9__gnu_cxx17__normal_iteratorIS6_T0_EE
FN:1010,_ZSt12__niter_baseIP8PositionSt6vectorIS0_SaIS0_EEET_N9__gnu_cxx17__normal_iteratorIS5_T0_EE
FNDA:0,_ZSt12__niter_baseIP8PositionSt6vectorIS0_SaIS0_EEET_N9__gnu_cxx17__normal_iteratorIS5_T0_EE
FN:1010,_ZSt12__niter_baseIPK8PositionSt6vectorIS0_SaIS0_EEET_N9__gnu_cxx17__normal_iteratorIS6_T0_EE
FNDA:0,_ZSt12__niter_baseIPK8PositionSt6vectorIS0_SaIS0_EEET_N9__gnu_cxx17__normal_iteratorIS6_T0_EE
FN:1057,_ZNSt13move_iteratorIP4MoveEC2ES1_
FNDA:0,_ZNSt13move_iteratorIP4MoveEC2ES1_
FN:1066,_ZNKSt13move_iteratorIP4MoveE4baseEv
FNDA:0,_ZNKSt13move_iteratorIP4MoveE4baseEv
FN:1070,_ZNKSt13move_iteratorIP4MoveEdeEv
FNDA:0,_ZNKSt13move_iteratorIP4MoveEdeEv
FN:1078,_ZNSt13move_iteratorIP4MoveEppEv
FNDA:0,_ZNSt13move_iteratorIP4MoveEppEv
FN:1145,_ZSteqIP4MoveEbRKSt13move_iteratorIT_ES6_
FNDA:0,_ZSteqIP4MoveEbRKSt13move_iteratorIT_ES6_
FN:1157,_ZStneIP4MoveEbRKSt13move_iteratorIT_ES6_
FNDA:0,_ZStneIP4MoveEbRKSt13move_iteratorIT_ES6_
FN:1242,_ZSt32__make_move_if_noexcept_iteratorI4MoveSt13move_iteratorIPS0_EET0_PT_
FNDA:0,_ZSt32__make_move_if_noexcept_iteratorI4MoveSt13move_iteratorIPS0_EET0_PT_
DA:806,0
DA:807,0
DA:806,0
DA:807,0
DA:806,0
DA:807,0
DA:806,0
DA:807,0
DA:819,0
DA:820,0
DA:819,0
DA:820,0
DA:819,0
DA:820,0
DA:827,0
DA:829,0
DA:830,0
DA:827,0
DA:829,0
DA:830,0
DA:827,0
DA:829,0
DA:830,0
DA:859,0
DA:860,0
DA:859,0
DA:860,0
DA:871,0
DA:872,0
DA:871,0
DA:872,0
DA:871,0
DA:872,0
DA:871,0
DA:872,0
DA:907,0
DA:910,0
DA:907,0
DA:910,0
DA:907,0
DA:910,0
DA:989,4458
DA:992,4458
DA:1010,0
DA:1012,0
DA:1010,0
DA:1012,0
DA:1010,0
DA:1012,0
DA:1010,0
DA:1012,0
DA:1057,0
DA:1058,0
DA:1066,0
DA:1067,0
DA:1070,0
DA:1071,0
DA:1078,0
DA:1080,0
DA:1081,0
DA:1145,0
DA:1147,0
DA:1157,0
DA:1159,0
DA:1242,0
DA:1243,0
end_of_record
SF:/usr/include/c++/9/bits/stl_tree.h
FN:112,_ZNSt18_Rb_tree_node_base10_S_minimumEPS_
FNDA:0,_ZNSt18_Rb_tree_node_base10_S_minimumEPS_
FN:126,_ZNSt18_Rb_tree_node_base10_S_maximumEPS_
FNDA:0,_ZNSt18_Rb_tree_node_base10_S_maximumEPS_
FN:152,_ZNSt20_Rb_tree_key_compareISt4lessI9PieceNameEEC2ERKS2_
FNDA:0,_ZNSt20_Rb_tree_key_compareISt4lessI9PieceNameEEC2ERKS2_
FN:152,_ZNSt20_Rb_tree_key_compareISt4lessINSt7__cxx1112basic_stringIcSt11char_traitsIcESaIcEEEEEC2ERKS7_
FNDA:0,_ZNSt20_Rb_tree_key_compareISt4lessINSt7__cxx1112basic_stringIcSt11char_traitsIcESaIcEEEEEC2ERKS7_
FN:173,_ZNSt15_Rb_tree_headerC2Ev
FNDA:0,_ZNSt15_Rb_tree_headerC2Ev
FN:206,_ZNSt15_Rb_tree_header8_M_resetEv
FNDA:0,_ZNSt15_Rb_tree_header8_M_resetEv
FN:234,_ZNSt13_Rb_tree_nodeISt4pairIK9PieceNamecEE9_M_valptrEv
FNDA:0,_ZNSt13_Rb_tree_nodeISt4pairIK9PieceNamecEE9_M_valptrEv
FN:234,_ZNSt13_Rb_tree_nodeISt4pairIKNSt7__cxx1112basic_stringIcSt11char_traitsIcESaIcEEE8PositionEE9_M_valptrEv
FNDA:0,_ZNSt13_Rb_tree_nodeISt4pairIKNSt7__cxx1112basic_stringIcSt11char_traitsIcESaIcEEE8PositionEE9_M_valptrEv
FN:238,_ZNKSt13_Rb_tree_nodeISt4pairIKNSt7__cxx1112basic_stringIcSt11char_traitsIcESaIcEEE8PositionEE9_M_valptrEv
FNDA:0,_ZNKSt13_Rb_tree_nodeISt4pairIKNSt7__cxx1112basic_stringIcSt11char_traitsIcESaIcEEE8PositionEE9_M_valptrEv
FN:238,_ZNKSt13_Rb_tree_nodeISt4pairIK9PieceNamecEE9_M_valptrEv
FNDA:0,_ZNKSt13_Rb_tree_nodeISt4pairIK9PieceNamecEE9_M_valptrEv
FN:538,_ZNSt8_Rb_treeI9PieceNameSt4pairIKS0_cESt10_Select1stIS3_ESt4lessIS0_ESaIS3_EE11_Alloc_nodeC2ERS9_
FNDA:0,_ZNSt8_Rb_treeI9PieceNameSt4pairIKS0_cESt10_Select1stIS3_ESt4lessIS0_ESaIS3_EE11_Alloc_nodeC2ERS9_
FN:538,_ZNSt8_Rb_treeINSt7__cxx1112basic_stringIcSt11char_traitsIcESaIcEEESt4pairIKS5_8PositionESt10_Select1stIS9_ESt4lessIS5_ESaIS9_EE11_Alloc_nodeC2ERSF_
FNDA:0,_ZNSt8_Rb_treeINSt7__cxx1112basic_stringIcSt11char_traitsIcESaIcEEESt4pairIKS5_8PositionESt10_Select1stIS9_ESt4lessIS5_ESaIS9_EE11_Alloc_nodeC2ERSF_
FN:546,_ZNKSt8_Rb_treeINSt7__cxx1112basic_stringIcSt11char_traitsIcESaIcEEESt4pairIKS5_8PositionESt10_Select1stIS9_ESt4lessIS5_ESaIS9_EE11_Alloc_nodeclIRKS9_EEPSt13_Rb_tree_nodeIS9_EOT_
FNDA:0,_ZNKSt8_Rb_treeINSt7__cxx1112basic_stringIcSt11char_traitsIcESaIcEEESt4pairIKS5_8PositionESt10_Select1stIS9_ESt4lessIS5_ESaIS9_EE11_Alloc_nodeclIRKS9_EEPSt13_Rb_tree_nodeIS9_EOT_
FN:546,_ZNKSt8_Rb_treeI9PieceNameSt4pairIKS0_cESt10_Select1stIS3_ESt4lessIS0_ESaIS3_EE11_Alloc_nodeclIRKS3_EEPSt13_Rb_tree_nodeIS3_EOT_
FNDA:0,_ZNKSt8_Rb_treeI9PieceNameSt4pairIKS0_cESt10_Select1stIS3_ESt4lessIS0_ESaIS3_EE11_Alloc_nodeclIRKS3_EEPSt13_Rb_tree_nodeIS3_EOT_
FN:566,_ZNSt8_Rb_treeINSt7__cxx1112basic_stringIcSt11char_traitsIcESaIcEEESt4pairIKS5_8PositionESt10_Select1stIS9_ESt4lessIS5_ESaIS9_EE21_M_get_Node_allocatorEv
FNDA:0,_ZNSt8_Rb_treeINSt7__cxx1112basic_stringIcSt11char_traitsIcESaIcEEESt4pairIKS5_8PositionESt10_Select1stIS9_ESt4lessIS5_ESaIS9_EE21_M_get_Node_allocatorEv
FN:566,_ZNSt8_Rb_treeI9PieceNameSt4pairIKS0_cESt10_Select1stIS3_ESt4lessIS0_ESaIS3_EE21_M_get_Node_allocatorEv
FNDA:0,_ZNSt8_Rb_treeI9PieceNameSt4pairIKS0_cESt10_Select1stIS3_ESt4lessIS0_ESaIS3_EE21_M_get_Node_allocatorEv
FN:579,_ZNSt8_Rb_treeINSt7__cxx1112basic_stringIcSt11char_traitsIcESaIcEEESt4pairIKS5_8PositionESt10_Select1stIS9_ESt4lessIS5_ESaIS9_EE11_M_get_nodeEv
FNDA:0,_ZNSt8_Rb_treeINSt7__cxx1112basic_stringIcSt11char_traitsIcESaIcEEESt4pairIKS5_8PositionESt10_Select1stIS9_ESt4lessIS5_ESaIS9_EE11_M_get_nodeEv
FN:579,_ZNSt8_Rb_treeI9PieceNameSt4pairIKS0_cESt10_Select1stIS3_ESt4lessIS0_ESaIS3_EE11_M_get_nodeEv
FNDA:0,_ZNSt8_Rb_treeI9PieceNameSt4pairIKS0_cESt10_Select1stIS3_ESt4lessIS0_ESaIS3_EE11_M_get_nodeEv
FN:583,_ZNSt8_Rb_treeI9PieceNameSt4pairIKS0_cESt10_Select1stIS3_ESt4lessIS0_ESaIS3_EE11_M_put_nodeEPSt13_Rb_tree_nodeIS3_E
FNDA:0,_ZNSt8_Rb_treeI9PieceNameSt4pairIKS0_cESt10_Select1stIS3_ESt4lessIS0_ESaIS3_EE11_M_put_nodeEPSt13_Rb_tree_nodeIS3_E
FN:583,_ZNSt8_Rb_treeINSt7__cxx1112basic_stringIcSt11char_traitsIcESaIcEEESt4pairIKS5_8PositionESt10_Select1stIS9_ESt4lessIS5_ESaIS9_EE11_M_put_nodeEPSt13_Rb_tree_nodeIS9_E
FNDA:0,_ZNSt8_Rb_treeINSt7__cxx1112basic_stringIcSt11char_traitsIcESaIcEEESt4pairIKS5_8PositionESt10_Select1stIS9_ESt4lessIS5_ESaIS9_EE11_M_put_nodeEPSt13_Rb_tree_nodeIS9_E
FN:609,_ZNSt8_Rb_treeINSt7__cxx1112basic_stringIcSt11char_traitsIcESaIcEEESt4pairIKS5_8PositionESt10_Select1stIS9_ESt4lessIS5_ESaIS9_EE17_M_construct_nodeIJRKS9_EEEvPSt13_Rb_tree_nodeIS9_EDpOT_
FNDA:0,_ZNSt8_Rb_treeINSt7__cxx1112basic_stringIcSt11char_traitsIcESaIcEEESt4pairIKS5_8PositionESt10_Select1stIS9_ESt4lessIS5_ESaIS9_EE17_M_construct_nodeIJRKS9_EEEvPSt13_Rb_tree_nodeIS9_EDpOT_
FN:609,_ZNSt8_Rb_treeI9PieceNameSt4pairIKS0_cESt10_Select1stIS3_ESt4lessIS0_ESaIS3_EE17_M_construct_nodeIJRKS3_EEEvPSt13_Rb_tree_nodeIS3_EDpOT_
FNDA:0,_ZNSt8_Rb_treeI9PieceNameSt4pairIKS0_cESt10_Select1stIS3_ESt4lessIS0_ESaIS3_EE17_M_construct_nodeIJRKS3_EEEvPSt13_Rb_tree_nodeIS3_EDpOT_
FN:628,_ZNSt8_Rb_treeINSt7__cxx1112basic_stringIcSt11char_traitsIcESaIcEEESt4pairIKS5_8PositionESt10_Select1stIS9_ESt4lessIS5_ESaIS9_EE14_M_create_nodeIJRKS9_EEEPSt13_Rb_tree_nodeIS9_EDpOT_
FNDA:0,_ZNSt8_Rb_treeINSt7__cxx1112basic_stringIcSt11char_traitsIcESaIcEEESt4pairIKS5_8PositionESt10_Select1stIS9_ESt4lessIS5_ESaIS9_EE14_M_create_nodeIJRKS9_EEEPSt13_Rb_tree_nodeIS9_EDpOT_
FN:628,_ZNSt8_Rb_treeI9PieceNameSt4pairIKS0_cESt10_Select1stIS3_ESt4lessIS0_ESaIS3_EE14_M_create_nodeIJRKS3_EEEPSt13_Rb_tree_nodeIS3_EDpOT_
FNDA:0,_ZNSt8_Rb_treeI9PieceNameSt4pairIKS0_cESt10_Select1stIS3_ESt4lessIS0_ESaIS3_EE14_M_create_nodeIJRKS3_EEEPSt13_Rb_tree_nodeIS3_EDpOT_
FN:637,_ZNSt8_Rb_treeI9PieceNameSt4pairIKS0_cESt10_Select1stIS3_ESt4lessIS0_ESaIS3_EE15_M_destroy_nodeEPSt13_Rb_tree_nodeIS3_E
FNDA:0,_ZNSt8_Rb_treeI9PieceNameSt4pairIKS0_cESt10_Select1stIS3_ESt4lessIS0_ESaIS3_EE15_M_destroy_nodeEPSt13_Rb_tree_nodeIS3_E
FN:637,_ZNSt8_Rb_treeINSt7__cxx1112basic_stringIcSt11char_traitsIcESaIcEEESt4pairIKS5_8PositionESt10_Select1stIS9_ESt4lessIS5_ESaIS9_EE15_M_destroy_nodeEPSt13_Rb_tree_nodeIS9_E
FNDA:0,_ZNSt8_Rb_treeINSt7__cxx1112basic_stringIcSt11char_traitsIcESaIcEEESt4pairIKS5_8PositionESt10_Select1stIS9_ESt4lessIS5_ESaIS9_EE15_M_destroy_nodeEPSt13_Rb_tree_nodeIS9_E
FN:648,_ZNSt8_Rb_treeI9PieceNameSt4pairIKS0_cESt10_Select1stIS3_ESt4lessIS0_ESaIS3_EE12_M_drop_nodeEPSt13_Rb_tree_nodeIS3_E
FNDA:0,_ZNSt8_Rb_treeI9PieceNameSt4pairIKS0_cESt10_Select1stIS3_ESt4lessIS0_ESaIS3_EE12_M_drop_nodeEPSt13_Rb_tree_nodeIS3_E
FN:648,_ZNSt8_Rb_treeINSt7__cxx1112basic_stringIcSt11char_traitsIcESaIcEEESt4pairIKS5_8PositionESt10_Select1stIS9_ESt4lessIS5_ESaIS9_EE12_M_drop_nodeEPSt13_Rb_tree_nodeIS9_E
FNDA:0,_ZNSt8_Rb_treeINSt7__cxx1112basic_stringIcSt11char_traitsIcESaIcEEESt4pairIKS5_8PositionESt10_Select1stIS9_ESt4lessIS5_ESaIS9_EE12_M_drop_nodeEPSt13_Rb_tree_nodeIS9_E
FN:656,_ZNSt8_Rb_treeINSt7__cxx1112basic_stringIcSt11char_traitsIcESaIcEEESt4pairIKS5_8PositionESt10_Select1stIS9_ESt4lessIS5_ESaIS9_EE13_M_clone_nodeINSF_11_Alloc_nodeEEEPSt13_Rb_tree_nodeIS9_EPKSJ_RT_
FNDA:0,_ZNSt8_Rb_treeINSt7__cxx1112basic_stringIcSt11char_traitsIcESaIcEEESt4pairIKS5_8PositionESt10_Select1stIS9_ESt4lessIS5_ESaIS9_EE13_M_clone_nodeINSF_11_Alloc_nodeEEEPSt13_Rb_tree_nodeIS9_EPKSJ_RT_
FN:656,_ZNSt8_Rb_treeI9PieceNameSt4pairIKS0_cESt10_Select1stIS3_ESt4lessIS0_ESaIS3_EE13_M_clone_nodeINS9_11_Alloc_nodeEEEPSt13_Rb_tree_nodeIS3_EPKSD_RT_
FNDA:0,_ZNSt8_Rb_treeI9PieceNameSt4pairIKS0_cESt10_Select1stIS3_ESt4lessIS0_ESaIS3_EE13_M_clone_nodeINS9_11_Alloc_nodeEEEPSt13_Rb_tree_nodeIS3_EPKSD_RT_
FN:687,_ZNSt8_Rb_treeI9PieceNameSt4pairIKS0_cESt10_Select1stIS3_ESt4lessIS0_ESaIS3_EE13_Rb_tree_implIS7_Lb1EEC2ERKSB_
FNDA:0,_ZNSt8_Rb_treeI9PieceNameSt4pairIKS0_cESt10_Select1stIS3_ESt4lessIS0_ESaIS3_EE13_Rb_tree_implIS7_Lb1EEC2ERKSB_
FN:687,_ZNSt8_Rb_treeINSt7__cxx1112basic_stringIcSt11char_traitsIcESaIcEEESt4pairIKS5_8PositionESt10_Select1stIS9_ESt4lessIS5_ESaIS9_EE13_Rb_tree_implISD_Lb1EEC2ERKSH_
FNDA:0,_ZNSt8_Rb_treeINSt7__cxx1112basic_stringIcSt11char_traitsIcESaIcEEESt4pairIKS5_8PositionESt10_Select1stIS9_ESt4lessIS5_ESaIS9_EE13_Rb_tree_implISD_Lb1EEC2ERKSH_
FN:720,_ZNSt8_Rb_treeINSt7__cxx1112basic_stringIcSt11char_traitsIcESaIcEEESt4pairIKS5_8PositionESt10_Select1stIS9_ESt4lessIS5_ESaIS9_EE7_M_rootEv
FNDA:0,_ZNSt8_Rb_treeINSt7__cxx1112basic_stringIcSt11char_traitsIcESaIcEEESt4pairIKS5_8PositionESt10_Select1stIS9_ESt4lessIS5_ESaIS9_EE7_M_rootEv
FN:720,_ZNSt8_Rb_treeI9PieceNameSt4pairIKS0_cESt10_Select1stIS3_ESt4lessIS0_ESaIS3_EE7_M_rootEv
FNDA:0,_ZNSt8_Rb_treeI9PieceNameSt4pairIKS0_cESt10_Select1stIS3_ESt4lessIS0_ESaIS3_EE7_M_rootEv
FN:724,_ZNKSt8_Rb_treeINSt7__cxx1112basic_stringIcSt11char_traitsIcESaIcEEESt4pairIKS5_8PositionESt10_Select1stIS9_ESt4lessIS5_ESaIS9_EE7_M_rootEv
FNDA:0,_ZNKSt8_Rb_treeINSt7__cxx1112basic_stringIcSt11char_traitsIcESaIcEEESt4pairIKS5_8PositionESt10_Select1stIS9_ESt4lessIS5_ESaIS9_EE7_M_rootEv
FN:724,_ZNKSt8_Rb_treeI9PieceNameSt4pairIKS0_cESt10_Select1stIS3_ESt4lessIS0_ESaIS3_EE7_M_rootEv
FNDA:0,_ZNKSt8_Rb_treeI9PieceNameSt4pairIKS0_cESt10_Select1stIS3_ESt4lessIS0_ESaIS3_EE7_M_rootEv
FN:728,_ZNSt8_Rb_treeINSt7__cxx1112basic_stringIcSt11char_traitsIcESaIcEEESt4pairIKS5_8PositionESt10_Select1stIS9_ESt4lessIS5_ESaIS9_EE11_M_leftmostEv
FNDA:0,_ZNSt8_Rb_treeINSt7__cxx1112basic_stringIcSt11char_traitsIcESaIcEEESt4pairIKS5_8PositionESt10_Select1stIS9_ESt4lessIS5_ESaIS9_EE11_M_leftmostEv
FN:728,_ZNSt8_Rb_treeI9PieceNameSt4pairIKS0_cESt10_Select1stIS3_ESt4lessIS0_ESaIS3_EE11_M_leftmostEv
FNDA:0,_ZNSt8_Rb_treeI9PieceNameSt4pairIKS0_cESt10_Select1stIS3_ESt4lessIS0_ESaIS3_EE11_M_leftmostEv
FN:736,_ZNSt8_Rb_treeINSt7__cxx1112basic_stringIcSt11char_traitsIcESaIcEEESt4pairIKS5_8PositionESt10_Select1stIS9_ESt4lessIS5_ESaIS9_EE12_M_rightmostEv
FNDA:0,_ZNSt8_Rb_treeINSt7__cxx1112basic_stringIcSt11char_traitsIcESaIcEEESt4pairIKS5_8PositionESt10_Select1stIS9_ESt4lessIS5_ESaIS9_EE12_M_rightmostEv
FN:736,_ZNSt8_Rb_treeI9PieceNameSt4pairIKS0_cESt10_Select1stIS3_ESt4lessIS0_ESaIS3_EE12_M_rightmostEv
FNDA:0,_ZNSt8_Rb_treeI9PieceNameSt4pairIKS0_cESt10_Select1stIS3_ESt4lessIS0_ESaIS3_EE12_M_rightmostEv
FN:744,_ZNSt8_Rb_treeI9PieceNameSt4pairIKS0_cESt10_Select1stIS3_ESt4lessIS0_ESaIS3_EE8_M_beginEv
FNDA:0,_ZNSt8_Rb_treeI9PieceNameSt4pairIKS0_cESt10_Select1stIS3_ESt4lessIS0_ESaIS3_EE8_M_beginEv
FN:744,_ZNSt8_Rb_treeINSt7__cxx1112basic_stringIcSt11char_traitsIcESaIcEEESt4pairIKS5_8PositionESt10_Select1stIS9_ESt4lessIS5_ESaIS9_EE8_M_beginEv
FNDA:0,_ZNSt8_Rb_treeINSt7__cxx1112basic_stringIcSt11char_traitsIcESaIcEEESt4pairIKS5_8PositionESt10_Select1stIS9_ESt4lessIS5_ESaIS9_EE8_M_beginEv
FN:748,_ZNKSt8_Rb_treeINSt7__cxx1112basic_stringIcSt11char_traitsIcESaIcEEESt4pairIKS5_8PositionESt10_Select1stIS9_ESt4lessIS5_ESaIS9_EE8_M_beginEv
FNDA:0,_ZNKSt8_Rb_treeINSt7__cxx1112basic_stringIcSt11char_traitsIcESaIcEEESt4pairIKS5_8PositionESt10_Select1stIS9_ESt4lessIS5_ESaIS9_EE8_M_beginEv
FN:748,_ZNKSt8_Rb_treeI9PieceNameSt4pairIKS0_cESt10_Select1stIS3_ESt4lessIS0_ESaIS3_EE8_M_beginEv
FNDA:0,_ZNKSt8_Rb_treeI9PieceNameSt4pairIKS0_cESt10_Select1stIS3_ESt4lessIS0_ESaIS3_EE8_M_beginEv
FN:755,_ZNSt8_Rb_treeINSt7__cxx1112basic_stringIcSt11char_traitsIcESaIcEEESt4pairIKS5_8PositionESt10_Select1stIS9_ESt4lessIS5_ESaIS9_EE6_M_endEv
FNDA:0,_ZNSt8_Rb_treeINSt7__cxx1112basic_stringIcSt11char_traitsIcESaIcEEESt4pairIKS5_8PositionESt10_Select1stIS9_ESt4lessIS5_ESaIS9_EE6_M_endEv
FN:755,_ZNSt8_Rb_treeI9PieceNameSt4pairIKS0_cESt10_Select1stIS3_ESt4lessIS0_ESaIS3_EE6_M_endEv
FNDA:0,_ZNSt8_Rb_treeI9PieceNameSt4pairIKS0_cESt10_Select1stIS3_ESt4lessIS0_ESaIS3_EE6_M_endEv
FN:789,_ZNSt8_Rb_treeI9PieceNameSt4pairIKS0_cESt10_Select1stIS3_ESt4lessIS0_ESaIS3_EE7_S_leftEPSt18_Rb_tree_node_base
FNDA:0,_ZNSt8_Rb_treeI9PieceNameSt4pairIKS0_cESt10_Select1stIS3_ESt4lessIS0_ESaIS3_EE7_S_leftEPSt18_Rb_tree_node_base
FN:789,_ZNSt8_Rb_treeINSt7__cxx1112basic_stringIcSt11char_traitsIcESaIcEEESt4pairIKS5_8PositionESt10_Select1stIS9_ESt4lessIS5_ESaIS9_EE7_S_leftEPSt18_Rb_tree_node_base
FNDA:0,_ZNSt8_Rb_treeINSt7__cxx1112basic_stringIcSt11char_traitsIcESaIcEEESt4pairIKS5_8PositionESt10_Select1stIS9_ESt4lessIS5_ESaIS9_EE7_S_leftEPSt18_Rb_tree_node_base
FN:793,_ZNSt8_Rb_treeI9PieceNameSt4pairIKS0_cESt10_Select1stIS3_ESt4lessIS0_ESaIS3_EE7_S_leftEPKSt18_Rb_tree_node_base
FNDA:0,_ZNSt8_Rb_treeI9PieceNameSt4pairIKS0_cESt10_Select1stIS3_ESt4lessIS0_ESaIS3_EE7_S_leftEPKSt18_Rb_tree_node_base
FN:793,_ZNSt8_Rb_treeINSt7__cxx1112basic_stringIcSt11char_traitsIcESaIcEEESt4pairIKS5_8PositionESt10_Select1stIS9_ESt4lessIS5_ESaIS9_EE7_S_leftEPKSt18_Rb_tree_node_base
FNDA:0,_ZNSt8_Rb_treeINSt7__cxx1112basic_stringIcSt11char_traitsIcESaIcEEESt4pairIKS5_8PositionESt10_Select1stIS9_ESt4lessIS5_ESaIS9_EE7_S_leftEPKSt18_Rb_tree_node_base
FN:797,_ZNSt8_Rb_treeI9PieceNameSt4pairIKS0_cESt10_Select1stIS3_ESt4lessIS0_ESaIS3_EE8_S_rightEPSt18_Rb_tree_node_base
FNDA:0,_ZNSt8_Rb_treeI9PieceNameSt4pairIKS0_cESt10_Select1stIS3_ESt4lessIS0_ESaIS3_EE8_S_rightEPSt18_Rb_tree_node_base
FN:797,_ZNSt8_Rb_treeINSt7__cxx1112basic_stringIcSt11char_traitsIcESaIcEEESt4pairIKS5_8PositionESt10_Select1stIS9_ESt4lessIS5_ESaIS9_EE8_S_rightEPSt18_Rb_tree_node_base
FNDA:0,_ZNSt8_Rb_treeINSt7__cxx1112basic_stringIcSt11char_traitsIcESaIcEEESt4pairIKS5_8PositionESt10_Select1stIS9_ESt4lessIS5_ESaIS9_EE8_S_rightEPSt18_Rb_tree_node_base
FN:801,_ZNSt8_Rb_treeINSt7__cxx1112basic_stringIcSt11char_traitsIcESaIcEEESt4pairIKS5_8PositionESt10_Select1stIS9_ESt4lessIS5_ESaIS9_EE8_S_rightEPKSt18_Rb_tree_node_base
FNDA:0,_ZNSt8_Rb_treeINSt7__cxx1112basic_stringIcSt11char_traitsIcESaIcEEESt4pairIKS5_8PositionESt10_Select1stIS9_ESt4lessIS5_ESaIS9_EE8_S_rightEPKSt18_Rb_tree_node_base
FN:801,_ZNSt8_Rb_treeI9PieceNameSt4pairIKS0_cESt10_Select1stIS3_ESt4lessIS0_ESaIS3_EE8_S_rightEPKSt18_Rb_tree_node_base
FNDA:0,_ZNSt8_Rb_treeI9PieceNameSt4pairIKS0_cESt10_Select1stIS3_ESt4lessIS0_ESaIS3_EE8_S_rightEPKSt18_Rb_tree_node_base
FN:813,_ZNSt8_Rb_treeI9PieceNameSt4pairIKS0_cESt10_Select1stIS3_ESt4lessIS0_ESaIS3_EE10_S_minimumEPSt18_Rb_tree_node_base
FNDA:0,_ZNSt8_Rb_treeI9PieceNameSt4pairIKS0_cESt10_Select1stIS3_ESt4lessIS0_ESaIS3_EE10_S_minimumEPSt18_Rb_tree_node_base
FN:813,_ZNSt8_Rb_treeINSt7__cxx1112basic_stringIcSt11char_traitsIcESaIcEEESt4pairIKS5_8PositionESt10_Select1stIS9_ESt4lessIS5_ESaIS9_EE10_S_minimumEPSt18_Rb_tree_node_base
FNDA:0,_ZNSt8_Rb_treeINSt7__cxx1112basic_stringIcSt11char_traitsIcESaIcEEESt4pairIKS5_8PositionESt10_Select1stIS9_ESt4lessIS5_ESaIS9_EE10_S_minimumEPSt18_Rb_tree_node_base
FN:821,_ZNSt8_Rb_treeI9PieceNameSt4pairIKS0_cESt10_Select1stIS3_ESt4lessIS0_ESaIS3_EE10_S_maximumEPSt18_Rb_tree_node_base
FNDA:0,_ZNSt8_Rb_treeI9PieceNameSt4pairIKS0_cESt10_Select1stIS3_ESt4lessIS0_ESaIS3_EE10_S_maximumEPSt18_Rb_tree_node_base
FN:821,_ZNSt8_Rb_treeINSt7__cxx1112basic_stringIcSt11char_traitsIcESaIcEEESt4pairIKS5_8PositionESt10_Select1stIS9_ESt4lessIS5_ESaIS9_EE10_S_maximumEPSt18_Rb_tree_node_base
FNDA:0,_ZNSt8_Rb_treeINSt7__cxx1112basic_stringIcSt11char_traitsIcESaIcEEESt4pairIKS5_8PositionESt10_Select1stIS9_ESt4lessIS5_ESaIS9_EE10_S_maximumEPSt18_Rb_tree_node_base
FN:899,_ZNSt8_Rb_treeI9PieceNameSt4pairIKS0_cESt10_Select1stIS3_ESt4lessIS0_ESaIS3_EE7_M_copyINS9_11_Alloc_nodeEEEPSt13_Rb_tree_nodeIS3_ERKS9_RT_
FNDA:0,_ZNSt8_Rb_treeI9PieceNameSt4pairIKS0_cESt10_Select1stIS3_ESt4lessIS0_ESaIS3_EE7_M_copyINS9_11_Alloc_nodeEEEPSt13_Rb_tree_nodeIS3_ERKS9_RT_
FN:899,_ZNSt8_Rb_treeINSt7__cxx1112basic_stringIcSt11char_traitsIcESaIcEEESt4pairIKS5_8PositionESt10_Select1stIS9_ESt4lessIS5_ESaIS9_EE7_M_copyINSF_11_Alloc_nodeEEEPSt13_Rb_tree_nodeIS9_ERKSF_RT_
FNDA:0,_ZNSt8_Rb_treeINSt7__cxx1112basic_stringIcSt11char_traitsIcESaIcEEESt4pairIKS5_8PositionESt10_Select1stIS9_ESt4lessIS5_ESaIS9_EE7_M_copyINSF_11_Alloc_nodeEEEPSt13_Rb_tree_nodeIS9_ERKSF_RT_
FN:909,_ZNSt8_Rb_treeINSt7__cxx1112basic_stringIcSt11char_traitsIcESaIcEEESt4pairIKS5_8PositionESt10_Select1stIS9_ESt4lessIS5_ESaIS9_EE7_M_copyERKSF_
FNDA:0,_ZNSt8_Rb_treeINSt7__cxx1112basic_stringIcSt11char_traitsIcESaIcEEESt4pairIKS5_8PositionESt10_Select1stIS9_ESt4lessIS5_ESaIS9_EE7_M_copyERKSF_
FN:909,_ZNSt8_Rb_treeI9PieceNameSt4pairIKS0_cESt10_Select1stIS3_ESt4lessIS0_ESaIS3_EE7_M_copyERKS9_
FNDA:0,_ZNSt8_Rb_treeI9PieceNameSt4pairIKS0_cESt10_Select1stIS3_ESt4lessIS0_ESaIS3_EE7_M_copyERKS9_
FN:946,_ZNSt8_Rb_treeI9PieceNameSt4pairIKS0_cESt10_Select1stIS3_ESt4lessIS0_ESaIS3_EEC2ERKS9_
FNDA:0,_ZNSt8_Rb_treeI9PieceNameSt4pairIKS0_cESt10_Select1stIS3_ESt4lessIS0_ESaIS3_EEC2ERKS9_
FN:946,_ZNSt8_Rb_treeINSt7__cxx1112basic_stringIcSt11char_traitsIcESaIcEEESt4pairIKS5_8PositionESt10_Select1stIS9_ESt4lessIS5_ESaIS9_EEC2ERKSF_
FNDA:0,_ZNSt8_Rb_treeINSt7__cxx1112basic_stringIcSt11char_traitsIcESaIcEEESt4pairIKS5_8PositionESt10_Select1stIS9_ESt4lessIS5_ESaIS9_EEC2ERKSF_
FN:994,_ZNSt8_Rb_treeINSt7__cxx1112basic_stringIcSt11char_traitsIcESaIcEEESt4pairIKS5_8PositionESt10_Select1stIS9_ESt4lessIS5_ESaIS9_EED2Ev
FNDA:0,_ZNSt8_Rb_treeINSt7__cxx1112basic_stringIcSt11char_traitsIcESaIcEEESt4pairIKS5_8PositionESt10_Select1stIS9_ESt4lessIS5_ESaIS9_EED2Ev
FN:994,_ZNSt8_Rb_treeI9PieceNameSt4pairIKS0_cESt10_Select1stIS3_ESt4lessIS0_ESaIS3_EED2Ev
FNDA:0,_ZNSt8_Rb_treeI9PieceNameSt4pairIKS0_cESt10_Select1stIS3_ESt4lessIS0_ESaIS3_EED2Ev
FN:1871,_ZNSt8_Rb_treeINSt7__cxx1112basic_stringIcSt11char_traitsIcESaIcEEESt4pairIKS5_8PositionESt10_Select1stIS9_ESt4lessIS5_ESaIS9_EE7_M_copyINSF_11_Alloc_nodeEEEPSt13_Rb_tree_nodeIS9_EPKSJ_PSt18_Rb_tree_node_baseRT_
FNDA:0,_ZNSt8_Rb_treeINSt7__cxx1112basic_stringIcSt11char_traitsIcESaIcEEESt4pairIKS5_8PositionESt10_Select1stIS9_ESt4lessIS5_ESaIS9_EE7_M_copyINSF_11_Alloc_nodeEEEPSt13_Rb_tree_nodeIS9_EPKSJ_PSt18_Rb_tree_node_baseRT_
FN:1871,_ZNSt8_Rb_treeI9PieceNameSt4pairIKS0_cESt10_Select1stIS3_ESt4lessIS0_ESaIS3_EE7_M_copyINS9_11_Alloc_nodeEEEPSt13_Rb_tree_nodeIS3_EPKSD_PSt18_Rb_tree_node_baseRT_
FNDA:0,_ZNSt8_Rb_treeI9PieceNameSt4pairIKS0_cESt10_Select1stIS3_ESt4lessIS0_ESaIS3_EE7_M_copyINS9_11_Alloc_nodeEEEPSt13_Rb_tree_nodeIS3_EPKSD_PSt18_Rb_tree_node_baseRT_
FN:1907,_ZNSt8_Rb_treeI9PieceNameSt4pairIKS0_cESt10_Select1stIS3_ESt4lessIS0_ESaIS3_EE8_M_eraseEPSt13_Rb_tree_nodeIS3_E
FNDA:0,_ZNSt8_Rb_treeI9PieceNameSt4pairIKS0_cESt10_Select1stIS3_ESt4lessIS0_ESaIS3_EE8_M_eraseEPSt13_Rb_tree_nodeIS3_E
FN:1907,_ZNSt8_Rb_treeINSt7__cxx1112basic_stringIcSt11char_traitsIcESaIcEEESt4pairIKS5_8PositionESt10_Select1stIS9_ESt4lessIS5_ESaIS9_EE8_M_eraseEPSt13_Rb_tree_nodeIS9_E
FNDA:0,_ZNSt8_Rb_treeINSt7__cxx1112basic_stringIcSt11char_traitsIcESaIcEEESt4pairIKS5_8PositionESt10_Select1stIS9_ESt4lessIS5_ESaIS9_EE8_M_eraseEPSt13_Rb_tree_nodeIS9_E
DA:112,0
DA:114,0
DA:115,0
DA:126,0
DA:128,0
DA:129,0
DA:152,0
DA:154,0
DA:152,0
DA:154,0
DA:173,0
DA:174,0
DA:175,0
DA:176,0
DA:177,0
DA:206,0
DA:208,0
DA:209,0
DA:210,0
DA:211,0
DA:212,0
DA:234,0
DA:235,0
DA:234,0
DA:235,0
DA:238,0
DA:239,0
DA:238,0
DA:239,0
DA:538,0
DA:539,0
DA:538,0
DA:539,0
DA:546,0
DA:548,0
DA:546,0
DA:548,0
DA:566,0
DA:567,0
DA:566,0
DA:567,0
DA:579,0
DA:580,0
DA:579,0
DA:580,0
DA:583,0
DA:584,0
DA:583,0
DA:584,0
DA:609,0
DA:613,0
DA:614,0
DA:618,0
DA:620,0
DA:621,0
DA:622,0
DA:624,0
DA:609,0
DA:613,0
DA:614,0
DA:624,0
DA:628,0
DA:630,0
DA:631,0
DA:632,0
DA:628,0
DA:630,0
DA:631,0
DA:632,0
DA:637,0
DA:642,0
DA:643,0
DA:645,0
DA:637,0
DA:642,0
DA:643,0
DA:645,0
DA:648,0
DA:650,0
DA:651,0
DA:652,0
DA:648,0
DA:650,0
DA:651,0
DA:652,0
DA:656,0
DA:658,0
DA:659,0
DA:660,0
DA:661,0
DA:662,0
DA:656,0
DA:658,0
DA:659,0
DA:660,0
DA:661,0
DA:662,0
DA:687,0
DA:689,0
DA:690,0
DA:687,0
DA:689,0
DA:690,0
DA:720,0
DA:721,0
DA:720,0
DA:721,0
DA:724,0
DA:725,0
DA:724,0
DA:725,0
DA:728,0
DA:729,0
DA:728,0
DA:729,0
DA:736,0
DA:737,0
DA:736,0
DA:737,0
DA:744,0
DA:745,0
DA:744,0
DA:745,0
DA:748,0
DA:751,0
DA:748,0
DA:751,0
DA:755,0
DA:756,0
DA:755,0
DA:756,0
DA:789,0
DA:790,0
DA:789,0
DA:790,0
DA:793,0
DA:794,0
DA:793,0
DA:794,0
DA:797,0
DA:798,0
DA:797,0
DA:798,0
DA:801,0
DA:802,0
DA:801,0
DA:802,0
DA:813,0
DA:814,0
DA:813,0
DA:814,0
DA:821,0
DA:822,0
DA:821,0
DA:822,0
DA:899,0
DA:901,0
DA:902,0
DA:903,0
DA:904,0
DA:905,0
DA:899,0
DA:901,0
DA:902,0
DA:903,0
DA:904,0
DA:905,0
DA:909,0
DA:911,0
DA:912,0
DA:909,0
DA:911,0
DA:912,0
DA:946,0
DA:947,0
DA:949,0
DA:950,0
DA:951,0
DA:946,0
DA:947,0
DA:949,0
DA:950,0
DA:951,0
DA:994,0
DA:995,0
DA:994,0
DA:995,0
DA:1871,0
DA:1875,0
DA:1876,0
DA:1880,0
DA:1881,0
DA:1882,0
DA:1883,0
DA:1885,0
DA:1887,0
DA:1888,0
DA:1889,0
DA:1890,0
DA:1891,0
DA:1892,0
DA:1893,0
DA:1896,0
DA:1898,0
DA:1899,0
DA:1901,0
DA:1871,0
DA:1875,0
DA:1876,0
DA:1880,0
DA:1881,0
DA:1882,0
DA:1883,0
DA:1885,0
DA:1887,0
DA:1888,0
DA:1889,0
DA:1890,0
DA:1891,0
DA:1892,0
DA:1893,0
DA:1896,0
DA:1898,0
DA:1899,0
DA:1901,0
DA:1907,0
DA:1911,0
DA:1913,0
DA:1914,0
DA:1915,0
DA:1916,0
DA:1918,0
DA:1907,0
DA:1911,0
DA:1913,0
DA:1914,0
DA:1915,0
DA:1916,0
DA:1918,0
end_of_record
SF:/usr/include/c++/9/bits/allocator.h
FN:138,_ZNSaI4MoveEC2Ev
FNDA:0,_ZNSaI4MoveEC2Ev
FN:138,_ZNSaI8PositionEC2Ev
FNDA:0,_ZNSaI8PositionEC2Ev
FN:141,_ZNSaISt13_Rb_tree_nodeISt4pairIK9PieceNamecEEEC2ERKS5_
FNDA:0,_ZNSaISt13_Rb_tree_nodeISt4pairIK9PieceNamecEEEC2ERKS5_
FN:141,_ZNSaISt13_Rb_tree_nodeISt4pairIKNSt7__cxx1112basic_stringIcSt11char_traitsIcESaIcEEE8PositionEEEC2ERKSB_
FNDA:0,_ZNSaISt13_Rb_tree_nodeISt4pairIKNSt7__cxx1112basic_stringIcSt11char_traitsIcESaIcEEE8PositionEEEC2ERKSB_
FN:141,_ZNSaI4MoveEC2ERKS0_
FNDA:0,_ZNSaI4MoveEC2ERKS0_
FN:141,_ZNSaI8PositionEC2ERKS0_
FNDA:0,_ZNSaI8PositionEC2ERKS0_
FN:153,_ZNSaISt13_Rb_tree_nodeISt4pairIKNSt7__cxx1112basic_stringIcSt11char_traitsIcESaIcEEE8PositionEEED2Ev
FNDA:0,_ZNSaISt13_Rb_tree_nodeISt4pairIKNSt7__cxx1112basic_stringIcSt11char_traitsIcESaIcEEE8PositionEEED2Ev
FN:153,_ZNSaISt13_Rb_tree_nodeISt4pairIK9PieceNamecEEED2Ev
FNDA:0,_ZNSaISt13_Rb_tree_nodeISt4pairIK9PieceNamecEEED2Ev
FN:153,_ZNSaI4MoveED2Ev
FNDA:0,_ZNSaI4MoveED2Ev
FN:153,_ZNSaI8PositionED2Ev
FNDA:0,_ZNSaI8PositionED2Ev
FN:160,_ZStneRKSaI4MoveES2_
FNDA:0,_ZStneRKSaI4MoveES2_
FN:160,_ZStneRKSaI8PositionES2_
FNDA:0,_ZStneRKSaI8PositionES2_
DA:138,0
DA:138,0
DA:141,0
DA:142,0
DA:141,0
DA:142,0
DA:141,0
DA:142,0
DA:141,0
DA:142,0
DA:153,0
DA:153,0
DA:153,0
DA:153,0
DA:160,0
DA:161,0
DA:160,0
DA:161,0
end_of_record
SF:/usr/include/c++/9/bits/stl_vector.h
FN:94,_ZNSt12_Vector_baseI4MoveSaIS0_EE17_Vector_impl_dataC2Ev
FNDA:0,_ZNSt12_Vector_baseI4MoveSaIS0_EE17_Vector_impl_dataC2Ev
FN:94,_ZNSt12_Vector_baseI8PositionSaIS0_EE17_Vector_impl_dataC2Ev
FNDA:0,_ZNSt12_Vector_baseI8PositionSaIS0_EE17_Vector_impl_dataC2Ev
FN:99,_ZNSt12_Vector_baseI8PositionSaIS0_EE17_Vector_impl_dataC2EOS3_
FNDA:0,_ZNSt12_Vector_baseI8PositionSaIS0_EE17_Vector_impl_dataC2EOS3_
FN:99,_ZNSt12_Vector_baseI4MoveSaIS0_EE17_Vector_impl_dataC2EOS3_
FNDA:0,_ZNSt12_Vector_baseI4MoveSaIS0_EE17_Vector_impl_dataC2EOS3_
FN:106,_ZNSt12_Vector_baseI4MoveSaIS0_EE17_Vector_impl_data12_M_copy_dataERKS3_
FNDA:0,_ZNSt12_Vector_baseI4MoveSaIS0_EE17_Vector_impl_data12_M_copy_dataERKS3_
FN:106,_ZNSt12_Vector_baseI8PositionSaIS0_EE17_Vector_impl_data12_M_copy_dataERKS3_
FNDA:0,_ZNSt12_Vector_baseI8PositionSaIS0_EE17_Vector_impl_data12_M_copy_dataERKS3_
FN:114,_ZNSt12_Vector_baseI4MoveSaIS0_EE17_Vector_impl_data12_M_swap_dataERS3_
FNDA:0,_ZNSt12_Vector_baseI4MoveSaIS0_EE17_Vector_impl_data12_M_swap_dataERS3_
FN:114,_ZNSt12_Vector_baseI8PositionSaIS0_EE17_Vector_impl_data12_M_swap_dataERS3_
FNDA:0,_ZNSt12_Vector_baseI8PositionSaIS0_EE17_Vector_impl_data12_M_swap_dataERS3_
FN:128,_ZNSt12_Vector_baseI4MoveSaIS0_EE12_Vector_implC2Ev
FNDA:0,_ZNSt12_Vector_baseI4MoveSaIS0_EE12_Vector_implC2Ev
FN:128,_ZNSt12_Vector_baseI8PositionSaIS0_EE12_Vector_implC2Ev
FNDA:0,_ZNSt12_Vector_baseI8PositionSaIS0_EE12_Vector_implC2Ev
FN:133,_ZNSt12_Vector_baseI4MoveSaIS0_EE12_Vector_implC2ERKS1_
FNDA:0,_ZNSt12_Vector_baseI4MoveSaIS0_EE12_Vector_implC2ERKS1_
FN:133,_ZNSt12_Vector_baseI8PositionSaIS0_EE12_Vector_implC2ERKS1_
FNDA:0,_ZNSt12_Vector_baseI8PositionSaIS0_EE12_Vector_implC2ERKS1_
FN:140,_ZNSt12_Vector_baseI4MoveSaIS0_EE12_Vector_implC2EOS3_
FNDA:0,_ZNSt12_Vector_baseI4MoveSaIS0_EE12_Vector_implC2EOS3_
FN:140,_ZNSt12_Vector_baseI8PositionSaIS0_EE12_Vector_implC2EOS3_
FNDA:0,_ZNSt12_Vector_baseI8PositionSaIS0_EE12_Vector_implC2EOS3_
FN:273,_ZNSt12_Vector_baseI8PositionSaIS0_EE19_M_get_Tp_allocatorEv
FNDA:0,_ZNSt12_Vector_baseI8PositionSaIS0_EE19_M_get_Tp_allocatorEv
FN:273,_ZNSt12_Vector_baseI4MoveSaIS0_EE19_M_get_Tp_allocatorEv
FNDA:0,_ZNSt12_Vector_baseI4MoveSaIS0_EE19_M_get_Tp_allocatorEv
FN:277,_ZNKSt12_Vector_baseI8PositionSaIS0_EE19_M_get_Tp_allocatorEv
FNDA:0,_ZNKSt12_Vector_baseI8PositionSaIS0_EE19_M_get_Tp_allocatorEv
FN:277,_ZNKSt12_Vector_baseI4MoveSaIS0_EE19_M_get_Tp_allocatorEv
FNDA:0,_ZNKSt12_Vector_baseI4MoveSaIS0_EE19_M_get_Tp_allocatorEv
FN:281,_ZNKSt12_Vector_baseI4MoveSaIS0_EE13get_allocatorEv
FNDA:0,_ZNKSt12_Vector_baseI4MoveSaIS0_EE13get_allocatorEv
FN:281,_ZNKSt12_Vector_baseI8PositionSaIS0_EE13get_allocatorEv
FNDA:0,_ZNKSt12_Vector_baseI8PositionSaIS0_EE13get_allocatorEv
FN:285,_ZNSt12_Vector_baseI8PositionSaIS0_EEC2Ev
FNDA:0,_ZNSt12_Vector_baseI8PositionSaIS0_EEC2Ev
FN:285,_ZNSt12_Vector_baseI4MoveSaIS0_EEC2Ev
FNDA:0,_ZNSt12_Vector_baseI4MoveSaIS0_EEC2Ev
FN:290,_ZNSt12_Vector_baseI4MoveSaIS0_EEC2ERKS1_
FNDA:0,_ZNSt12_Vector_baseI4MoveSaIS0_EEC2ERKS1_
FN:290,_ZNSt12_Vector_baseI8PositionSaIS0_EEC2ERKS1_
FNDA:0,_ZNSt12_Vector_baseI8PositionSaIS0_EEC2ERKS1_
FN:300,_ZNSt12_Vector_baseI8PositionSaIS0_EEC2EmRKS1_
FNDA:0,_ZNSt12_Vector_baseI8PositionSaIS0_EEC2EmRKS1_
FN:300,_ZNSt12_Vector_baseI4MoveSaIS0_EEC2EmRKS1_
FNDA:0,_ZNSt12_Vector_baseI4MoveSaIS0_EEC2EmRKS1_
FN:305,_ZNSt12_Vector_baseI8PositionSaIS0_EEC2EOS2_
FNDA:0,_ZNSt12_Vector_baseI8PositionSaIS0_EEC2EOS2_
FN:305,_ZNSt12_Vector_baseI4MoveSaIS0_EEC2EOS2_
FNDA:0,_ZNSt12_Vector_baseI4MoveSaIS0_EEC2EOS2_
FN:330,_ZNSt12_Vector_baseI8PositionSaIS0_EED2Ev
FNDA:0,_ZNSt12_Vector_baseI8PositionSaIS0_EED2Ev
FN:330,_ZNSt12_Vector_baseI4MoveSaIS0_EED2Ev
FNDA:0,_ZNSt12_Vector_baseI4MoveSaIS0_EED2Ev
FN:340,_ZNSt12_Vector_baseI4MoveSaIS0_EE11_M_allocateEm
FNDA:0,_ZNSt12_Vector_baseI4MoveSaIS0_EE11_M_allocateEm
FN:340,_ZNSt12_Vector_baseI8PositionSaIS0_EE11_M_allocateEm
FNDA:0,_ZNSt12_Vector_baseI8PositionSaIS0_EE11_M_allocateEm
FN:347,_ZNSt12_Vector_baseI8PositionSaIS0_EE13_M_deallocateEPS0_m
FNDA:0,_ZNSt12_Vector_baseI8PositionSaIS0_EE13_M_deallocateEPS0_m
FN:347,_ZNSt12_Vector_baseI4MoveSaIS0_EE13_M_deallocateEPS0_m
FNDA:0,_ZNSt12_Vector_baseI4MoveSaIS0_EE13_M_deallocateEPS0_m
FN:356,_ZNSt12_Vector_baseI8PositionSaIS0_EE17_M_create_storageEm
FNDA:0,_ZNSt12_Vector_baseI8PositionSaIS0_EE17_M_create_storageEm
FN:356,_ZNSt12_Vector_baseI4MoveSaIS0_EE17_M_create_storageEm
FNDA:0,_ZNSt12_Vector_baseI4MoveSaIS0_EE17_M_create_storageEm
FN:428,_ZNSt6vectorI4MoveSaIS0_EE19_S_nothrow_relocateESt17integral_constantIbLb1EE
FNDA:8916,_ZNSt6vectorI4MoveSaIS0_EE19_S_nothrow_relocateESt17integral_constantIbLb1EE
FN:441,_ZNSt6vectorI4MoveSaIS0_EE15_S_use_relocateEv
FNDA:8916,_ZNSt6vectorI4MoveSaIS0_EE15_S_use_relocateEv
FN:450,_ZNSt6vectorI4MoveSaIS0_EE14_S_do_relocateEPS0_S3_S3_RS1_St17integral_constantIbLb1EE
FNDA:8916,_ZNSt6vectorI4MoveSaIS0_EE14_S_do_relocateEPS0_S3_S3_RS1_St17integral_constantIbLb1EE
FN:462,_ZNSt6vectorI4MoveSaIS0_EE11_S_relocateEPS0_S3_S3_RS1_
FNDA:8916,_ZNSt6vectorI4MoveSaIS0_EE11_S_relocateEPS0_S3_S3_RS1_
FN:484,_ZNSt6vectorI8PositionSaIS0_EEC2Ev
FNDA:0,_ZNSt6vectorI8PositionSaIS0_EEC2Ev
FN:484,_ZNSt6vectorI4MoveSaIS0_EEC2Ev
FNDA:0,_ZNSt6vectorI4MoveSaIS0_EEC2Ev
FN:494,_ZNSt6vectorI8PositionSaIS0_EEC2ERKS1_
FNDA:0,_ZNSt6vectorI8PositionSaIS0_EEC2ERKS1_
FN:494,_ZNSt6vectorI4MoveSaIS0_EEC2ERKS1_
FNDA:0,_ZNSt6vectorI4MoveSaIS0_EEC2ERKS1_
FN:550,_ZNSt6vectorI8PositionSaIS0_EEC2ERKS2_
FNDA:0,_ZNSt6vectorI8PositionSaIS0_EEC2ERKS2_
FN:550,_ZNSt6vectorI4MoveSaIS0_EEC2ERKS2_
FNDA:0,_ZNSt6vectorI4MoveSaIS0_EEC2ERKS2_
FN:569,_ZNSt6vectorI8PositionSaIS0_EEC2EOS2_
FNDA:0,_ZNSt6vectorI8PositionSaIS0_EEC2EOS2_
FN:569,_ZNSt6vectorI4MoveSaIS0_EEC2EOS2_
FNDA:0,_ZNSt6vectorI4MoveSaIS0_EEC2EOS2_
FN:675,_ZNSt6vectorI4MoveSaIS0_EED2Ev
FNDA:0,_ZNSt6vectorI4MoveSaIS0_EED2Ev
FN:675,_ZNSt6vectorI8PositionSaIS0_EED2Ev
FNDA:0,_ZNSt6vectorI8PositionSaIS0_EED2Ev
FN:706,_ZNSt6vectorI8PositionSaIS0_EEaSEOS2_
FNDA:0,_ZNSt6vectorI8PositionSaIS0_EEaSEOS2_
FN:706,_ZNSt6vectorI4MoveSaIS0_EEaSEOS2_
FNDA:0,_ZNSt6vectorI4MoveSaIS0_EEaSEOS2_
FN:808,_ZNSt6vectorI4MoveSaIS0_EE5beginEv
FNDA:0,_ZNSt6vectorI4MoveSaIS0_EE5beginEv
FN:808,_ZNSt6vectorI8PositionSaIS0_EE5beginEv
FNDA:0,_ZNSt6vectorI8PositionSaIS0_EE5beginEv
FN:817,_ZNKSt6vectorI8PositionSaIS0_EE5beginEv
FNDA:0,_ZNKSt6vectorI8PositionSaIS0_EE5beginEv
FN:817,_ZNKSt6vectorI4MoveSaIS0_EE5beginEv
FNDA:0,_ZNKSt6vectorI4MoveSaIS0_EE5beginEv
FN:826,_ZNSt6vectorI8PositionSaIS0_EE3endEv
FNDA:0,_ZNSt6vectorI8PositionSaIS0_EE3endEv
FN:826,_ZNSt6vectorI4MoveSaIS0_EE3endEv
FNDA:0,_ZNSt6vectorI4MoveSaIS0_EE3endEv
FN:835,_ZNKSt6vectorI4MoveSaIS0_EE3endEv
FNDA:0,_ZNKSt6vectorI4MoveSaIS0_EE3endEv
FN:835,_ZNKSt6vectorI8PositionSaIS0_EE3endEv
FNDA:0,_ZNKSt6vectorI8PositionSaIS0_EE3endEv
FN:915,_ZNKSt6vectorI8PositionSaIS0_EE4sizeEv
FNDA:0,_ZNKSt6vectorI8PositionSaIS0_EE4sizeEv
FN:915,_ZNKSt6vectorI4MoveSaIS0_EE4sizeEv
FNDA:0,_ZNKSt6vectorI4MoveSaIS0_EE4sizeEv
FN:920,_ZNKSt6vectorI4MoveSaIS0_EE8max_sizeEv
FNDA:8916,_ZNKSt6vectorI4MoveSaIS0_EE8max_sizeEv
FN:995,_ZNKSt6vectorI4MoveSaIS0_EE8capacityEv
FNDA:0,_ZNKSt6vectorI4MoveSaIS0_EE8capacityEv
FN:995,_ZNKSt6vectorI8PositionSaIS0_EE8capacityEv
FNDA:0,_ZNKSt6vectorI8PositionSaIS0_EE8capacityEv
FN:1184,_ZNSt6vectorI4MoveSaIS0_EE9push_backERKS0_
FNDA:716,_ZNSt6vectorI4MoveSaIS0_EE9push_backERKS0_
FN:1495,_ZNSt6vectorI8PositionSaIS0_EE5clearEv
FNDA:0,_ZNSt6vectorI8PositionSaIS0_EE5clearEv
FN:1495,_ZNSt6vectorI4MoveSaIS0_EE5clearEv
FNDA:0,_ZNSt6vectorI4MoveSaIS0_EE5clearEv
FN:1505,_ZNSt6vectorI4MoveSaIS0_EE20_M_allocate_and_copyIN9__gnu_cxx17__normal_iteratorIPKS0_S2_EEEEPS0_mT_SA_
FNDA:0,_ZNSt6vectorI4MoveSaIS0_EE20_M_allocate_and_copyIN9__gnu_cxx17__normal_iteratorIPKS0_S2_EEEEPS0_mT_SA_
FN:1505,_ZNSt6vectorI8PositionSaIS0_EE20_M_allocate_and_copyIN9__gnu_cxx17__normal_iteratorIPKS0_S2_EEEEPS0_mT_SA_
FNDA:0,_ZNSt6vectorI8PositionSaIS0_EE20_M_allocate_and_copyIN9__gnu_cxx17__normal_iteratorIPKS0_S2_EEEEPS0_mT_SA_
FN:1753,_ZNKSt6vectorI4MoveSaIS0_EE12_M_check_lenEmPKc
FNDA:4458,_ZNKSt6vectorI4MoveSaIS0_EE12_M_check_lenEmPKc
FN:1773,_ZNSt6vectorI4MoveSaIS0_EE11_S_max_sizeERKS1_
FNDA:8963,_ZNSt6vectorI4MoveSaIS0_EE11_S_max_sizeERKS1_
FN:1789,_ZNSt6vectorI4MoveSaIS0_EE15_M_erase_at_endEPS0_
FNDA:0,_ZNSt6vectorI4MoveSaIS0_EE15_M_erase_at_endEPS0_
FN:1789,_ZNSt6vectorI8PositionSaIS0_EE15_M_erase_at_endEPS0_
FNDA:0,_ZNSt6vectorI8PositionSaIS0_EE15_M_erase_at_endEPS0_
FN:1812,_ZNSt6vectorI4MoveSaIS0_EE14_M_move_assignEOS2_St17integral_constantIbLb1EE
FNDA:0,_ZNSt6vectorI4MoveSaIS0_EE14_M_move_assignEOS2_St17integral_constantIbLb1EE
FN:1812,_ZNSt6vectorI8PositionSaIS0_EE14_M_move_assignEOS2_St17integral_constantIbLb1EE
FNDA:0,_ZNSt6vectorI8PositionSaIS0_EE14_M_move_assignEOS2_St17integral_constantIbLb1EE
DA:94,0
DA:95,0
DA:96,0
DA:94,0
DA:95,0
DA:96,0
DA:99,0
DA:100,0
DA:101,0
DA:102,0
DA:99,0
DA:100,0
DA:101,0
DA:102,0
DA:106,0
DA:108,0
DA:109,0
DA:110,0
DA:111,0
DA:106,0
DA:108,0
DA:109,0
DA:110,0
DA:111,0
DA:114,0
DA:118,0
DA:119,0
DA:120,0
DA:121,0
DA:122,0
DA:114,0
DA:118,0
DA:119,0
DA:120,0
DA:121,0
DA:122,0
DA:128,0
DA:130,0
DA:131,0
DA:128,0
DA:130,0
DA:131,0
DA:133,0
DA:134,0
DA:135,0
DA:133,0
DA:134,0
DA:135,0
DA:140,0
DA:141,0
DA:142,0
DA:140,0
DA:141,0
DA:142,0
DA:273,0
DA:274,0
DA:273,0
DA:274,0
DA:277,0
DA:278,0
DA:277,0
DA:278,0
DA:281,0
DA:282,0
DA:281,0
DA:282,0
DA:285,0
DA:285,0
DA:290,0
DA:291,0
DA:290,0
DA:291,0
DA:300,0
DA:301,0
DA:302,0
DA:300,0
DA:301,0
DA:302,0
DA:305,0
DA:305,0
DA:330,0
DA:332,0
DA:333,0
DA:334,0
DA:330,0
DA:332,0
DA:333,0
DA:334,0
DA:340,0
DA:343,0
DA:340,0
DA:343,0
DA:347,0
DA:350,0
DA:351,0
DA:352,0
DA:347,0
DA:350,0
DA:351,0
DA:352,0
DA:356,0
DA:358,0
DA:359,0
DA:360,0
DA:361,0
DA:356,0
DA:358,0
DA:359,0
DA:360,0
DA:361,0
DA:428,8916
DA:433,8916
DA:441,8916
DA:446,8916
DA:450,8916
DA:453,8916
DA:462,8916
DA:466,8916
DA:484,0
DA:484,0
DA:494,0
DA:495,0
DA:494,0
DA:495,0
DA:550,0
DA:552,0
DA:554,0
DA:555,0
DA:557,0
DA:558,0
DA:550,0
DA:552,0
DA:554,0
DA:555,0
DA:557,0
DA:558,0
DA:569,0
DA:569,0
DA:675,0
DA:677,0
DA:678,0
DA:680,0
DA:675,0
DA:677,0
DA:678,0
DA:680,0
DA:706,0
DA:708,0
DA:711,0
DA:712,0
DA:706,0
DA:708,0
DA:711,0
DA:712,0
DA:808,0
DA:809,0
DA:808,0
DA:809,0
DA:817,0
DA:818,0
DA:817,0
DA:818,0
DA:826,0
DA:827,0
DA:826,0
DA:827,0
DA:835,0
DA:836,0
DA:835,0
DA:836,0
DA:915,0
DA:916,0
DA:915,0
DA:916,0
DA:920,8916
DA:921,8916
DA:995,0
DA:996,0
DA:997,0
DA:995,0
DA:996,0
DA:997,0
DA:1184,716
DA:1186,716
DA:1189,26
DA:1191,26
DA:1195,690
DA:1196,716
DA:1495,0
DA:1496,0
DA:1495,0
DA:1496,0
DA:1505,0
DA:1508,0
DA:1511,0
DA:1512,0
DA:1513,0
DA:1515,0
DA:1517,0
DA:1518,0
DA:1505,0
DA:1508,0
DA:1511,0
DA:1512,0
DA:1513,0
DA:1515,0
DA:1517,0
DA:1518,0
DA:1753,4458
DA:1755,4458
DA:1756,0
DA:1758,4458
DA:1759,4458
DA:1773,8963
DA:1778,8963
DA:1780,8963
DA:1781,8963
DA:1789,0
DA:1791,0
DA:1793,0
DA:1794,0
DA:1795,0
DA:1798,0
DA:1789,0
DA:1791,0
DA:1793,0
DA:1794,0
DA:1795,0
DA:1798,0
DA:1812,0
DA:1814,0
DA:1815,0
DA:1816,0
DA:1817,0
DA:1818,0
DA:1812,0
DA:1814,0
DA:1815,0
DA:1816,0
DA:1817,0
DA:1818,0
end_of_record
SF:/usr/include/c++/9/bits/stl_construct.h
FN:74,_ZSt10_ConstructI4MoveJRS0_EEvPT_DpOT0_
FNDA:0,_ZSt10_ConstructI4MoveJRS0_EEvPT_DpOT0_
FN:74,_ZSt10_ConstructI8PositionJRS0_EEvPT_DpOT0_
FNDA:0,_ZSt10_ConstructI8PositionJRS0_EEvPT_DpOT0_
FN:74,_ZSt10_ConstructI4MoveJRKS0_EEvPT_DpOT0_
FNDA:0,_ZSt10_ConstructI4MoveJRKS0_EEvPT_DpOT0_
FN:74,_ZSt10_ConstructI8PositionJRKS0_EEvPT_DpOT0_
FNDA:0,_ZSt10_ConstructI8PositionJRKS0_EEvPT_DpOT0_
FN:74,_ZSt10_ConstructI4MoveJS0_EEvPT_DpOT0_
FNDA:0,_ZSt10_ConstructI4MoveJS0_EEvPT_DpOT0_
FN:97,_ZSt8_DestroyI4MoveEvPT_
FNDA:0,_ZSt8_DestroyI4MoveEvPT_
FN:105,_ZNSt12_Destroy_auxILb0EE9__destroyIN9__gnu_cxx17__normal_iteratorIP4MoveSt6vectorIS4_SaIS4_EEEEEEvT_SA_
FNDA:0,_ZNSt12_Destroy_auxILb0EE9__destroyIN9__gnu_cxx17__normal_iteratorIP4MoveSt6vectorIS4_SaIS4_EEEEEEvT_SA_
FN:105,_ZNSt12_Destroy_auxILb0EE9__destroyIP4MoveEEvT_S4_
FNDA:0,_ZNSt12_Destroy_auxILb0EE9__destroyIP4MoveEEvT_S4_
FN:117,_ZNSt12_Destroy_auxILb1EE9__destroyIP8PositionEEvT_S4_
FNDA:0,_ZNSt12_Destroy_auxILb1EE9__destroyIP8PositionEEvT_S4_
FN:117,_ZNSt12_Destroy_auxILb1EE9__destroyIN9__gnu_cxx17__normal_iteratorIP8PositionSt6vectorIS4_SaIS4_EEEEEEvT_SA_
FNDA:0,_ZNSt12_Destroy_auxILb1EE9__destroyIN9__gnu_cxx17__normal_iteratorIP8PositionSt6vectorIS4_SaIS4_EEEEEEvT_SA_
FN:127,_ZSt8_DestroyIN9__gnu_cxx17__normal_iteratorIP4MoveSt6vectorIS2_SaIS2_EEEEEvT_S8_
FNDA:0,_ZSt8_DestroyIN9__gnu_cxx17__normal_iteratorIP4MoveSt6vectorIS2_SaIS2_EEEEEvT_S8_
FN:127,_ZSt8_DestroyIN9__gnu_cxx17__normal_iteratorIP8PositionSt6vectorIS2_SaIS2_EEEEEvT_S8_
FNDA:0,_ZSt8_DestroyIN9__gnu_cxx17__normal_iteratorIP8PositionSt6vectorIS2_SaIS2_EEEEEvT_S8_
FN:127,_ZSt8_DestroyIP4MoveEvT_S2_
FNDA:0,_ZSt8_DestroyIP4MoveEvT_S2_
FN:127,_ZSt8_DestroyIP8PositionEvT_S2_
FNDA:0,_ZSt8_DestroyIP8PositionEvT_S2_
FN:203,_ZSt8_DestroyIN9__gnu_cxx17__normal_iteratorIP4MoveSt6vectorIS2_SaIS2_EEEES2_EvT_S8_RSaIT0_E
FNDA:0,_ZSt8_DestroyIN9__gnu_cxx17__normal_iteratorIP4MoveSt6vectorIS2_SaIS2_EEEES2_EvT_S8_RSaIT0_E
FN:203,_ZSt8_DestroyIN9__gnu_cxx17__normal_iteratorIP8PositionSt6vectorIS2_SaIS2_EEEES2_EvT_S8_RSaIT0_E
FNDA:0,_ZSt8_DestroyIN9__gnu_cxx17__normal_iteratorIP8PositionSt6vectorIS2_SaIS2_EEEES2_EvT_S8_RSaIT0_E
FN:203,_ZSt8_DestroyIP4MoveS0_EvT_S2_RSaIT0_E
FNDA:0,_ZSt8_DestroyIP4MoveS0_EvT_S2_RSaIT0_E
FN:203,_ZSt8_DestroyIP8PositionS0_EvT_S2_RSaIT0_E
FNDA:0,_ZSt8_DestroyIP8PositionS0_EvT_S2_RSaIT0_E
DA:74,0
DA:75,0
DA:74,0
DA:75,0
DA:74,0
DA:75,0
DA:74,0
DA:75,0
DA:74,0
DA:75,0
DA:97,0
DA:98,0
DA:105,0
DA:107,0
DA:108,0
DA:109,0
DA:105,0
DA:107,0
DA:108,0
DA:109,0
DA:117,0
DA:117,0
DA:127,0
DA:137,0
DA:138,0
DA:127,0
DA:137,0
DA:138,0
DA:127,0
DA:137,0
DA:138,0
DA:127,0
DA:137,0
DA:138,0
DA:203,0
DA:206,0
DA:207,0
DA:203,0
DA:206,0
DA:207,0
DA:203,0
DA:206,0
DA:207,0
DA:203,0
DA:206,0
DA:207,0
end_of_record
SF:/usr/include/c++/9/bits/shared_ptr.h
FN:139,_ZNSt10shared_ptrI4PawnEC2IS0_vEEPT_
FNDA:8238,_ZNSt10shared_ptrI4PawnEC2IS0_vEEPT_
FN:263,_ZNSt10shared_ptrI5PieceEC2I4PawnvEEOS_IT_E
FNDA:0,_ZNSt10shared_ptrI5PieceEC2I4PawnvEEOS_IT_E
DA:139,8238
DA:263,0
DA:264,0
end_of_record
SF:/usr/include/c++/9/ext/alloc_traits.h
FN:97,_ZN9__gnu_cxx14__alloc_traitsISaISt13_Rb_tree_nodeISt4pairIK9PieceNamecEEES6_E17_S_select_on_copyERKS7_
FNDA:0,_ZN9__gnu_cxx14__alloc_traitsISaISt13_Rb_tree_nodeISt4pairIK9PieceNamecEEES6_E17_S_select_on_copyERKS7_
FN:97,_ZN9__gnu_cxx14__alloc_traitsISaISt13_Rb_tree_nodeISt4pairIKNSt7__cxx1112basic_stringIcSt11char_traitsIcESaIcEEE8PositionEEESC_E17_S_select_on_copyERKSD_
FNDA:0,_ZN9__gnu_cxx14__alloc_traitsISaISt13_Rb_tree_nodeISt4pairIKNSt7__cxx1112basic_stringIcSt11char_traitsIcESaIcEEE8PositionEEESC_E17_S_select_on_copyERKSD_
FN:97,_ZN9__gnu_cxx14__alloc_traitsISaIcEcE17_S_select_on_copyERKS1_
FNDA:0,_ZN9__gnu_cxx14__alloc_traitsISaIcEcE17_S_select_on_copyERKS1_
FN:97,_ZN9__gnu_cxx14__alloc_traitsISaI4MoveES1_E17_S_select_on_copyERKS2_
FNDA:0,_ZN9__gnu_cxx14__alloc_traitsISaI4MoveES1_E17_S_select_on_copyERKS2_
FN:97,_ZN9__gnu_cxx14__alloc_traitsISaI8PositionES1_E17_S_select_on_copyERKS2_
FNDA:0,_ZN9__gnu_cxx14__alloc_traitsISaI8PositionES1_E17_S_select_on_copyERKS2_
FN:103,_ZN9__gnu_cxx14__alloc_traitsISaI4MoveES1_E27_S_propagate_on_copy_assignEv
FNDA:0,_ZN9__gnu_cxx14__alloc_traitsISaI4MoveES1_E27_S_propagate_on_copy_assignEv
FN:103,_ZN9__gnu_cxx14__alloc_traitsISaI8PositionES1_E27_S_propagate_on_copy_assignEv
FNDA:0,_ZN9__gnu_cxx14__alloc_traitsISaI8PositionES1_E27_S_propagate_on_copy_assignEv
FN:112,_ZN9__gnu_cxx14__alloc_traitsISaI4MoveES1_E15_S_always_equalEv
FNDA:0,_ZN9__gnu_cxx14__alloc_traitsISaI4MoveES1_E15_S_always_equalEv
FN:112,_ZN9__gnu_cxx14__alloc_traitsISaI8PositionES1_E15_S_always_equalEv
FNDA:0,_ZN9__gnu_cxx14__alloc_traitsISaI8PositionES1_E15_S_always_equalEv
DA:97,0
DA:98,0
DA:97,0
DA:98,0
DA:97,0
DA:98,0
DA:97,0
DA:98,0
DA:97,0
DA:98,0
DA:103,0
DA:104,0
DA:103,0
DA:104,0
DA:112,0
DA:113,0
DA:112,0
DA:113,0
end_of_record
SF:/usr/include/c++/9/bits/move.h
FN:47,_ZSt11__addressofI8PositionEPT_RS1_
FNDA:0,_ZSt11__addressofI8PositionEPT_RS1_
FN:47,_ZSt11__addressofI4MoveEPT_RS1_
FNDA:0,_ZSt11__addressofI4MoveEPT_RS1_
FN:74,_ZSt7forwardI4MoveEOT_RNSt16remove_referenceIS1_E4typeE
FNDA:44556,_ZSt7forwardI4MoveEOT_RNSt16remove_referenceIS1_E4typeE
FN:74,_ZSt7forwardIRKSt4pairIKNSt7__cxx1112basic_stringIcSt11char_traitsIcESaIcEEE8PositionEEOT_RNSt16remove_referenceISC_E4typeE
FNDA:0,_ZSt7forwardIRKSt4pairIKNSt7__cxx1112basic_stringIcSt11char_traitsIcESaIcEEE8PositionEEOT_RNSt16remove_referenceISC_E4typeE
FN:74,_ZSt7forwardIR4MoveEOT_RNSt16remove_referenceIS2_E4typeE
FNDA:0,_ZSt7forwardIR4MoveEOT_RNSt16remove_referenceIS2_E4typeE
FN:74,_ZSt7forwardIR8PositionEOT_RNSt16remove_referenceIS2_E4typeE
FNDA:0,_ZSt7forwardIR8PositionEOT_RNSt16remove_referenceIS2_E4typeE
FN:74,_ZSt7forwardIRK8PositionEOT_RNSt16remove_referenceIS3_E4typeE
FNDA:0,_ZSt7forwardIRK8PositionEOT_RNSt16remove_referenceIS3_E4typeE
FN:74,_ZSt7forwardIRKSt4pairIK9PieceNamecEEOT_RNSt16remove_referenceIS6_E4typeE
FNDA:0,_ZSt7forwardIRKSt4pairIK9PieceNamecEEOT_RNSt16remove_referenceIS6_E4typeE
FN:74,_ZSt7forwardIRK4MoveEOT_RNSt16remove_referenceIS3_E4typeE
FNDA:0,_ZSt7forwardIRK4MoveEOT_RNSt16remove_referenceIS3_E4typeE
FN:99,_ZSt4moveIRSaIcEEONSt16remove_referenceIT_E4typeEOS3_
FNDA:0,_ZSt4moveIRSaIcEEONSt16remove_referenceIT_E4typeEOS3_
FN:99,_ZSt4moveIRSt10shared_ptrI4PawnEEONSt16remove_referenceIT_E4typeEOS5_
FNDA:0,_ZSt4moveIRSt10shared_ptrI4PawnEEONSt16remove_referenceIT_E4typeEOS5_
FN:99,_ZSt4moveIRNSt12_Vector_baseI8PositionSaIS1_EE12_Vector_implEEONSt16remove_referenceIT_E4typeEOS7_
FNDA:0,_ZSt4moveIRNSt12_Vector_baseI8PositionSaIS1_EE12_Vector_implEEONSt16remove_referenceIT_E4typeEOS7_
FN:99,_ZSt4moveIRNSt12_Vector_baseI4MoveSaIS1_EE12_Vector_implEEONSt16remove_referenceIT_E4typeEOS7_
FNDA:0,_ZSt4moveIRNSt12_Vector_baseI4MoveSaIS1_EE12_Vector_implEEONSt16remove_referenceIT_E4typeEOS7_
FN:99,_ZSt4moveIRSt6vectorI8PositionSaIS1_EEEONSt16remove_referenceIT_E4typeEOS6_
FNDA:0,_ZSt4moveIRSt6vectorI8PositionSaIS1_EEEONSt16remove_referenceIT_E4typeEOS6_
FN:99,_ZSt4moveIRSt6vectorI4MoveSaIS1_EEEONSt16remove_referenceIT_E4typeEOS6_
FNDA:0,_ZSt4moveIRSt6vectorI4MoveSaIS1_EEEONSt16remove_referenceIT_E4typeEOS6_
FN:99,_ZSt4moveIRSaI8PositionEEONSt16remove_referenceIT_E4typeEOS4_
FNDA:0,_ZSt4moveIRSaI8PositionEEONSt16remove_referenceIT_E4typeEOS4_
FN:99,_ZSt4moveIRSaI4MoveEEONSt16remove_referenceIT_E4typeEOS4_
FNDA:0,_ZSt4moveIRSaI4MoveEEONSt16remove_referenceIT_E4typeEOS4_
FN:99,_ZSt4moveIR4MoveEONSt16remove_referenceIT_E4typeEOS3_
FNDA:16826,_ZSt4moveIR4MoveEONSt16remove_referenceIT_E4typeEOS3_
DA:47,0
DA:48,0
DA:47,0
DA:48,0
DA:74,44556
DA:75,44556
DA:74,0
DA:75,0
DA:74,0
DA:75,0
DA:74,0
DA:75,0
DA:74,0
DA:75,0
DA:74,0
DA:75,0
DA:74,0
DA:75,0
DA:99,16826
DA:100,16826
DA:99,0
DA:100,0
DA:99,0
DA:100,0
DA:99,0
DA:100,0
DA:99,0
DA:100,0
DA:99,0
DA:100,0
DA:99,0
DA:100,0
DA:99,0
DA:100,0
DA:99,0
DA:100,0
end_of_record
SF:/usr/include/c++/9/bits/alloc_traits.h
FN:443,_ZNSt16allocator_traitsISaISt13_Rb_tree_nodeISt4pairIKNSt7__cxx1112basic_stringIcSt11char_traitsIcESaIcEEE8PositionEEEE8allocateERSC_m
FNDA:0,_ZNSt16allocator_traitsISaISt13_Rb_tree_nodeISt4pairIKNSt7__cxx1112basic_stringIcSt11char_traitsIcESaIcEEE8PositionEEEE8allocateERSC_m
FN:443,_ZNSt16allocator_traitsISaISt13_Rb_tree_nodeISt4pairIK9PieceNamecEEEE8allocateERS6_m
FNDA:0,_ZNSt16allocator_traitsISaISt13_Rb_tree_nodeISt4pairIK9PieceNamecEEEE8allocateERS6_m
FN:443,_ZNSt16allocator_traitsISaI8PositionEE8allocateERS1_m
FNDA:0,_ZNSt16allocator_traitsISaI8PositionEE8allocateERS1_m
FN:443,_ZNSt16allocator_traitsISaI4MoveEE8allocateERS1_m
FNDA:0,_ZNSt16allocator_traitsISaI4MoveEE8allocateERS1_m
FN:469,_ZNSt16allocator_traitsISaI4MoveEE10deallocateERS1_PS0_m
FNDA:0,_ZNSt16allocator_traitsISaI4MoveEE10deallocateERS1_PS0_m
FN:469,_ZNSt16allocator_traitsISaISt13_Rb_tree_nodeISt4pairIKNSt7__cxx1112basic_stringIcSt11char_traitsIcESaIcEEE8PositionEEEE10deallocateERSC_PSB_m
FNDA:0,_ZNSt16allocator_traitsISaISt13_Rb_tree_nodeISt4pairIKNSt7__cxx1112basic_stringIcSt11char_traitsIcESaIcEEE8PositionEEEE10deallocateERSC_PSB_m
FN:469,_ZNSt16allocator_traitsISaISt13_Rb_tree_nodeISt4pairIK9PieceNamecEEEE10deallocateERS6_PS5_m
FNDA:0,_ZNSt16allocator_traitsISaISt13_Rb_tree_nodeISt4pairIK9PieceNamecEEEE10deallocateERS6_PS5_m
FN:469,_ZNSt16allocator_traitsISaI8PositionEE10deallocateERS1_PS0_m
FNDA:0,_ZNSt16allocator_traitsISaI8PositionEE10deallocateERS1_PS0_m
FN:482,_ZNSt16allocator_traitsISaI4MoveEE9constructIS0_JRKS0_EEEvRS1_PT_DpOT0_
FNDA:716,_ZNSt16allocator_traitsISaI4MoveEE9constructIS0_JRKS0_EEEvRS1_PT_DpOT0_
FN:482,_ZNSt16allocator_traitsISaISt13_Rb_tree_nodeISt4pairIKNSt7__cxx1112basic_stringIcSt11char_traitsIcESaIcEEE8PositionEEEE9constructISA_JRKSA_EEEvRSC_PT_DpOT0_
FNDA:0,_ZNSt16allocator_traitsISaISt13_Rb_tree_nodeISt4pairIKNSt7__cxx1112basic_stringIcSt11char_traitsIcESaIcEEE8PositionEEEE9constructISA_JRKSA_EEEvRSC_PT_DpOT0_
FN:482,_ZNSt16allocator_traitsISaISt13_Rb_tree_nodeISt4pairIK9PieceNamecEEEE9constructIS4_JRKS4_EEEvRS6_PT_DpOT0_
FNDA:0,_ZNSt16allocator_traitsISaISt13_Rb_tree_nodeISt4pairIK9PieceNamecEEEE9constructIS4_JRKS4_EEEvRS6_PT_DpOT0_
FN:482,_ZNSt16allocator_traitsISaI4MoveEE9constructIS0_JS0_EEEvRS1_PT_DpOT0_
FNDA:16826,_ZNSt16allocator_traitsISaI4MoveEE9constructIS0_JS0_EEEvRS1_PT_DpOT0_
FN:495,_ZNSt16allocator_traitsISaISt13_Rb_tree_nodeISt4pairIK9PieceNamecEEEE7destroyIS4_EEvRS6_PT_
FNDA:0,_ZNSt16allocator_traitsISaISt13_Rb_tree_nodeISt4pairIK9PieceNamecEEEE7destroyIS4_EEvRS6_PT_
FN:495,_ZNSt16allocator_traitsISaISt13_Rb_tree_nodeISt4pairIKNSt7__cxx1112basic_stringIcSt11char_traitsIcESaIcEEE8PositionEEEE7destroyISA_EEvRSC_PT_
FNDA:0,_ZNSt16allocator_traitsISaISt13_Rb_tree_nodeISt4pairIKNSt7__cxx1112basic_stringIcSt11char_traitsIcESaIcEEE8PositionEEEE7destroyISA_EEvRSC_PT_
FN:495,_ZNSt16allocator_traitsISaI4MoveEE7destroyIS0_EEvRS1_PT_
FNDA:9690,_ZNSt16allocator_traitsISaI4MoveEE7destroyIS0_EEvRS1_PT_
FN:505,_ZNSt16allocator_traitsISaI4MoveEE8max_sizeERKS1_
FNDA:8963,_ZNSt16allocator_traitsISaI4MoveEE8max_sizeERKS1_
FN:514,_ZNSt16allocator_traitsISaISt13_Rb_tree_nodeISt4pairIK9PieceNamecEEEE37select_on_container_copy_constructionERKS6_
FNDA:0,_ZNSt16allocator_traitsISaISt13_Rb_tree_nodeISt4pairIK9PieceNamecEEEE37select_on_container_copy_constructionERKS6_
FN:514,_ZNSt16allocator_traitsISaI8PositionEE37select_on_container_copy_constructionERKS1_
FNDA:0,_ZNSt16allocator_traitsISaI8PositionEE37select_on_container_copy_constructionERKS1_
FN:514,_ZNSt16allocator_traitsISaI4MoveEE37select_on_container_copy_constructionERKS1_
FNDA:0,_ZNSt16allocator_traitsISaI4MoveEE37select_on_container_copy_constructionERKS1_
FN:514,_ZNSt16allocator_traitsISaIcEE37select_on_container_copy_constructionERKS0_
FNDA:0,_ZNSt16allocator_traitsISaIcEE37select_on_container_copy_constructionERKS0_
FN:514,_ZNSt16allocator_traitsISaISt13_Rb_tree_nodeISt4pairIKNSt7__cxx1112basic_stringIcSt11char_traitsIcESaIcEEE8PositionEEEE37select_on_container_copy_constructionERKSC_
FNDA:0,_ZNSt16allocator_traitsISaISt13_Rb_tree_nodeISt4pairIKNSt7__cxx1112basic_stringIcSt11char_traitsIcESaIcEEE8PositionEEEE37select_on_container_copy_constructionERKSC_
FN:526,_ZSt18__do_alloc_on_copyISaI8PositionEEvRT_RKS2_St17integral_constantIbLb0EE
FNDA:0,_ZSt18__do_alloc_on_copyISaI8PositionEEvRT_RKS2_St17integral_constantIbLb0EE
FN:526,_ZSt18__do_alloc_on_copyISaI4MoveEEvRT_RKS2_St17integral_constantIbLb0EE
FNDA:0,_ZSt18__do_alloc_on_copyISaI4MoveEEvRT_RKS2_St17integral_constantIbLb0EE
FN:530,_ZSt15__alloc_on_copyISaI4MoveEEvRT_RKS2_
FNDA:0,_ZSt15__alloc_on_copyISaI4MoveEEvRT_RKS2_
FN:530,_ZSt15__alloc_on_copyISaI8PositionEEvRT_RKS2_
FNDA:0,_ZSt15__alloc_on_copyISaI8PositionEEvRT_RKS2_
FN:545,_ZSt18__do_alloc_on_moveISaI8PositionEEvRT_S3_St17integral_constantIbLb1EE
FNDA:0,_ZSt18__do_alloc_on_moveISaI8PositionEEvRT_S3_St17integral_constantIbLb1EE
FN:545,_ZSt18__do_alloc_on_moveISaI4MoveEEvRT_S3_St17integral_constantIbLb1EE
FNDA:0,_ZSt18__do_alloc_on_moveISaI4MoveEEvRT_S3_St17integral_constantIbLb1EE
FN:553,_ZSt15__alloc_on_moveISaI8PositionEEvRT_S3_
FNDA:0,_ZSt15__alloc_on_moveISaI8PositionEEvRT_S3_
FN:553,_ZSt15__alloc_on_moveISaI4MoveEEvRT_S3_
FNDA:0,_ZSt15__alloc_on_moveISaI4MoveEEvRT_S3_
DA:443,0
DA:444,0
DA:443,0
DA:444,0
DA:443,0
DA:444,0
DA:443,0
DA:444,0
DA:469,0
DA:470,0
DA:469,0
DA:470,0
DA:469,0
DA:470,0
DA:469,0
DA:470,0
DA:482,0
DA:484,0
DA:482,16826
DA:484,16826
DA:482,0
DA:484,0
DA:482,716
DA:484,716
DA:495,0
DA:497,0
DA:495,0
DA:497,0
DA:495,9690
DA:497,9690
DA:505,8963
DA:506,8963
DA:514,0
DA:515,0
DA:514,0
DA:515,0
DA:514,0
DA:515,0
DA:514,0
DA:515,0
DA:514,0
DA:515,0
DA:526,0
DA:527,0
DA:526,0
DA:527,0
DA:530,0
DA:534,0
DA:535,0
DA:530,0
DA:534,0
DA:535,0
DA:545,0
DA:546,0
DA:545,0
DA:546,0
DA:553,0
DA:557,0
DA:558,0
DA:553,0
DA:557,0
DA:558,0
end_of_record
SF:/home/napiad/studia/eiti/mgr/sem1/zpr/checkers-webapp/checkers/src/Move.h
FN:22,_ZN4MoveC2Ev
FNDA:0,_ZN4MoveC2Ev
DA:22,0
end_of_record
SF:/usr/include/x86_64-linux-gnu/c++/9/bits/gthr-default.h
FN:248,_ZL18__gthread_active_pv
FNDA:0,_ZL18__gthread_active_pv
DA:248,0
DA:252,0
end_of_record
TN:
SF:/usr/include/c++/9/new
FN:173,_ZnwmPv
FNDA:0,_ZnwmPv
FN:179,_ZdlPvS_
FNDA:0,_ZdlPvS_
DA:173,0
DA:174,0
DA:179,0
end_of_record
SF:/usr/include/c++/9/bits/stl_iterator_base_types.h
FN:205,_ZSt19__iterator_categoryIPcENSt15iterator_traitsIT_E17iterator_categoryERKS2_
FNDA:0,_ZSt19__iterator_categoryIPcENSt15iterator_traitsIT_E17iterator_categoryERKS2_
FN:205,_ZSt19__iterator_categoryIN9__gnu_cxx17__normal_iteratorIPSt10shared_ptrI5PieceESt6vectorIS4_SaIS4_EEEEENSt15iterator_traitsIT_E17iterator_categoryERKSB_
FNDA:6274,_ZSt19__iterator_categoryIN9__gnu_cxx17__normal_iteratorIPSt10shared_ptrI5PieceESt6vectorIS4_SaIS4_EEEEENSt15iterator_traitsIT_E17iterator_categoryERKSB_
DA:205,0
DA:206,0
DA:205,6274
DA:206,6274
end_of_record
SF:/usr/include/c++/9/bits/allocated_ptr.h
FN:52,_ZNSt15__allocated_ptrISaISt23_Sp_counted_ptr_inplaceI4KingSaIS1_ELN9__gnu_cxx12_Lock_policyE2EEEEC2ERS6_PS5_
FNDA:32,_ZNSt15__allocated_ptrISaISt23_Sp_counted_ptr_inplaceI4KingSaIS1_ELN9__gnu_cxx12_Lock_policyE2EEEEC2ERS6_PS5_
FN:52,_ZNSt15__allocated_ptrISaISt23_Sp_counted_ptr_inplaceI4PawnSaIS1_ELN9__gnu_cxx12_Lock_policyE2EEEEC2ERS6_PS5_
FNDA:310,_ZNSt15__allocated_ptrISaISt23_Sp_counted_ptr_inplaceI4PawnSaIS1_ELN9__gnu_cxx12_Lock_policyE2EEEEC2ERS6_PS5_
FN:70,_ZNSt15__allocated_ptrISaISt23_Sp_counted_ptr_inplaceI4KingSaIS1_ELN9__gnu_cxx12_Lock_policyE2EEEED2Ev
FNDA:32,_ZNSt15__allocated_ptrISaISt23_Sp_counted_ptr_inplaceI4KingSaIS1_ELN9__gnu_cxx12_Lock_policyE2EEEED2Ev
FN:70,_ZNSt15__allocated_ptrISaISt23_Sp_counted_ptr_inplaceI4PawnSaIS1_ELN9__gnu_cxx12_Lock_policyE2EEEED2Ev
FNDA:310,_ZNSt15__allocated_ptrISaISt23_Sp_counted_ptr_inplaceI4PawnSaIS1_ELN9__gnu_cxx12_Lock_policyE2EEEED2Ev
FN:78,_ZNSt15__allocated_ptrISaISt23_Sp_counted_ptr_inplaceI4KingSaIS1_ELN9__gnu_cxx12_Lock_policyE2EEEEaSEDn
FNDA:16,_ZNSt15__allocated_ptrISaISt23_Sp_counted_ptr_inplaceI4KingSaIS1_ELN9__gnu_cxx12_Lock_policyE2EEEEaSEDn
FN:78,_ZNSt15__allocated_ptrISaISt23_Sp_counted_ptr_inplaceI4PawnSaIS1_ELN9__gnu_cxx12_Lock_policyE2EEEEaSEDn
FNDA:155,_ZNSt15__allocated_ptrISaISt23_Sp_counted_ptr_inplaceI4PawnSaIS1_ELN9__gnu_cxx12_Lock_policyE2EEEEaSEDn
FN:85,_ZNSt15__allocated_ptrISaISt23_Sp_counted_ptr_inplaceI4KingSaIS1_ELN9__gnu_cxx12_Lock_policyE2EEEE3getEv
FNDA:16,_ZNSt15__allocated_ptrISaISt23_Sp_counted_ptr_inplaceI4KingSaIS1_ELN9__gnu_cxx12_Lock_policyE2EEEE3getEv
FN:85,_ZNSt15__allocated_ptrISaISt23_Sp_counted_ptr_inplaceI4PawnSaIS1_ELN9__gnu_cxx12_Lock_policyE2EEEE3getEv
FNDA:155,_ZNSt15__allocated_ptrISaISt23_Sp_counted_ptr_inplaceI4PawnSaIS1_ELN9__gnu_cxx12_Lock_policyE2EEEE3getEv
FN:95,_ZSt18__allocate_guardedISaISt23_Sp_counted_ptr_inplaceI4KingSaIS1_ELN9__gnu_cxx12_Lock_policyE2EEEESt15__allocated_ptrIT_ERS8_
FNDA:16,_ZSt18__allocate_guardedISaISt23_Sp_counted_ptr_inplaceI4KingSaIS1_ELN9__gnu_cxx12_Lock_policyE2EEEESt15__allocated_ptrIT_ERS8_
FN:95,_ZSt18__allocate_guardedISaISt23_Sp_counted_ptr_inplaceI4PawnSaIS1_ELN9__gnu_cxx12_Lock_policyE2EEEESt15__allocated_ptrIT_ERS8_
FNDA:155,_ZSt18__allocate_guardedISaISt23_Sp_counted_ptr_inplaceI4PawnSaIS1_ELN9__gnu_cxx12_Lock_policyE2EEEESt15__allocated_ptrIT_ERS8_
DA:52,32
DA:53,32
DA:54,32
DA:52,310
DA:53,310
DA:54,310
DA:70,32
DA:72,32
DA:73,16
DA:74,32
DA:70,310
DA:72,310
DA:73,155
DA:74,310
DA:78,16
DA:80,16
DA:81,16
DA:78,155
DA:80,155
DA:81,155
DA:85,16
DA:85,155
DA:95,16
DA:97,16
DA:95,155
DA:97,155
end_of_record
SF:/usr/include/c++/9/ext/type_traits.h
FN:152,_ZN9__gnu_cxx17__is_null_pointerIcEEbPT_
FNDA:0,_ZN9__gnu_cxx17__is_null_pointerIcEEbPT_
DA:152,0
DA:153,0
end_of_record
SF:/usr/include/c++/9/bits/predefined_ops.h
FN:276,_ZN9__gnu_cxx5__ops10_Iter_predIZN6Player10erasePieceESt10shared_ptrI5PieceEEUlRKS5_E_EC2ES8_
FNDA:6274,_ZN9__gnu_cxx5__ops10_Iter_predIZN6Player10erasePieceESt10shared_ptrI5PieceEEUlRKS5_E_EC2ES8_
FN:282,_ZN9__gnu_cxx5__ops10_Iter_predIZN6Player10erasePieceESt10shared_ptrI5PieceEEUlRKS5_E_EclINS_17__normal_iteratorIPS5_St6vectorIS5_SaIS5_EEEEEEbT_
FNDA:18500,_ZN9__gnu_cxx5__ops10_Iter_predIZN6Player10erasePieceESt10shared_ptrI5PieceEEUlRKS5_E_EclINS_17__normal_iteratorIPS5_St6vectorIS5_SaIS5_EEEEEEbT_
FN:288,_ZN9__gnu_cxx5__ops11__pred_iterIZN6Player10erasePieceESt10shared_ptrI5PieceEEUlRKS5_E_EENS0_10_Iter_predIT_EESA_
FNDA:6274,_ZN9__gnu_cxx5__ops11__pred_iterIZN6Player10erasePieceESt10shared_ptrI5PieceEEUlRKS5_E_EENS0_10_Iter_predIT_EESA_
DA:276,6274
DA:277,6274
DA:278,6274
DA:282,18500
DA:283,18500
DA:288,6274
DA:289,6274
end_of_record
SF:/usr/include/c++/9/ext/atomicity.h
FN:48,_ZN9__gnu_cxxL18__exchange_and_addEPVii
FNDA:0,_ZN9__gnu_cxxL18__exchange_and_addEPVii
FN:52,_ZN9__gnu_cxxL12__atomic_addEPVii
FNDA:16797,_ZN9__gnu_cxxL12__atomic_addEPVii
FN:65,_ZN9__gnu_cxxL25__exchange_and_add_singleEPii
FNDA:0,_ZN9__gnu_cxxL25__exchange_and_add_singleEPii
FN:73,_ZN9__gnu_cxxL19__atomic_add_singleEPii
FNDA:0,_ZN9__gnu_cxxL19__atomic_add_singleEPii
FN:78,_ZN9__gnu_cxxL27__exchange_and_add_dispatchEPii
FNDA:0,_ZN9__gnu_cxxL27__exchange_and_add_dispatchEPii
FN:92,_ZN9__gnu_cxxL21__atomic_add_dispatchEPii
FNDA:16797,_ZN9__gnu_cxxL21__atomic_add_dispatchEPii
DA:48,0
DA:49,0
DA:52,16797
DA:53,16797
DA:65,0
DA:67,0
DA:68,0
DA:69,0
DA:73,0
DA:74,0
DA:78,0
DA:81,0
DA:82,0
DA:84,0
DA:92,16797
DA:95,16797
DA:96,16797
DA:98,0
DA:102,16797
end_of_record
SF:/usr/include/c++/9/ext/aligned_buffer.h
FN:102,_ZN9__gnu_cxx16__aligned_bufferI4KingE7_M_addrEv
FNDA:48,_ZN9__gnu_cxx16__aligned_bufferI4KingE7_M_addrEv
FN:102,_ZN9__gnu_cxx16__aligned_bufferI4PawnE7_M_addrEv
FNDA:465,_ZN9__gnu_cxx16__aligned_bufferI4PawnE7_M_addrEv
FN:114,_ZN9__gnu_cxx16__aligned_bufferI4KingE6_M_ptrEv
FNDA:48,_ZN9__gnu_cxx16__aligned_bufferI4KingE6_M_ptrEv
FN:114,_ZN9__gnu_cxx16__aligned_bufferI4PawnE6_M_ptrEv
FNDA:465,_ZN9__gnu_cxx16__aligned_bufferI4PawnE6_M_ptrEv
DA:102,48
DA:104,48
DA:102,465
DA:104,465
DA:114,48
DA:115,48
DA:114,465
DA:115,465
end_of_record
SF:/usr/include/c++/9/bits/basic_string.h
FN:243,_ZNSt7__cxx1112basic_stringIcSt11char_traitsIcESaIcEE16_M_construct_auxIPcEEvT_S7_St12__false_type
FNDA:0,_ZNSt7__cxx1112basic_stringIcSt11char_traitsIcESaIcEE16_M_construct_auxIPcEEvT_S7_St12__false_type
FN:263,_ZNSt7__cxx1112basic_stringIcSt11char_traitsIcESaIcEE12_M_constructIPcEEvT_S7_
FNDA:0,_ZNSt7__cxx1112basic_stringIcSt11char_traitsIcESaIcEE12_M_constructIPcEEvT_S7_
DA:243,0
DA:247,0
DA:248,0
DA:263,0
DA:266,0
DA:267,0
end_of_record
SF:/usr/include/c++/9/bits/shared_ptr_base.h
FN:117,_ZNSt16_Sp_counted_baseILN9__gnu_cxx12_Lock_policyE2EEC2Ev
FNDA:22439,_ZNSt16_Sp_counted_baseILN9__gnu_cxx12_Lock_policyE2EEC2Ev
FN:121,_ZNSt16_Sp_counted_baseILN9__gnu_cxx12_Lock_policyE2EED2Ev
FNDA:22439,_ZNSt16_Sp_counted_baseILN9__gnu_cxx12_Lock_policyE2EED2Ev
FN:121,_ZNSt16_Sp_counted_baseILN9__gnu_cxx12_Lock_policyE2EED0Ev
FNDA:0,_ZNSt16_Sp_counted_baseILN9__gnu_cxx12_Lock_policyE2EED0Ev
FN:131,_ZNSt16_Sp_counted_baseILN9__gnu_cxx12_Lock_policyE2EE10_M_destroyEv
FNDA:0,_ZNSt16_Sp_counted_baseILN9__gnu_cxx12_Lock_policyE2EE10_M_destroyEv
FN:138,_ZNSt16_Sp_counted_baseILN9__gnu_cxx12_Lock_policyE2EE15_M_add_ref_copyEv
FNDA:16797,_ZNSt16_Sp_counted_baseILN9__gnu_cxx12_Lock_policyE2EE15_M_add_ref_copyEv
FN:148,_ZNSt16_Sp_counted_baseILN9__gnu_cxx12_Lock_policyE2EE10_M_releaseEv
FNDA:0,_ZNSt16_Sp_counted_baseILN9__gnu_cxx12_Lock_policyE2EE10_M_releaseEv
FN:414,_ZNSt14_Sp_ebo_helperILi0ESaI4PawnELb1EEC2ERKS1_
FNDA:155,_ZNSt14_Sp_ebo_helperILi0ESaI4PawnELb1EEC2ERKS1_
FN:414,_ZNSt14_Sp_ebo_helperILi0ESaI4KingELb1EEC2ERKS1_
FNDA:16,_ZNSt14_Sp_ebo_helperILi0ESaI4KingELb1EEC2ERKS1_
FN:418,_ZNSt14_Sp_ebo_helperILi0ESaI4KingELb1EE6_S_getERS2_
FNDA:32,_ZNSt14_Sp_ebo_helperILi0ESaI4KingELb1EE6_S_getERS2_
FN:418,_ZNSt14_Sp_ebo_helperILi0ESaI4PawnELb1EE6_S_getERS2_
FNDA:310,_ZNSt14_Sp_ebo_helperILi0ESaI4PawnELb1EE6_S_getERS2_
FN:508,_ZNSt19_Sp_make_shared_tag5_S_tiEv
FNDA:0,_ZNSt19_Sp_make_shared_tag5_S_tiEv
FN:531,_ZNSt23_Sp_counted_ptr_inplaceI4KingSaIS0_ELN9__gnu_cxx12_Lock_policyE2EE5_ImplC2ES1_
FNDA:16,_ZNSt23_Sp_counted_ptr_inplaceI4KingSaIS0_ELN9__gnu_cxx12_Lock_policyE2EE5_ImplC2ES1_
FN:531,_ZNSt23_Sp_counted_ptr_inplaceI4PawnSaIS0_ELN9__gnu_cxx12_Lock_policyE2EE5_ImplC2ES1_
FNDA:155,_ZNSt23_Sp_counted_ptr_inplaceI4PawnSaIS0_ELN9__gnu_cxx12_Lock_policyE2EE5_ImplC2ES1_
FN:533,_ZNSt23_Sp_counted_ptr_inplaceI4PawnSaIS0_ELN9__gnu_cxx12_Lock_policyE2EE5_Impl8_M_allocEv
FNDA:310,_ZNSt23_Sp_counted_ptr_inplaceI4PawnSaIS0_ELN9__gnu_cxx12_Lock_policyE2EE5_Impl8_M_allocEv
FN:533,_ZNSt23_Sp_counted_ptr_inplaceI4KingSaIS0_ELN9__gnu_cxx12_Lock_policyE2EE5_Impl8_M_allocEv
FNDA:32,_ZNSt23_Sp_counted_ptr_inplaceI4KingSaIS0_ELN9__gnu_cxx12_Lock_policyE2EE5_Impl8_M_allocEv
FN:543,_ZNSt23_Sp_counted_ptr_inplaceI4PawnSaIS0_ELN9__gnu_cxx12_Lock_policyE2EEC2IJR8PositionRbS8_R5BoardEEES1_DpOT_
FNDA:25,_ZNSt23_Sp_counted_ptr_inplaceI4PawnSaIS0_ELN9__gnu_cxx12_Lock_policyE2EEC2IJR8PositionRbS8_R5BoardEEES1_DpOT_
FN:543,_ZNSt23_Sp_counted_ptr_inplaceI4KingSaIS0_ELN9__gnu_cxx12_Lock_policyE2EEC2IJR8PositionRbS8_R5BoardEEES1_DpOT_
FNDA:8,_ZNSt23_Sp_counted_ptr_inplaceI4KingSaIS0_ELN9__gnu_cxx12_Lock_policyE2EEC2IJR8PositionRbS8_R5BoardEEES1_DpOT_
FN:552,_ZNSt23_Sp_counted_ptr_inplaceI4KingSaIS0_ELN9__gnu_cxx12_Lock_policyE2EED0Ev
FNDA:0,_ZNSt23_Sp_counted_ptr_inplaceI4KingSaIS0_ELN9__gnu_cxx12_Lock_policyE2EED0Ev
FN:552,_ZNSt23_Sp_counted_ptr_inplaceI4PawnSaIS0_ELN9__gnu_cxx12_Lock_policyE2EED0Ev
FNDA:0,_ZNSt23_Sp_counted_ptr_inplaceI4PawnSaIS0_ELN9__gnu_cxx12_Lock_policyE2EED0Ev
FN:552,_ZNSt23_Sp_counted_ptr_inplaceI4PawnSaIS0_ELN9__gnu_cxx12_Lock_policyE2EED2Ev
FNDA:155,_ZNSt23_Sp_counted_ptr_inplaceI4PawnSaIS0_ELN9__gnu_cxx12_Lock_policyE2EED2Ev
FN:552,_ZNSt23_Sp_counted_ptr_inplaceI4KingSaIS0_ELN9__gnu_cxx12_Lock_policyE2EED2Ev
FNDA:16,_ZNSt23_Sp_counted_ptr_inplaceI4KingSaIS0_ELN9__gnu_cxx12_Lock_policyE2EED2Ev
FN:555,_ZNSt23_Sp_counted_ptr_inplaceI4KingSaIS0_ELN9__gnu_cxx12_Lock_policyE2EE10_M_disposeEv
FNDA:16,_ZNSt23_Sp_counted_ptr_inplaceI4KingSaIS0_ELN9__gnu_cxx12_Lock_policyE2EE10_M_disposeEv
FN:555,_ZNSt23_Sp_counted_ptr_inplaceI4PawnSaIS0_ELN9__gnu_cxx12_Lock_policyE2EE10_M_disposeEv
FNDA:155,_ZNSt23_Sp_counted_ptr_inplaceI4PawnSaIS0_ELN9__gnu_cxx12_Lock_policyE2EE10_M_disposeEv
FN:562,_ZNSt23_Sp_counted_ptr_inplaceI4PawnSaIS0_ELN9__gnu_cxx12_Lock_policyE2EE10_M_destroyEv
FNDA:155,_ZNSt23_Sp_counted_ptr_inplaceI4PawnSaIS0_ELN9__gnu_cxx12_Lock_policyE2EE10_M_destroyEv
FN:562,_ZNSt23_Sp_counted_ptr_inplaceI4KingSaIS0_ELN9__gnu_cxx12_Lock_policyE2EE10_M_destroyEv
FNDA:16,_ZNSt23_Sp_counted_ptr_inplaceI4KingSaIS0_ELN9__gnu_cxx12_Lock_policyE2EE10_M_destroyEv
FN:575,_ZNSt23_Sp_counted_ptr_inplaceI4PawnSaIS0_ELN9__gnu_cxx12_Lock_policyE2EE14_M_get_deleterERKSt9type_info
FNDA:0,_ZNSt23_Sp_counted_ptr_inplaceI4PawnSaIS0_ELN9__gnu_cxx12_Lock_policyE2EE14_M_get_deleterERKSt9type_info
FN:575,_ZNSt23_Sp_counted_ptr_inplaceI4KingSaIS0_ELN9__gnu_cxx12_Lock_policyE2EE14_M_get_deleterERKSt9type_info
FNDA:0,_ZNSt23_Sp_counted_ptr_inplaceI4KingSaIS0_ELN9__gnu_cxx12_Lock_policyE2EE14_M_get_deleterERKSt9type_info
FN:594,_ZNSt23_Sp_counted_ptr_inplaceI4KingSaIS0_ELN9__gnu_cxx12_Lock_policyE2EE6_M_ptrEv
FNDA:48,_ZNSt23_Sp_counted_ptr_inplaceI4KingSaIS0_ELN9__gnu_cxx12_Lock_policyE2EE6_M_ptrEv
FN:594,_ZNSt23_Sp_counted_ptr_inplaceI4PawnSaIS0_ELN9__gnu_cxx12_Lock_policyE2EE6_M_ptrEv
FNDA:465,_ZNSt23_Sp_counted_ptr_inplaceI4PawnSaIS0_ELN9__gnu_cxx12_Lock_policyE2EE6_M_ptrEv
FN:616,_ZNSt14__shared_countILN9__gnu_cxx12_Lock_policyE2EEC2Ev
FNDA:59169,_ZNSt14__shared_countILN9__gnu_cxx12_Lock_policyE2EEC2Ev
FN:672,_ZNSt14__shared_countILN9__gnu_cxx12_Lock_policyE2EEC2I4KingSaIS4_EJR8PositionRbS8_R5BoardEEERPT_St20_Sp_alloc_shared_tagIT0_EDpOT1_
FNDA:8,_ZNSt14__shared_countILN9__gnu_cxx12_Lock_policyE2EEC2I4KingSaIS4_EJR8PositionRbS8_R5BoardEEERPT_St20_Sp_alloc_shared_tagIT0_EDpOT1_
FN:672,_ZNSt14__shared_countILN9__gnu_cxx12_Lock_policyE2EEC2I4PawnSaIS4_EJR8PositionRbS8_R5BoardEEERPT_St20_Sp_alloc_shared_tagIT0_EDpOT1_
FNDA:25,_ZNSt14__shared_countILN9__gnu_cxx12_Lock_policyE2EEC2I4PawnSaIS4_EJR8PositionRbS8_R5BoardEEERPT_St20_Sp_alloc_shared_tagIT0_EDpOT1_
FN:727,_ZNSt14__shared_countILN9__gnu_cxx12_Lock_policyE2EED2Ev
FNDA:0,_ZNSt14__shared_countILN9__gnu_cxx12_Lock_policyE2EED2Ev
FN:733,_ZNSt14__shared_countILN9__gnu_cxx12_Lock_policyE2EEC2ERKS2_
FNDA:17917,_ZNSt14__shared_countILN9__gnu_cxx12_Lock_policyE2EEC2ERKS2_
FN:756,_ZNSt14__shared_countILN9__gnu_cxx12_Lock_policyE2EE7_M_swapERS2_
FNDA:65736,_ZNSt14__shared_countILN9__gnu_cxx12_Lock_policyE2EE7_M_swapERS2_
FN:1012,_ZNKSt19__shared_ptr_accessI5PieceLN9__gnu_cxx12_Lock_policyE2ELb0ELb0EEptEv
FNDA:0,_ZNKSt19__shared_ptr_accessI5PieceLN9__gnu_cxx12_Lock_policyE2ELb0ELb0EEptEv
FN:1020,_ZNKSt19__shared_ptr_accessI5PieceLN9__gnu_cxx12_Lock_policyE2ELb0ELb0EE6_M_getEv
FNDA:0,_ZNKSt19__shared_ptr_accessI5PieceLN9__gnu_cxx12_Lock_policyE2ELb0ELb0EE6_M_getEv
FN:1118,_ZNSt12__shared_ptrI5PieceLN9__gnu_cxx12_Lock_policyE2EEC2Ev
FNDA:0,_ZNSt12__shared_ptrI5PieceLN9__gnu_cxx12_Lock_policyE2EEC2Ev
FN:1167,_ZNSt12__shared_ptrI5PieceLN9__gnu_cxx12_Lock_policyE2EEC2ERKS3_
FNDA:17917,_ZNSt12__shared_ptrI5PieceLN9__gnu_cxx12_Lock_policyE2EEC2ERKS3_
FN:1169,_ZNSt12__shared_ptrI5PieceLN9__gnu_cxx12_Lock_policyE2EED2Ev
FNDA:0,_ZNSt12__shared_ptrI5PieceLN9__gnu_cxx12_Lock_policyE2EED2Ev
FN:1169,_ZNSt12__shared_ptrI4PawnLN9__gnu_cxx12_Lock_policyE2EED2Ev
FNDA:8393,_ZNSt12__shared_ptrI4PawnLN9__gnu_cxx12_Lock_policyE2EED2Ev
FN:1169,_ZNSt12__shared_ptrI4KingLN9__gnu_cxx12_Lock_policyE2EED2Ev
FNDA:14046,_ZNSt12__shared_ptrI4KingLN9__gnu_cxx12_Lock_policyE2EED2Ev
FN:1176,_ZNSt12__shared_ptrI5PieceLN9__gnu_cxx12_Lock_policyE2EEC2EOS3_
FNDA:36730,_ZNSt12__shared_ptrI5PieceLN9__gnu_cxx12_Lock_policyE2EEC2EOS3_
FN:1184,_ZNSt12__shared_ptrI5PieceLN9__gnu_cxx12_Lock_policyE2EEC2I4PawnvEEOS_IT_LS2_2EE
FNDA:8393,_ZNSt12__shared_ptrI5PieceLN9__gnu_cxx12_Lock_policyE2EEC2I4PawnvEEOS_IT_LS2_2EE
FN:1184,_ZNSt12__shared_ptrI5PieceLN9__gnu_cxx12_Lock_policyE2EEC2I4KingvEEOS_IT_LS2_2EE
FNDA:14046,_ZNSt12__shared_ptrI5PieceLN9__gnu_cxx12_Lock_policyE2EEC2I4KingvEEOS_IT_LS2_2EE
FN:1263,_ZNSt12__shared_ptrI5PieceLN9__gnu_cxx12_Lock_policyE2EEaSEOS3_
FNDA:6567,_ZNSt12__shared_ptrI5PieceLN9__gnu_cxx12_Lock_policyE2EEaSEOS3_
FN:1309,_ZNKSt12__shared_ptrI5PieceLN9__gnu_cxx12_Lock_policyE2EE3getEv
FNDA:0,_ZNKSt12__shared_ptrI5PieceLN9__gnu_cxx12_Lock_policyE2EE3getEv
FN:1312,_ZNKSt12__shared_ptrI5PieceLN9__gnu_cxx12_Lock_policyE2EEcvbEv
FNDA:18546,_ZNKSt12__shared_ptrI5PieceLN9__gnu_cxx12_Lock_policyE2EEcvbEv
FN:1324,_ZNSt12__shared_ptrI5PieceLN9__gnu_cxx12_Lock_policyE2EE4swapERS3_
FNDA:6567,_ZNSt12__shared_ptrI5PieceLN9__gnu_cxx12_Lock_policyE2EE4swapERS3_
FN:1343,_ZNSt12__shared_ptrI4KingLN9__gnu_cxx12_Lock_policyE2EEC2ISaIS0_EJR8PositionRbS8_R5BoardEEESt20_Sp_alloc_shared_tagIT_EDpOT0_
FNDA:8,_ZNSt12__shared_ptrI4KingLN9__gnu_cxx12_Lock_policyE2EEC2ISaIS0_EJR8PositionRbS8_R5BoardEEESt20_Sp_alloc_shared_tagIT_EDpOT0_
FN:1343,_ZNSt12__shared_ptrI4PawnLN9__gnu_cxx12_Lock_policyE2EEC2ISaIS0_EJR8PositionRbS8_R5BoardEEESt20_Sp_alloc_shared_tagIT_EDpOT0_
FNDA:25,_ZNSt12__shared_ptrI4PawnLN9__gnu_cxx12_Lock_policyE2EEC2ISaIS0_EJR8PositionRbS8_R5BoardEEESt20_Sp_alloc_shared_tagIT_EDpOT0_
FN:1388,_ZNSt12__shared_ptrI4KingLN9__gnu_cxx12_Lock_policyE2EE31_M_enable_shared_from_this_withIS0_S0_EENSt9enable_ifIXntsrNS3_15__has_esft_baseIT0_vEE5valueEvE4typeEPT_
FNDA:14046,_ZNSt12__shared_ptrI4KingLN9__gnu_cxx12_Lock_policyE2EE31_M_enable_shared_from_this_withIS0_S0_EENSt9enable_ifIXntsrNS3_15__has_esft_baseIT0_vEE5valueEvE4typeEPT_
FN:1388,_ZNSt12__shared_ptrI4PawnLN9__gnu_cxx12_Lock_policyE2EE31_M_enable_shared_from_this_withIS0_S0_EENSt9enable_ifIXntsrNS3_15__has_esft_baseIT0_vEE5valueEvE4typeEPT_
FNDA:8393,_ZNSt12__shared_ptrI4PawnLN9__gnu_cxx12_Lock_policyE2EE31_M_enable_shared_from_this_withIS0_S0_EENSt9enable_ifIXntsrNS3_15__has_esft_baseIT0_vEE5valueEvE4typeEPT_
DA:117,22439
DA:118,22439
DA:121,0
DA:122,0
DA:121,22439
DA:122,22439
DA:131,0
DA:132,0
DA:138,16797
DA:139,16797
DA:148,0
DA:152,0
DA:155,0
DA:167,0
DA:168,0
DA:171,0
DA:174,0
DA:414,16
DA:414,155
DA:418,310
DA:418,32
DA:508,0
DA:511,0
DA:531,16
DA:531,155
DA:533,310
DA:533,32
DA:543,8
DA:544,8
DA:548,8
DA:550,8
DA:543,25
DA:544,25
DA:548,25
DA:550,25
DA:552,0
DA:552,155
DA:552,0
DA:552,16
DA:555,155
DA:557,155
DA:558,155
DA:555,16
DA:557,16
DA:558,16
DA:562,155
DA:564,310
DA:565,310
DA:566,155
DA:567,155
DA:562,16
DA:564,32
DA:565,32
DA:566,16
DA:567,16
DA:575,0
DA:577,0
DA:582,0
DA:583,0
DA:585,0
DA:590,0
DA:591,0
DA:575,0
DA:577,0
DA:582,0
DA:583,0
DA:585,0
DA:590,0
DA:591,0
DA:594,48
DA:594,465
DA:616,59169
DA:617,59169
DA:672,8
DA:676,16
DA:677,8
DA:678,8
DA:679,16
DA:680,8
DA:681,8
DA:682,8
DA:683,8
DA:684,8
DA:672,25
DA:676,50
DA:677,25
DA:678,25
DA:679,50
DA:680,25
DA:681,25
DA:682,25
DA:683,25
DA:684,25
DA:727,0
DA:729,0
DA:730,0
DA:731,0
DA:733,17917
DA:734,17917
DA:736,17917
DA:737,16797
DA:738,17917
DA:756,65736
DA:758,65736
DA:759,65736
DA:760,65736
DA:761,65736
DA:1012,0
DA:1015,0
DA:1020,0
DA:1021,0
DA:1118,0
DA:1119,0
DA:1120,0
DA:1167,17917
DA:1169,14046
DA:1169,8393
DA:1169,0
DA:1176,36730
DA:1177,36730
DA:1179,36730
DA:1180,36730
DA:1181,36730
DA:1184,14046
DA:1185,14046
DA:1187,14046
DA:1188,14046
DA:1189,14046
DA:1184,8393
DA:1185,8393
DA:1187,8393
DA:1188,8393
DA:1189,8393
DA:1263,6567
DA:1265,6567
DA:1266,6567
DA:1309,0
DA:1310,0
DA:1312,18546
DA:1313,18546
DA:1324,6567
DA:1326,6567
DA:1327,6567
DA:1328,6567
DA:1343,8
DA:1344,8
DA:1345,8
DA:1343,25
DA:1344,25
DA:1345,25
DA:1388,14046
DA:1389,14046
DA:1388,8393
DA:1389,8393
end_of_record
SF:/usr/include/c++/9/bits/stl_algobase.h
FN:198,_ZSt3minImERKT_S2_S2_
FNDA:0,_ZSt3minImERKT_S2_S2_
FN:222,_ZSt3maxImERKT_S2_S2_
FNDA:19056,_ZSt3maxImERKT_S2_S2_
FN:280,_ZSt12__niter_baseIPSt10shared_ptrI5PieceEET_S4_
FNDA:77112,_ZSt12__niter_baseIPSt10shared_ptrI5PieceEET_S4_
FN:280,_ZSt12__niter_baseIPSt6vectorI4MoveSaIS1_EEET_S5_
FNDA:6816,_ZSt12__niter_baseIPSt6vectorI4MoveSaIS1_EEET_S5_
FN:289,_ZSt12__niter_wrapIN9__gnu_cxx17__normal_iteratorIPSt10shared_ptrI5PieceESt6vectorIS4_SaIS4_EEEES5_ET_SA_T0_
FNDA:1120,_ZSt12__niter_wrapIN9__gnu_cxx17__normal_iteratorIPSt10shared_ptrI5PieceESt6vectorIS4_SaIS4_EEEES5_ET_SA_T0_
FN:356,_ZNSt11__copy_moveILb1ELb0ESt26random_access_iterator_tagE8__copy_mIPSt10shared_ptrI5PieceES6_EET0_T_S8_S7_
FNDA:1120,_ZNSt11__copy_moveILb1ELb0ESt26random_access_iterator_tagE8__copy_mIPSt10shared_ptrI5PieceES6_EET0_T_S8_S7_
FN:393,_ZSt13__copy_move_aILb1EPSt10shared_ptrI5PieceES3_ET1_T0_S5_S4_
FNDA:1120,_ZSt13__copy_move_aILb1EPSt10shared_ptrI5PieceES3_ET1_T0_S5_S4_
FN:438,_ZSt14__copy_move_a2ILb1EN9__gnu_cxx17__normal_iteratorIPSt10shared_ptrI5PieceESt6vectorIS4_SaIS4_EEEES9_ET1_T0_SB_SA_
FNDA:1120,_ZSt14__copy_move_a2ILb1EN9__gnu_cxx17__normal_iteratorIPSt10shared_ptrI5PieceESt6vectorIS4_SaIS4_EEEES9_ET1_T0_SB_SA_
FN:497,_ZSt4moveIN9__gnu_cxx17__normal_iteratorIPSt10shared_ptrI5PieceESt6vectorIS4_SaIS4_EEEES9_ET0_T_SB_SA_
FNDA:1120,_ZSt4moveIN9__gnu_cxx17__normal_iteratorIPSt10shared_ptrI5PieceESt6vectorIS4_SaIS4_EEEES9_ET0_T_SB_SA_
DA:198,0
DA:203,0
DA:204,0
DA:205,0
DA:222,19056
DA:227,19056
DA:228,13503
DA:229,5553
DA:280,77112
DA:282,77112
DA:280,6816
DA:282,6816
DA:289,1120
DA:290,1120
DA:356,1120
DA:359,1120
DA:361,0
DA:362,0
DA:363,0
DA:365,1120
DA:393,1120
DA:398,1120
DA:404,1120
DA:438,1120
DA:440,1120
DA:443,1120
DA:497,1120
DA:505,1120
DA:506,1120
end_of_record
SF:/usr/include/c++/9/bits/cpp_type_traits.h
FN:428,_ZSt12__miter_baseIN9__gnu_cxx17__normal_iteratorIPSt10shared_ptrI5PieceESt6vectorIS4_SaIS4_EEEEET_SA_
FNDA:2240,_ZSt12__miter_baseIN9__gnu_cxx17__normal_iteratorIPSt10shared_ptrI5PieceESt6vectorIS4_SaIS4_EEEEET_SA_
DA:428,2240
DA:429,2240
end_of_record
SF:/usr/include/c++/9/ext/new_allocator.h
FN:80,_ZN9__gnu_cxx13new_allocatorISt23_Sp_counted_ptr_inplaceI4PawnSaIS2_ELNS_12_Lock_policyE2EEEC2Ev
FNDA:310,_ZN9__gnu_cxx13new_allocatorISt23_Sp_counted_ptr_inplaceI4PawnSaIS2_ELNS_12_Lock_policyE2EEEC2Ev
FN:80,_ZN9__gnu_cxx13new_allocatorIcEC2Ev
FNDA:0,_ZN9__gnu_cxx13new_allocatorIcEC2Ev
FN:80,_ZN9__gnu_cxx13new_allocatorISt23_Sp_counted_ptr_inplaceI4KingSaIS2_ELNS_12_Lock_policyE2EEEC2Ev
FNDA:32,_ZN9__gnu_cxx13new_allocatorISt23_Sp_counted_ptr_inplaceI4KingSaIS2_ELNS_12_Lock_policyE2EEEC2Ev
FN:80,_ZN9__gnu_cxx13new_allocatorISt10shared_ptrI5PieceEEC2Ev
FNDA:11062,_ZN9__gnu_cxx13new_allocatorISt10shared_ptrI5PieceEEC2Ev
FN:80,_ZN9__gnu_cxx13new_allocatorISt6vectorI4MoveSaIS2_EEEC2Ev
FNDA:3781,_ZN9__gnu_cxx13new_allocatorISt6vectorI4MoveSaIS2_EEEC2Ev
FN:80,_ZN9__gnu_cxx13new_allocatorI4PawnEC2Ev
FNDA:155,_ZN9__gnu_cxx13new_allocatorI4PawnEC2Ev
FN:80,_ZN9__gnu_cxx13new_allocatorI4KingEC2Ev
FNDA:16,_ZN9__gnu_cxx13new_allocatorI4KingEC2Ev
FN:83,_ZN9__gnu_cxx13new_allocatorISt10shared_ptrI5PieceEEC2ERKS4_
FNDA:4152,_ZN9__gnu_cxx13new_allocatorISt10shared_ptrI5PieceEEC2ERKS4_
FN:83,_ZN9__gnu_cxx13new_allocatorI8PositionEC2ERKS2_
FNDA:0,_ZN9__gnu_cxx13new_allocatorI8PositionEC2ERKS2_
FN:83,_ZN9__gnu_cxx13new_allocatorI4PawnEC2ERKS2_
FNDA:465,_ZN9__gnu_cxx13new_allocatorI4PawnEC2ERKS2_
FN:83,_ZN9__gnu_cxx13new_allocatorIcEC2ERKS1_
FNDA:0,_ZN9__gnu_cxx13new_allocatorIcEC2ERKS1_
FN:83,_ZN9__gnu_cxx13new_allocatorI4MoveEC2ERKS2_
FNDA:0,_ZN9__gnu_cxx13new_allocatorI4MoveEC2ERKS2_
FN:83,_ZN9__gnu_cxx13new_allocatorI4KingEC2ERKS2_
FNDA:48,_ZN9__gnu_cxx13new_allocatorI4KingEC2ERKS2_
FN:89,_ZN9__gnu_cxx13new_allocatorI8PositionED2Ev
FNDA:0,_ZN9__gnu_cxx13new_allocatorI8PositionED2Ev
FN:89,_ZN9__gnu_cxx13new_allocatorISt23_Sp_counted_ptr_inplaceI4PawnSaIS2_ELNS_12_Lock_policyE2EEED2Ev
FNDA:310,_ZN9__gnu_cxx13new_allocatorISt23_Sp_counted_ptr_inplaceI4PawnSaIS2_ELNS_12_Lock_policyE2EEED2Ev
FN:89,_ZN9__gnu_cxx13new_allocatorISt23_Sp_counted_ptr_inplaceI4KingSaIS2_ELNS_12_Lock_policyE2EEED2Ev
FNDA:32,_ZN9__gnu_cxx13new_allocatorISt23_Sp_counted_ptr_inplaceI4KingSaIS2_ELNS_12_Lock_policyE2EEED2Ev
FN:89,_ZN9__gnu_cxx13new_allocatorI4KingED2Ev
FNDA:64,_ZN9__gnu_cxx13new_allocatorI4KingED2Ev
FN:89,_ZN9__gnu_cxx13new_allocatorI4PawnED2Ev
FNDA:620,_ZN9__gnu_cxx13new_allocatorI4PawnED2Ev
FN:89,_ZN9__gnu_cxx13new_allocatorISt6vectorI4MoveSaIS2_EEED2Ev
FNDA:0,_ZN9__gnu_cxx13new_allocatorISt6vectorI4MoveSaIS2_EEED2Ev
FN:89,_ZN9__gnu_cxx13new_allocatorISt10shared_ptrI5PieceEED2Ev
FNDA:0,_ZN9__gnu_cxx13new_allocatorISt10shared_ptrI5PieceEED2Ev
FN:89,_ZN9__gnu_cxx13new_allocatorIcED2Ev
FNDA:0,_ZN9__gnu_cxx13new_allocatorIcED2Ev
FN:89,_ZN9__gnu_cxx13new_allocatorI4MoveED2Ev
FNDA:0,_ZN9__gnu_cxx13new_allocatorI4MoveED2Ev
FN:102,_ZN9__gnu_cxx13new_allocatorISt10shared_ptrI5PieceEE8allocateEmPKv
FNDA:14901,_ZN9__gnu_cxx13new_allocatorISt10shared_ptrI5PieceEE8allocateEmPKv
FN:102,_ZN9__gnu_cxx13new_allocatorISt6vectorI4MoveSaIS2_EEE8allocateEmPKv
FNDA:1136,_ZN9__gnu_cxx13new_allocatorISt6vectorI4MoveSaIS2_EEE8allocateEmPKv
FN:102,_ZN9__gnu_cxx13new_allocatorI4MoveE8allocateEmPKv
FNDA:0,_ZN9__gnu_cxx13new_allocatorI4MoveE8allocateEmPKv
FN:102,_ZN9__gnu_cxx13new_allocatorI8PositionE8allocateEmPKv
FNDA:0,_ZN9__gnu_cxx13new_allocatorI8PositionE8allocateEmPKv
FN:102,_ZN9__gnu_cxx13new_allocatorISt23_Sp_counted_ptr_inplaceI4KingSaIS2_ELNS_12_Lock_policyE2EEE8allocateEmPKv
FNDA:16,_ZN9__gnu_cxx13new_allocatorISt23_Sp_counted_ptr_inplaceI4KingSaIS2_ELNS_12_Lock_policyE2EEE8allocateEmPKv
FN:102,_ZN9__gnu_cxx13new_allocatorISt23_Sp_counted_ptr_inplaceI4PawnSaIS2_ELNS_12_Lock_policyE2EEE8allocateEmPKv
FNDA:155,_ZN9__gnu_cxx13new_allocatorISt23_Sp_counted_ptr_inplaceI4PawnSaIS2_ELNS_12_Lock_policyE2EEE8allocateEmPKv
FN:119,_ZN9__gnu_cxx13new_allocatorI8PositionE10deallocateEPS1_m
FNDA:0,_ZN9__gnu_cxx13new_allocatorI8PositionE10deallocateEPS1_m
FN:119,_ZN9__gnu_cxx13new_allocatorISt23_Sp_counted_ptr_inplaceI4KingSaIS2_ELNS_12_Lock_policyE2EEE10deallocateEPS5_m
FNDA:16,_ZN9__gnu_cxx13new_allocatorISt23_Sp_counted_ptr_inplaceI4KingSaIS2_ELNS_12_Lock_policyE2EEE10deallocateEPS5_m
FN:119,_ZN9__gnu_cxx13new_allocatorISt23_Sp_counted_ptr_inplaceI4PawnSaIS2_ELNS_12_Lock_policyE2EEE10deallocateEPS5_m
FNDA:155,_ZN9__gnu_cxx13new_allocatorISt23_Sp_counted_ptr_inplaceI4PawnSaIS2_ELNS_12_Lock_policyE2EEE10deallocateEPS5_m
FN:119,_ZN9__gnu_cxx13new_allocatorI4MoveE10deallocateEPS1_m
FNDA:0,_ZN9__gnu_cxx13new_allocatorI4MoveE10deallocateEPS1_m
FN:119,_ZN9__gnu_cxx13new_allocatorISt10shared_ptrI5PieceEE10deallocateEPS3_m
FNDA:0,_ZN9__gnu_cxx13new_allocatorISt10shared_ptrI5PieceEE10deallocateEPS3_m
FN:119,_ZN9__gnu_cxx13new_allocatorISt6vectorI4MoveSaIS2_EEE10deallocateEPS4_m
FNDA:0,_ZN9__gnu_cxx13new_allocatorISt6vectorI4MoveSaIS2_EEE10deallocateEPS4_m
FN:132,_ZNK9__gnu_cxx13new_allocatorI4MoveE8max_sizeEv
FNDA:0,_ZNK9__gnu_cxx13new_allocatorI4MoveE8max_sizeEv
FN:132,_ZNK9__gnu_cxx13new_allocatorISt10shared_ptrI5PieceEE8max_sizeEv
FNDA:40605,_ZNK9__gnu_cxx13new_allocatorISt10shared_ptrI5PieceEE8max_sizeEv
FN:132,_ZNK9__gnu_cxx13new_allocatorISt23_Sp_counted_ptr_inplaceI4KingSaIS2_ELNS_12_Lock_policyE2EEE8max_sizeEv
FNDA:16,_ZNK9__gnu_cxx13new_allocatorISt23_Sp_counted_ptr_inplaceI4KingSaIS2_ELNS_12_Lock_policyE2EEE8max_sizeEv
FN:132,_ZNK9__gnu_cxx13new_allocatorISt23_Sp_counted_ptr_inplaceI4PawnSaIS2_ELNS_12_Lock_policyE2EEE8max_sizeEv
FNDA:155,_ZNK9__gnu_cxx13new_allocatorISt23_Sp_counted_ptr_inplaceI4PawnSaIS2_ELNS_12_Lock_policyE2EEE8max_sizeEv
FN:132,_ZNK9__gnu_cxx13new_allocatorI8PositionE8max_sizeEv
FNDA:0,_ZNK9__gnu_cxx13new_allocatorI8PositionE8max_sizeEv
FN:132,_ZNK9__gnu_cxx13new_allocatorISt6vectorI4MoveSaIS2_EEE8max_sizeEv
FNDA:3408,_ZNK9__gnu_cxx13new_allocatorISt6vectorI4MoveSaIS2_EEE8max_sizeEv
FN:144,_ZN9__gnu_cxx13new_allocatorI4PawnE9constructIS1_JR8PositionRbS6_R5BoardEEEvPT_DpOT0_
FNDA:25,_ZN9__gnu_cxx13new_allocatorI4PawnE9constructIS1_JR8PositionRbS6_R5BoardEEEvPT_DpOT0_
FN:144,_ZN9__gnu_cxx13new_allocatorISt6vectorI4MoveSaIS2_EEE9constructIS4_JS4_EEEvPT_DpOT0_
FNDA:201,_ZN9__gnu_cxx13new_allocatorISt6vectorI4MoveSaIS2_EEE9constructIS4_JS4_EEEvPT_DpOT0_
FN:144,_ZN9__gnu_cxx13new_allocatorI4KingE9constructIS1_JR8PositionRbS6_R5BoardEEEvPT_DpOT0_
FNDA:8,_ZN9__gnu_cxx13new_allocatorI4KingE9constructIS1_JR8PositionRbS6_R5BoardEEEvPT_DpOT0_
FN:144,_ZN9__gnu_cxx13new_allocatorISt6vectorI4MoveSaIS2_EEE9constructIS4_JRKS4_EEEvPT_DpOT0_
FNDA:1180,_ZN9__gnu_cxx13new_allocatorISt6vectorI4MoveSaIS2_EEE9constructIS4_JRKS4_EEEvPT_DpOT0_
FN:144,_ZN9__gnu_cxx13new_allocatorISt10shared_ptrI5PieceEE9constructIS3_JS3_EEEvPT_DpOT0_
FNDA:30163,_ZN9__gnu_cxx13new_allocatorISt10shared_ptrI5PieceEE9constructIS3_JS3_EEEvPT_DpOT0_
FN:151,_ZN9__gnu_cxx13new_allocatorI4PawnE7destroyIS1_EEvPT_
FNDA:155,_ZN9__gnu_cxx13new_allocatorI4PawnE7destroyIS1_EEvPT_
FN:151,_ZN9__gnu_cxx13new_allocatorISt6vectorI4MoveSaIS2_EEE7destroyIS4_EEvPT_
FNDA:201,_ZN9__gnu_cxx13new_allocatorISt6vectorI4MoveSaIS2_EEE7destroyIS4_EEvPT_
FN:151,_ZN9__gnu_cxx13new_allocatorISt10shared_ptrI5PieceEE7destroyIS3_EEvPT_
FNDA:13998,_ZN9__gnu_cxx13new_allocatorISt10shared_ptrI5PieceEE7destroyIS3_EEvPT_
FN:151,_ZN9__gnu_cxx13new_allocatorI4KingE7destroyIS1_EEvPT_
FNDA:16,_ZN9__gnu_cxx13new_allocatorI4KingE7destroyIS1_EEvPT_
DA:80,32
DA:80,310
DA:80,16
DA:80,155
DA:80,3781
DA:80,11062
DA:80,0
DA:83,0
DA:83,48
DA:83,465
DA:83,4152
DA:83,0
DA:83,0
DA:89,32
DA:89,310
DA:89,64
DA:89,620
DA:89,0
DA:89,0
DA:89,0
DA:89,0
DA:89,0
DA:102,0
DA:104,0
DA:105,0
DA:114,0
DA:102,0
DA:104,0
DA:105,0
DA:114,0
DA:102,16
DA:104,16
DA:105,0
DA:114,16
DA:102,155
DA:104,155
DA:105,0
DA:114,155
DA:102,14901
DA:104,14901
DA:105,0
DA:114,14901
DA:102,1136
DA:104,1136
DA:105,0
DA:114,1136
DA:119,16
DA:128,16
DA:129,16
DA:119,155
DA:128,155
DA:129,155
DA:119,0
DA:128,0
DA:129,0
DA:119,0
DA:128,0
DA:129,0
DA:119,0
DA:128,0
DA:129,0
DA:119,0
DA:128,0
DA:129,0
DA:132,0
DA:135,0
DA:132,0
DA:135,0
DA:132,16
DA:135,16
DA:132,155
DA:135,155
DA:132,40605
DA:135,40605
DA:132,3408
DA:135,3408
DA:144,201
DA:147,201
DA:144,8
DA:147,8
DA:144,25
DA:147,25
DA:144,30163
DA:147,30163
DA:144,1180
DA:147,1180
DA:151,155
DA:153,155
DA:151,16
DA:153,16
DA:151,13998
DA:153,13998
DA:151,201
DA:153,201
end_of_record
SF:/usr/include/c++/9/bits/stl_uninitialized.h
FN:76,_ZNSt20__uninitialized_copyILb0EE13__uninit_copyIN9__gnu_cxx17__normal_iteratorIPK8PositionSt6vectorIS4_SaIS4_EEEEPS4_EET0_T_SD_SC_
FNDA:0,_ZNSt20__uninitialized_copyILb0EE13__uninit_copyIN9__gnu_cxx17__normal_iteratorIPK8PositionSt6vectorIS4_SaIS4_EEEEPS4_EET0_T_SD_SC_
FN:76,_ZNSt20__uninitialized_copyILb0EE13__uninit_copyIN9__gnu_cxx17__normal_iteratorIPKSt10shared_ptrI5PieceESt6vectorIS6_SaIS6_EEEEPS6_EET0_T_SF_SE_
FNDA:2076,_ZNSt20__uninitialized_copyILb0EE13__uninit_copyIN9__gnu_cxx17__normal_iteratorIPKSt10shared_ptrI5PieceESt6vectorIS6_SaIS6_EEEEPS6_EET0_T_SF_SE_
FN:76,_ZNSt20__uninitialized_copyILb0EE13__uninit_copyIN9__gnu_cxx17__normal_iteratorIPK4MoveSt6vectorIS4_SaIS4_EEEEPS4_EET0_T_SD_SC_
FNDA:0,_ZNSt20__uninitialized_copyILb0EE13__uninit_copyIN9__gnu_cxx17__normal_iteratorIPK4MoveSt6vectorIS4_SaIS4_EEEEPS4_EET0_T_SD_SC_
FN:76,_ZNSt20__uninitialized_copyILb0EE13__uninit_copyISt13move_iteratorIPSt10shared_ptrI5PieceEES6_EET0_T_S9_S8_
FNDA:0,_ZNSt20__uninitialized_copyILb0EE13__uninit_copyISt13move_iteratorIPSt10shared_ptrI5PieceEES6_EET0_T_S9_S8_
FN:76,_ZNSt20__uninitialized_copyILb0EE13__uninit_copyISt13move_iteratorIPSt6vectorI4MoveSaIS4_EEES7_EET0_T_SA_S9_
FNDA:0,_ZNSt20__uninitialized_copyILb0EE13__uninit_copyISt13move_iteratorIPSt6vectorI4MoveSaIS4_EEES7_EET0_T_SA_S9_
FN:115,_ZSt18uninitialized_copyIN9__gnu_cxx17__normal_iteratorIPK8PositionSt6vectorIS2_SaIS2_EEEEPS2_ET0_T_SB_SA_
FNDA:0,_ZSt18uninitialized_copyIN9__gnu_cxx17__normal_iteratorIPK8PositionSt6vectorIS2_SaIS2_EEEEPS2_ET0_T_SB_SA_
FN:115,_ZSt18uninitialized_copyIN9__gnu_cxx17__normal_iteratorIPKSt10shared_ptrI5PieceESt6vectorIS4_SaIS4_EEEEPS4_ET0_T_SD_SC_
FNDA:2076,_ZSt18uninitialized_copyIN9__gnu_cxx17__normal_iteratorIPKSt10shared_ptrI5PieceESt6vectorIS4_SaIS4_EEEEPS4_ET0_T_SD_SC_
FN:115,_ZSt18uninitialized_copyISt13move_iteratorIPSt6vectorI4MoveSaIS2_EEES5_ET0_T_S8_S7_
FNDA:0,_ZSt18uninitialized_copyISt13move_iteratorIPSt6vectorI4MoveSaIS2_EEES5_ET0_T_S8_S7_
FN:115,_ZSt18uninitialized_copyISt13move_iteratorIPSt10shared_ptrI5PieceEES4_ET0_T_S7_S6_
FNDA:0,_ZSt18uninitialized_copyISt13move_iteratorIPSt10shared_ptrI5PieceEES4_ET0_T_S7_S6_
FN:115,_ZSt18uninitialized_copyIN9__gnu_cxx17__normal_iteratorIPK4MoveSt6vectorIS2_SaIS2_EEEEPS2_ET0_T_SB_SA_
FNDA:0,_ZSt18uninitialized_copyIN9__gnu_cxx17__normal_iteratorIPK4MoveSt6vectorIS2_SaIS2_EEEEPS2_ET0_T_SB_SA_
FN:305,_ZSt22__uninitialized_copy_aIN9__gnu_cxx17__normal_iteratorIPK4MoveSt6vectorIS2_SaIS2_EEEEPS2_S2_ET0_T_SB_SA_RSaIT1_E
FNDA:0,_ZSt22__uninitialized_copy_aIN9__gnu_cxx17__normal_iteratorIPK4MoveSt6vectorIS2_SaIS2_EEEEPS2_S2_ET0_T_SB_SA_RSaIT1_E
FN:305,_ZSt22__uninitialized_copy_aISt13move_iteratorIPSt10shared_ptrI5PieceEES4_S3_ET0_T_S7_S6_RSaIT1_E
FNDA:0,_ZSt22__uninitialized_copy_aISt13move_iteratorIPSt10shared_ptrI5PieceEES4_S3_ET0_T_S7_S6_RSaIT1_E
FN:305,_ZSt22__uninitialized_copy_aISt13move_iteratorIPSt6vectorI4MoveSaIS2_EEES5_S4_ET0_T_S8_S7_RSaIT1_E
FNDA:0,_ZSt22__uninitialized_copy_aISt13move_iteratorIPSt6vectorI4MoveSaIS2_EEES5_S4_ET0_T_S8_S7_RSaIT1_E
FN:305,_ZSt22__uninitialized_copy_aIN9__gnu_cxx17__normal_iteratorIPK8PositionSt6vectorIS2_SaIS2_EEEEPS2_S2_ET0_T_SB_SA_RSaIT1_E
FNDA:0,_ZSt22__uninitialized_copy_aIN9__gnu_cxx17__normal_iteratorIPK8PositionSt6vectorIS2_SaIS2_EEEEPS2_S2_ET0_T_SB_SA_RSaIT1_E
FN:305,_ZSt22__uninitialized_copy_aIN9__gnu_cxx17__normal_iteratorIPKSt10shared_ptrI5PieceESt6vectorIS4_SaIS4_EEEEPS4_S4_ET0_T_SD_SC_RSaIT1_E
FNDA:2076,_ZSt22__uninitialized_copy_aIN9__gnu_cxx17__normal_iteratorIPKSt10shared_ptrI5PieceESt6vectorIS4_SaIS4_EEEEPS4_S4_ET0_T_SD_SC_RSaIT1_E
FN:323,_ZSt34__uninitialized_move_if_noexcept_aIPSt10shared_ptrI5PieceES3_SaIS2_EET0_T_S6_S5_RT1_
FNDA:0,_ZSt34__uninitialized_move_if_noexcept_aIPSt10shared_ptrI5PieceES3_SaIS2_EET0_T_S6_S5_RT1_
FN:323,_ZSt34__uninitialized_move_if_noexcept_aIPSt6vectorI4MoveSaIS1_EES4_SaIS3_EET0_T_S7_S6_RT1_
FNDA:0,_ZSt34__uninitialized_move_if_noexcept_aIPSt6vectorI4MoveSaIS1_EES4_SaIS3_EET0_T_S7_S6_RT1_
FN:905,_ZSt19__relocate_object_aISt6vectorI4MoveSaIS1_EES3_SaIS3_EEvPT_PT0_RT1_
FNDA:201,_ZSt19__relocate_object_aISt6vectorI4MoveSaIS1_EES3_SaIS3_EEvPT_PT0_RT1_
FN:905,_ZSt19__relocate_object_aISt10shared_ptrI5PieceES2_SaIS2_EEvPT_PT0_RT1_
FNDA:7724,_ZSt19__relocate_object_aISt10shared_ptrI5PieceES2_SaIS2_EEvPT_PT0_RT1_
FN:936,_ZSt14__relocate_a_1IPSt6vectorI4MoveSaIS1_EES4_SaIS3_EET0_T_S7_S6_RT1_
FNDA:2272,_ZSt14__relocate_a_1IPSt6vectorI4MoveSaIS1_EES4_SaIS3_EET0_T_S7_S6_RT1_
FN:936,_ZSt14__relocate_a_1IPSt10shared_ptrI5PieceES3_SaIS2_EET0_T_S6_S5_RT1_
FNDA:25704,_ZSt14__relocate_a_1IPSt10shared_ptrI5PieceES3_SaIS2_EET0_T_S6_S5_RT1_
FN:958,_ZSt12__relocate_aIPSt10shared_ptrI5PieceES3_SaIS2_EET0_T_S6_S5_RT1_
FNDA:25704,_ZSt12__relocate_aIPSt10shared_ptrI5PieceES3_SaIS2_EET0_T_S6_S5_RT1_
FN:958,_ZSt12__relocate_aIPSt6vectorI4MoveSaIS1_EES4_SaIS3_EET0_T_S7_S6_RT1_
FNDA:2272,_ZSt12__relocate_aIPSt6vectorI4MoveSaIS1_EES4_SaIS3_EET0_T_S7_S6_RT1_
DA:76,0
DA:79,0
DA:82,0
DA:83,0
DA:84,0
DA:76,0
DA:79,0
DA:82,0
DA:83,0
DA:84,0
DA:86,0
DA:88,0
DA:89,0
DA:76,0
DA:79,0
DA:82,0
DA:83,0
DA:84,0
DA:86,0
DA:88,0
DA:89,0
DA:76,0
DA:79,0
DA:82,0
DA:83,0
DA:84,0
DA:86,0
DA:88,0
DA:89,0
DA:76,2076
DA:79,2076
DA:82,5279
DA:83,3203
DA:84,2076
DA:115,0
DA:134,0
DA:140,0
DA:115,0
DA:134,0
DA:140,0
DA:115,0
DA:134,0
DA:140,0
DA:115,0
DA:134,0
DA:140,0
DA:115,2076
DA:134,2076
DA:140,2076
DA:305,0
DA:307,0
DA:305,0
DA:307,0
DA:305,0
DA:307,0
DA:305,0
DA:307,0
DA:305,2076
DA:307,2076
DA:323,0
DA:329,0
DA:330,0
DA:323,0
DA:329,0
DA:330,0
DA:905,7724
DA:912,7724
DA:913,7724
DA:914,7724
DA:905,201
DA:912,201
DA:913,201
DA:914,201
DA:936,25704
DA:948,25704
DA:949,33428
DA:950,7724
DA:952,25704
DA:936,2272
DA:948,2272
DA:949,2473
DA:950,201
DA:952,2272
DA:958,25704
DA:964,25704
DA:966,25704
DA:958,2272
DA:964,2272
DA:966,2272
end_of_record
SF:/usr/include/c++/9/bits/stl_algo.h
FN:112,_ZSt9__find_ifIN9__gnu_cxx17__normal_iteratorIPSt10shared_ptrI5PieceESt6vectorIS4_SaIS4_EEEENS0_5__ops10_Iter_predIZN6Player10erasePieceES4_EUlRKS4_E_EEET_SH_SH_T0_St26random_access_iterator_tag
FNDA:6274,_ZSt9__find_ifIN9__gnu_cxx17__normal_iteratorIPSt10shared_ptrI5PieceESt6vectorIS4_SaIS4_EEEENS0_5__ops10_Iter_predIZN6Player10erasePieceES4_EUlRKS4_E_EEET_SH_SH_T0_St26random_access_iterator_tag
FN:159,_ZSt9__find_ifIN9__gnu_cxx17__normal_iteratorIPSt10shared_ptrI5PieceESt6vectorIS4_SaIS4_EEEENS0_5__ops10_Iter_predIZN6Player10erasePieceES4_EUlRKS4_E_EEET_SH_SH_T0_
FNDA:6274,_ZSt9__find_ifIN9__gnu_cxx17__normal_iteratorIPSt10shared_ptrI5PieceESt6vectorIS4_SaIS4_EEEENS0_5__ops10_Iter_predIZN6Player10erasePieceES4_EUlRKS4_E_EEET_SH_SH_T0_
FN:860,_ZSt11__remove_ifIN9__gnu_cxx17__normal_iteratorIPSt10shared_ptrI5PieceESt6vectorIS4_SaIS4_EEEENS0_5__ops10_Iter_predIZN6Player10erasePieceES4_EUlRKS4_E_EEET_SH_SH_T0_
FNDA:6274,_ZSt11__remove_ifIN9__gnu_cxx17__normal_iteratorIPSt10shared_ptrI5PieceESt6vectorIS4_SaIS4_EEEENS0_5__ops10_Iter_predIZN6Player10erasePieceES4_EUlRKS4_E_EEET_SH_SH_T0_
FN:929,_ZSt9remove_ifIN9__gnu_cxx17__normal_iteratorIPSt10shared_ptrI5PieceESt6vectorIS4_SaIS4_EEEEZN6Player10erasePieceES4_EUlRKS4_E_ET_SE_SE_T0_
FNDA:6274,_ZSt9remove_ifIN9__gnu_cxx17__normal_iteratorIPSt10shared_ptrI5PieceESt6vectorIS4_SaIS4_EEEEZN6Player10erasePieceES4_EUlRKS4_E_ET_SE_SE_T0_
DA:112,6274
DA:116,6274
DA:118,7220
DA:120,1872
DA:121,365
DA:122,1507
DA:124,1507
DA:125,196
DA:126,1311
DA:128,1311
DA:129,183
DA:130,1128
DA:132,1128
DA:133,182
DA:134,946
DA:137,5348
DA:139,395
DA:140,395
DA:141,25
DA:142,370
DA:143,784
DA:144,784
DA:145,207
DA:146,577
DA:147,4936
DA:148,4936
DA:149,3996
DA:150,940
DA:151,1120
DA:153,1120
DA:159,6274
DA:161,6274
DA:162,12548
DA:860,6274
DA:863,6274
DA:864,6274
DA:865,1120
DA:866,5154
DA:867,5154
DA:868,11721
DA:869,6567
DA:871,6567
DA:872,6567
DA:874,5154
DA:929,6274
DA:939,6274
DA:940,6274
end_of_record
SF:/usr/include/c++/9/typeinfo
FN:120,_ZNKSt9type_infoeqERKS_
FNDA:0,_ZNKSt9type_infoeqERKS_
DA:120,0
DA:122,0
DA:123,0
DA:124,0
end_of_record
SF:/usr/include/c++/9/iostream
end_of_record
SF:/usr/include/c++/9/bits/basic_string.tcc
FN:206,_ZNSt7__cxx1112basic_stringIcSt11char_traitsIcESaIcEE12_M_constructIPcEEvT_S7_St20forward_iterator_tag
FNDA:0,_ZNSt7__cxx1112basic_stringIcSt11char_traitsIcESaIcEE12_M_constructIPcEEvT_S7_St20forward_iterator_tag
DA:206,0
DA:211,0
DA:212,0
DA:215,0
DA:217,0
DA:219,0
DA:220,0
DA:225,0
DA:226,0
DA:228,0
DA:229,0
DA:232,0
DA:233,0
end_of_record
SF:/usr/include/c++/9/bits/stl_iterator_base_funcs.h
FN:98,_ZSt10__distanceIPcENSt15iterator_traitsIT_E15difference_typeES2_S2_St26random_access_iterator_tag
FNDA:0,_ZSt10__distanceIPcENSt15iterator_traitsIT_E15difference_typeES2_S2_St26random_access_iterator_tag
FN:138,_ZSt8distanceIPcENSt15iterator_traitsIT_E15difference_typeES2_S2_
FNDA:0,_ZSt8distanceIPcENSt15iterator_traitsIT_E15difference_typeES2_S2_
DA:98,0
DA:104,0
DA:138,0
DA:141,0
DA:142,0
end_of_record
SF:/usr/include/c++/9/bits/vector.tcc
FN:109,_ZNSt6vectorISt10shared_ptrI5PieceESaIS2_EE12emplace_backIJS2_EEEvDpOT_
FNDA:22439,_ZNSt6vectorISt10shared_ptrI5PieceESaIS2_EE12emplace_backIJS2_EEEvDpOT_
FN:171,_ZNSt6vectorISt10shared_ptrI5PieceESaIS2_EE8_M_eraseEN9__gnu_cxx17__normal_iteratorIPS2_S4_EE
FNDA:6274,_ZNSt6vectorISt10shared_ptrI5PieceESaIS2_EE8_M_eraseEN9__gnu_cxx17__normal_iteratorIPS2_S4_EE
FN:426,_ZNSt6vectorISt10shared_ptrI5PieceESaIS2_EE17_M_realloc_insertIJS2_EEEvN9__gnu_cxx17__normal_iteratorIPS2_S4_EEDpOT_
FNDA:12852,_ZNSt6vectorISt10shared_ptrI5PieceESaIS2_EE17_M_realloc_insertIJS2_EEEvN9__gnu_cxx17__normal_iteratorIPS2_S4_EEDpOT_
FN:426,_ZNSt6vectorIS_I4MoveSaIS0_EESaIS2_EE17_M_realloc_insertIJRKS2_EEEvN9__gnu_cxx17__normal_iteratorIPS2_S4_EEDpOT_
FNDA:1136,_ZNSt6vectorIS_I4MoveSaIS0_EESaIS2_EE17_M_realloc_insertIJRKS2_EEEvN9__gnu_cxx17__normal_iteratorIPS2_S4_EEDpOT_
DA:109,22439
DA:112,22439
DA:115,9587
DA:117,9587
DA:121,12852
DA:125,22439
DA:171,6274
DA:174,6274
DA:175,1120
DA:176,6274
DA:177,6274
DA:179,6274
DA:426,12852
DA:435,12852
DA:437,12852
DA:438,12852
DA:439,12852
DA:440,12852
DA:441,12852
DA:449,12852
DA:450,12852
DA:456,12852
DA:459,12852
DA:461,12852
DA:462,12852
DA:464,12852
DA:466,12852
DA:467,12852
DA:474,0
DA:475,0
DA:477,0
DA:481,0
DA:482,0
DA:485,0
DA:487,0
DA:488,0
DA:489,0
DA:491,0
DA:492,0
DA:493,0
DA:496,12852
DA:498,0
DA:500,12852
DA:501,12852
DA:502,12852
DA:503,12852
DA:504,12852
DA:505,12852
DA:426,1136
DA:435,1136
DA:437,1136
DA:438,1136
DA:439,1136
DA:440,1136
DA:441,1136
DA:449,1136
DA:450,1136
DA:456,1136
DA:459,1136
DA:461,1136
DA:462,1136
DA:464,1136
DA:466,1136
DA:467,1136
DA:474,0
DA:475,0
DA:477,0
DA:481,0
DA:482,0
DA:485,0
DA:487,0
DA:488,0
DA:489,0
DA:491,0
DA:492,0
DA:493,0
DA:496,1136
DA:498,0
DA:500,1136
DA:501,1136
DA:502,1136
DA:503,1136
DA:504,1136
DA:505,1136
end_of_record
SF:/home/napiad/studia/eiti/mgr/sem1/zpr/checkers-webapp/checkers/src/Player.cc
FN:14,_ZN6PlayerC2Eb
FNDA:12,_ZN6PlayerC2Eb
FN:16,_ZN6PlayerC2ERKS_
FNDA:11050,_ZN6PlayerC2ERKS_
FN:26,_ZN6PlayeraSERKS_
FNDA:4042,_ZN6PlayeraSERKS_
FN:45,_ZNK6Player7isWhiteEv
FNDA:0,_ZNK6Player7isWhiteEv
FN:49,_ZNK6Player7getNameB5cxx11Ev
FNDA:0,_ZNK6Player7getNameB5cxx11Ev
FN:53,_ZN6Player10setIsWhiteEb
FNDA:26,_ZN6Player10setIsWhiteEb
FN:57,_ZN6Player7setNameENSt7__cxx1112basic_stringIcSt11char_traitsIcESaIcEEE
FNDA:3,_ZN6Player7setNameENSt7__cxx1112basic_stringIcSt11char_traitsIcESaIcEEE
FN:61,_ZNK6Player9getPiecesEv
FNDA:2076,_ZNK6Player9getPiecesEv
FN:68,_ZNK6Player13getValidMovesER5Board
FNDA:1043,_ZNK6Player13getValidMovesER5Board
FN:87,_ZN6Player10erasePieceESt10shared_ptrI5PieceE
FNDA:6274,_ZN6Player10erasePieceESt10shared_ptrI5PieceE
FN:89,_ZZN6Player10erasePieceESt10shared_ptrI5PieceEENKUlRKS2_E_clES4_
FNDA:18500,_ZZN6Player10erasePieceESt10shared_ptrI5PieceEENKUlRKS2_E_clES4_
FN:97,_ZN6Player11changePieceESt10shared_ptrI5PieceERK8Position
FNDA:0,_ZN6Player11changePieceESt10shared_ptrI5PieceERK8Position
FN:107,_ZN6Player9movePieceER5BoardRS_RK4Move
FNDA:2781,_ZN6Player9movePieceER5BoardRS_RK4Move
FN:127,_ZNK6Player9findPieceERK8Position
FNDA:5850,_ZNK6Player9findPieceERK8Position
FN:134,_ZN6Player16getNumberOfPawnsER5Board
FNDA:3620,_ZN6Player16getNumberOfPawnsER5Board
FN:151,_ZN6Player16getNumberOfKingsER5Board
FNDA:3620,_ZN6Player16getNumberOfKingsER5Board
FN:167,_ZNK6Player10canCaptureER5Board
FNDA:24,_ZNK6Player10canCaptureER5Board
FN:178,_ZNK6Player11isMoveValidERK4MoveR5Board
FNDA:24,_ZNK6Player11isMoveValidERK4MoveR5Board
FN:199,_ZNK6Player14isMoveMultipleERK4MoveR5Board
FNDA:22,_ZNK6Player14isMoveMultipleERK4MoveR5Board
FN:214,_ZN6Player32initializePiecesFromBoardPerUserER5Boardb
FNDA:20,_ZN6Player32initializePiecesFromBoardPerUserER5Boardb
DA:14,12
DA:16,11050
DA:18,27236
DA:19,16186
DA:21,11050
DA:22,11050
DA:23,11050
DA:24,11050
DA:26,4042
DA:28,4042
DA:29,9980
DA:30,6001
DA:34,4042
DA:35,10124
DA:36,6082
DA:38,4042
DA:39,4042
DA:40,4042
DA:42,4042
DA:45,0
DA:46,0
DA:49,0
DA:50,0
DA:53,26
DA:54,26
DA:55,26
DA:57,3
DA:58,3
DA:59,3
DA:61,2076
DA:62,2076
DA:68,1043
DA:69,1043
DA:70,2659
DA:71,3232
DA:72,1616
DA:74,1043
DA:75,2007
DA:76,2318
DA:77,1159
DA:80,1043
DA:87,6274
DA:88,6274
DA:89,24774
DA:90,6274
DA:97,0
DA:98,0
DA:99,0
DA:107,2781
DA:108,2781
DA:109,5562
DA:111,2781
DA:112,7
DA:113,7
DA:115,2781
DA:116,2781
DA:117,465
DA:118,242
DA:120,2781
DA:121,2781
DA:127,5850
DA:128,8218
DA:129,8218
DA:131,0
DA:134,3620
DA:135,3620
DA:137,32580
DA:138,260640
DA:139,231680
DA:140,115840
DA:143,115840
DA:148,3620
DA:151,3620
DA:152,3620
DA:154,32580
DA:155,260640
DA:156,231680
DA:157,115840
DA:160,115840
DA:164,3620
DA:167,24
DA:168,76
DA:169,57
DA:170,57
DA:172,19
DA:178,24
DA:179,48
DA:180,24
DA:181,48
DA:182,24
DA:183,0
DA:185,24
DA:186,19
DA:188,76
DA:189,74
DA:190,22
DA:193,2
DA:199,22
DA:200,44
DA:201,22
DA:202,44
DA:203,22
DA:204,8
DA:205,5
DA:206,2
DA:210,20
DA:214,20
DA:215,180
DA:216,1440
DA:217,1280
DA:218,1280
DA:219,1280
DA:220,640
DA:221,10
DA:223,640
DA:224,6
DA:228,640
DA:229,15
DA:231,640
DA:232,2
DA:238,20
end_of_record
SF:/usr/include/c++/9/bits/shared_ptr.h
FN:127,_ZNSt10shared_ptrI5PieceEC2Ev
FNDA:0,_ZNSt10shared_ptrI5PieceEC2Ev
FN:129,_ZNSt10shared_ptrI5PieceEC2ERKS1_
FNDA:17917,_ZNSt10shared_ptrI5PieceEC2ERKS1_
FN:254,_ZNSt10shared_ptrI5PieceEC2EOS1_
FNDA:30163,_ZNSt10shared_ptrI5PieceEC2EOS1_
FN:263,_ZNSt10shared_ptrI5PieceEC2I4KingvEEOS_IT_E
FNDA:14046,_ZNSt10shared_ptrI5PieceEC2I4KingvEEOS_IT_E
FN:263,_ZNSt10shared_ptrI5PieceEC2I4PawnvEEOS_IT_E
FNDA:8393,_ZNSt10shared_ptrI5PieceEC2I4PawnvEEOS_IT_E
FN:307,_ZNSt10shared_ptrI5PieceEC2EDn
FNDA:0,_ZNSt10shared_ptrI5PieceEC2EDn
FN:333,_ZNSt10shared_ptrI5PieceEaSEOS1_
FNDA:6567,_ZNSt10shared_ptrI5PieceEaSEOS1_
FN:358,_ZNSt10shared_ptrI4KingEC2ISaIS0_EJR8PositionRbS6_R5BoardEEESt20_Sp_alloc_shared_tagIT_EDpOT0_
FNDA:8,_ZNSt10shared_ptrI4KingEC2ISaIS0_EJR8PositionRbS6_R5BoardEEESt20_Sp_alloc_shared_tagIT_EDpOT0_
FN:358,_ZNSt10shared_ptrI4PawnEC2ISaIS0_EJR8PositionRbS6_R5BoardEEESt20_Sp_alloc_shared_tagIT_EDpOT0_
FNDA:25,_ZNSt10shared_ptrI4PawnEC2ISaIS0_EJR8PositionRbS6_R5BoardEEESt20_Sp_alloc_shared_tagIT_EDpOT0_
FN:383,_ZSteqI5PieceS0_EbRKSt10shared_ptrIT_ERKS1_IT0_E
FNDA:18500,_ZSteqI5PieceS0_EbRKSt10shared_ptrIT_ERKS1_IT0_E
FN:699,_ZSt15allocate_sharedI4KingSaIS0_EJR8PositionRbS4_R5BoardEESt10shared_ptrIT_ERKT0_DpOT1_
FNDA:8,_ZSt15allocate_sharedI4KingSaIS0_EJR8PositionRbS4_R5BoardEESt10shared_ptrIT_ERKT0_DpOT1_
FN:699,_ZSt15allocate_sharedI4PawnSaIS0_EJR8PositionRbS4_R5BoardEESt10shared_ptrIT_ERKT0_DpOT1_
FNDA:25,_ZSt15allocate_sharedI4PawnSaIS0_EJR8PositionRbS4_R5BoardEESt10shared_ptrIT_ERKT0_DpOT1_
FN:714,_ZSt11make_sharedI4KingJR8PositionRbS3_R5BoardEESt10shared_ptrIT_EDpOT0_
FNDA:8,_ZSt11make_sharedI4KingJR8PositionRbS3_R5BoardEESt10shared_ptrIT_EDpOT0_
FN:714,_ZSt11make_sharedI4PawnJR8PositionRbS3_R5BoardEESt10shared_ptrIT_EDpOT0_
FNDA:25,_ZSt11make_sharedI4PawnJR8PositionRbS3_R5BoardEESt10shared_ptrIT_EDpOT0_
DA:127,0
DA:129,17917
DA:254,30163
DA:255,30163
DA:263,14046
DA:264,14046
DA:263,8393
DA:264,8393
DA:307,0
DA:333,6567
DA:335,6567
DA:336,6567
DA:358,8
DA:359,8
DA:360,8
DA:358,25
DA:359,25
DA:360,25
DA:383,18500
DA:384,18500
DA:699,8
DA:702,8
DA:699,25
DA:702,25
DA:714,8
DA:718,8
DA:714,25
DA:718,25
end_of_record
SF:/usr/include/c++/9/bits/stl_construct.h
FN:74,_ZSt10_ConstructI4MoveJRKS0_EEvPT_DpOT0_
FNDA:0,_ZSt10_ConstructI4MoveJRKS0_EEvPT_DpOT0_
FN:74,_ZSt10_ConstructISt10shared_ptrI5PieceEJS2_EEvPT_DpOT0_
FNDA:0,_ZSt10_ConstructISt10shared_ptrI5PieceEJS2_EEvPT_DpOT0_
FN:74,_ZSt10_ConstructISt6vectorI4MoveSaIS1_EEJS3_EEvPT_DpOT0_
FNDA:0,_ZSt10_ConstructISt6vectorI4MoveSaIS1_EEJS3_EEvPT_DpOT0_
FN:74,_ZSt10_ConstructISt10shared_ptrI5PieceEJRKS2_EEvPT_DpOT0_
FNDA:3203,_ZSt10_ConstructISt10shared_ptrI5PieceEJRKS2_EEvPT_DpOT0_
FN:74,_ZSt10_ConstructI8PositionJRKS0_EEvPT_DpOT0_
FNDA:0,_ZSt10_ConstructI8PositionJRKS0_EEvPT_DpOT0_
FN:97,_ZSt8_DestroyISt6vectorI4MoveSaIS1_EEEvPT_
FNDA:0,_ZSt8_DestroyISt6vectorI4MoveSaIS1_EEEvPT_
FN:97,_ZSt8_DestroyISt10shared_ptrI5PieceEEvPT_
FNDA:0,_ZSt8_DestroyISt10shared_ptrI5PieceEEvPT_
FN:97,_ZSt8_DestroyI4MoveEvPT_
FNDA:0,_ZSt8_DestroyI4MoveEvPT_
FN:105,_ZNSt12_Destroy_auxILb0EE9__destroyIP4MoveEEvT_S4_
FNDA:0,_ZNSt12_Destroy_auxILb0EE9__destroyIP4MoveEEvT_S4_
FN:105,_ZNSt12_Destroy_auxILb0EE9__destroyIPSt10shared_ptrI5PieceEEEvT_S6_
FNDA:0,_ZNSt12_Destroy_auxILb0EE9__destroyIPSt10shared_ptrI5PieceEEEvT_S6_
FN:105,_ZNSt12_Destroy_auxILb0EE9__destroyIPSt6vectorI4MoveSaIS3_EEEEvT_S7_
FNDA:0,_ZNSt12_Destroy_auxILb0EE9__destroyIPSt6vectorI4MoveSaIS3_EEEEvT_S7_
FN:117,_ZNSt12_Destroy_auxILb1EE9__destroyIP8PositionEEvT_S4_
FNDA:0,_ZNSt12_Destroy_auxILb1EE9__destroyIP8PositionEEvT_S4_
FN:127,_ZSt8_DestroyIPSt6vectorI4MoveSaIS1_EEEvT_S5_
FNDA:0,_ZSt8_DestroyIPSt6vectorI4MoveSaIS1_EEEvT_S5_
FN:127,_ZSt8_DestroyIPSt10shared_ptrI5PieceEEvT_S4_
FNDA:0,_ZSt8_DestroyIPSt10shared_ptrI5PieceEEvT_S4_
FN:127,_ZSt8_DestroyIP4MoveEvT_S2_
FNDA:0,_ZSt8_DestroyIP4MoveEvT_S2_
FN:127,_ZSt8_DestroyIP8PositionEvT_S2_
FNDA:0,_ZSt8_DestroyIP8PositionEvT_S2_
FN:203,_ZSt8_DestroyIPSt6vectorI4MoveSaIS1_EES3_EvT_S5_RSaIT0_E
FNDA:0,_ZSt8_DestroyIPSt6vectorI4MoveSaIS1_EES3_EvT_S5_RSaIT0_E
FN:203,_ZSt8_DestroyIPSt10shared_ptrI5PieceES2_EvT_S4_RSaIT0_E
FNDA:0,_ZSt8_DestroyIPSt10shared_ptrI5PieceES2_EvT_S4_RSaIT0_E
FN:203,_ZSt8_DestroyIP4MoveS0_EvT_S2_RSaIT0_E
FNDA:0,_ZSt8_DestroyIP4MoveS0_EvT_S2_RSaIT0_E
FN:203,_ZSt8_DestroyIP8PositionS0_EvT_S2_RSaIT0_E
FNDA:0,_ZSt8_DestroyIP8PositionS0_EvT_S2_RSaIT0_E
DA:74,0
DA:75,0
DA:74,0
DA:75,0
DA:74,0
DA:75,0
DA:74,0
DA:75,0
DA:74,3203
DA:75,3203
DA:97,0
DA:98,0
DA:97,0
DA:98,0
DA:97,0
DA:98,0
DA:105,0
DA:107,0
DA:108,0
DA:109,0
DA:105,0
DA:107,0
DA:108,0
DA:109,0
DA:105,0
DA:107,0
DA:108,0
DA:109,0
DA:117,0
DA:127,0
DA:137,0
DA:138,0
DA:127,0
DA:137,0
DA:138,0
DA:127,0
DA:137,0
DA:138,0
DA:127,0
DA:137,0
DA:138,0
DA:203,0
DA:206,0
DA:207,0
DA:203,0
DA:206,0
DA:207,0
DA:203,0
DA:206,0
DA:207,0
DA:203,0
DA:206,0
DA:207,0
end_of_record
SF:/usr/include/c++/9/bits/move.h
FN:47,_ZSt11__addressofI8PositionEPT_RS1_
FNDA:0,_ZSt11__addressofI8PositionEPT_RS1_
FN:47,_ZSt11__addressofI4MoveEPT_RS1_
FNDA:0,_ZSt11__addressofI4MoveEPT_RS1_
FN:47,_ZSt11__addressofISt10shared_ptrI5PieceEEPT_RS3_
FNDA:0,_ZSt11__addressofISt10shared_ptrI5PieceEEPT_RS3_
FN:47,_ZSt11__addressofISt6vectorI4MoveSaIS1_EEEPT_RS4_
FNDA:0,_ZSt11__addressofISt6vectorI4MoveSaIS1_EEEPT_RS4_
FN:47,_ZSt11__addressofISaISt23_Sp_counted_ptr_inplaceI4PawnSaIS1_ELN9__gnu_cxx12_Lock_policyE2EEEEPT_RS7_
FNDA:310,_ZSt11__addressofISaISt23_Sp_counted_ptr_inplaceI4PawnSaIS1_ELN9__gnu_cxx12_Lock_policyE2EEEEPT_RS7_
FN:47,_ZSt11__addressofISaISt23_Sp_counted_ptr_inplaceI4KingSaIS1_ELN9__gnu_cxx12_Lock_policyE2EEEEPT_RS7_
FNDA:32,_ZSt11__addressofISaISt23_Sp_counted_ptr_inplaceI4KingSaIS1_ELN9__gnu_cxx12_Lock_policyE2EEEEPT_RS7_
FN:74,_ZSt7forwardISt6vectorI4MoveSaIS1_EEEOT_RNSt16remove_referenceIS4_E4typeE
FNDA:402,_ZSt7forwardISt6vectorI4MoveSaIS1_EEEOT_RNSt16remove_referenceIS4_E4typeE
FN:74,_ZSt7forwardIR8PositionEOT_RNSt16remove_referenceIS2_E4typeE
FNDA:0,_ZSt7forwardIR8PositionEOT_RNSt16remove_referenceIS2_E4typeE
FN:74,_ZSt7forwardIRbEOT_RNSt16remove_referenceIS1_E4typeE
FNDA:1632,_ZSt7forwardIRbEOT_RNSt16remove_referenceIS1_E4typeE
FN:74,_ZSt7forwardIR5BoardEOT_RNSt16remove_referenceIS2_E4typeE
FNDA:1368,_ZSt7forwardIR5BoardEOT_RNSt16remove_referenceIS2_E4typeE
FN:74,_ZSt7forwardISt10shared_ptrI5PieceEEOT_RNSt16remove_referenceIS3_E4typeE
FNDA:95617,_ZSt7forwardISt10shared_ptrI5PieceEEOT_RNSt16remove_referenceIS3_E4typeE
FN:74,_ZSt7forwardIRKSt6vectorI4MoveSaIS1_EEEOT_RNSt16remove_referenceIS6_E4typeE
FNDA:3496,_ZSt7forwardIRKSt6vectorI4MoveSaIS1_EEEOT_RNSt16remove_referenceIS6_E4typeE
FN:74,_ZSt7forwardIRK8PositionEOT_RNSt16remove_referenceIS3_E4typeE
FNDA:0,_ZSt7forwardIRK8PositionEOT_RNSt16remove_referenceIS3_E4typeE
FN:74,_ZSt7forwardIRK4MoveEOT_RNSt16remove_referenceIS3_E4typeE
FNDA:0,_ZSt7forwardIRK4MoveEOT_RNSt16remove_referenceIS3_E4typeE
FN:74,_ZSt7forwardIRKSt10shared_ptrI5PieceEEOT_RNSt16remove_referenceIS5_E4typeE
FNDA:3203,_ZSt7forwardIRKSt10shared_ptrI5PieceEEOT_RNSt16remove_referenceIS5_E4typeE
FN:99,_ZSt4moveIRZN6Player10erasePieceESt10shared_ptrI5PieceEEUlRKS3_E_EONSt16remove_referenceIT_E4typeEOS9_
FNDA:12548,_ZSt4moveIRZN6Player10erasePieceESt10shared_ptrI5PieceEEUlRKS3_E_EONSt16remove_referenceIT_E4typeEOS9_
FN:99,_ZSt4moveIRSt12__shared_ptrI5PieceLN9__gnu_cxx12_Lock_policyE2EEEONSt16remove_referenceIT_E4typeEOS7_
FNDA:6567,_ZSt4moveIRSt12__shared_ptrI5PieceLN9__gnu_cxx12_Lock_policyE2EEEONSt16remove_referenceIT_E4typeEOS7_
FN:99,_ZSt4moveIRSaI4MoveEEONSt16remove_referenceIT_E4typeEOS4_
FNDA:0,_ZSt4moveIRSaI4MoveEEONSt16remove_referenceIT_E4typeEOS4_
FN:99,_ZSt4moveIRSt10shared_ptrI4KingEEONSt16remove_referenceIT_E4typeEOS5_
FNDA:14046,_ZSt4moveIRSt10shared_ptrI4KingEEONSt16remove_referenceIT_E4typeEOS5_
FN:99,_ZSt4moveIRSt10shared_ptrI4PawnEEONSt16remove_referenceIT_E4typeEOS5_
FNDA:8393,_ZSt4moveIRSt10shared_ptrI4PawnEEONSt16remove_referenceIT_E4typeEOS5_
FN:99,_ZSt4moveIRP5PieceEONSt16remove_referenceIT_E4typeEOS4_
FNDA:19701,_ZSt4moveIRP5PieceEONSt16remove_referenceIT_E4typeEOS4_
FN:99,_ZSt4moveIRSt6vectorI4MoveSaIS1_EEEONSt16remove_referenceIT_E4typeEOS6_
FNDA:0,_ZSt4moveIRSt6vectorI4MoveSaIS1_EEEONSt16remove_referenceIT_E4typeEOS6_
FN:99,_ZSt4moveIRNSt12_Vector_baseI4MoveSaIS1_EE12_Vector_implEEONSt16remove_referenceIT_E4typeEOS7_
FNDA:34712,_ZSt4moveIRNSt12_Vector_baseI4MoveSaIS1_EE12_Vector_implEEONSt16remove_referenceIT_E4typeEOS7_
FN:99,_ZSt4moveIRSt10shared_ptrI5PieceEEONSt16remove_referenceIT_E4typeEOS5_
FNDA:73460,_ZSt4moveIRSt10shared_ptrI5PieceEEONSt16remove_referenceIT_E4typeEOS5_
FN:99,_ZSt4moveIRSaIcEEONSt16remove_referenceIT_E4typeEOS3_
FNDA:0,_ZSt4moveIRSaIcEEONSt16remove_referenceIT_E4typeEOS3_
FN:182,_ZSt4swapIP5PieceENSt9enable_ifIXsrSt6__and_IJSt6__not_ISt15__is_tuple_likeIT_EESt21is_move_constructibleIS6_ESt18is_move_assignableIS6_EEE5valueEvE4typeERS6_SG_
FNDA:6567,_ZSt4swapIP5PieceENSt9enable_ifIXsrSt6__and_IJSt6__not_ISt15__is_tuple_likeIT_EESt21is_move_constructibleIS6_ESt18is_move_assignableIS6_EEE5valueEvE4typeERS6_SG_
DA:47,0
DA:48,0
DA:47,32
DA:48,32
DA:47,310
DA:48,310
DA:47,0
DA:48,0
DA:47,0
DA:48,0
DA:47,0
DA:48,0
DA:74,0
DA:75,0
DA:74,0
DA:75,0
DA:74,402
DA:75,402
DA:74,3203
DA:75,3203
DA:74,3496
DA:75,3496
DA:74,95617
DA:75,95617
DA:74,1368
DA:75,1368
DA:74,1632
DA:75,1632
DA:74,0
DA:75,0
DA:99,19701
DA:100,19701
DA:99,0
DA:100,0
DA:99,6567
DA:100,6567
DA:99,12548
DA:100,12548
DA:99,14046
DA:100,14046
DA:99,8393
DA:100,8393
DA:99,0
DA:100,0
DA:99,34712
DA:100,34712
DA:99,73460
DA:100,73460
DA:99,0
DA:100,0
DA:182,6567
DA:193,6567
DA:194,6567
DA:195,6567
DA:196,6567
end_of_record
SF:/usr/include/c++/9/bits/ptr_traits.h
FN:155,_ZSt12__to_addressISt23_Sp_counted_ptr_inplaceI4KingSaIS1_ELN9__gnu_cxx12_Lock_policyE2EEEPT_S7_
FNDA:16,_ZSt12__to_addressISt23_Sp_counted_ptr_inplaceI4KingSaIS1_ELN9__gnu_cxx12_Lock_policyE2EEEPT_S7_
FN:155,_ZSt12__to_addressISt23_Sp_counted_ptr_inplaceI4PawnSaIS1_ELN9__gnu_cxx12_Lock_policyE2EEEPT_S7_
FNDA:155,_ZSt12__to_addressISt23_Sp_counted_ptr_inplaceI4PawnSaIS1_ELN9__gnu_cxx12_Lock_policyE2EEEPT_S7_
DA:155,16
DA:158,16
DA:155,155
DA:158,155
end_of_record
SF:/usr/include/c++/9/ext/alloc_traits.h
FN:97,_ZN9__gnu_cxx14__alloc_traitsISaI8PositionES1_E17_S_select_on_copyERKS2_
FNDA:0,_ZN9__gnu_cxx14__alloc_traitsISaI8PositionES1_E17_S_select_on_copyERKS2_
FN:97,_ZN9__gnu_cxx14__alloc_traitsISaI4MoveES1_E17_S_select_on_copyERKS2_
FNDA:0,_ZN9__gnu_cxx14__alloc_traitsISaI4MoveES1_E17_S_select_on_copyERKS2_
FN:97,_ZN9__gnu_cxx14__alloc_traitsISaISt10shared_ptrI5PieceEES3_E17_S_select_on_copyERKS4_
FNDA:2076,_ZN9__gnu_cxx14__alloc_traitsISaISt10shared_ptrI5PieceEES3_E17_S_select_on_copyERKS4_
FN:97,_ZN9__gnu_cxx14__alloc_traitsISaIcEcE17_S_select_on_copyERKS1_
FNDA:0,_ZN9__gnu_cxx14__alloc_traitsISaIcEcE17_S_select_on_copyERKS1_
DA:97,0
DA:98,0
DA:97,0
DA:98,0
DA:97,2076
DA:98,2076
DA:97,0
DA:98,0
end_of_record
SF:/usr/include/c++/9/bits/allocator.h
FN:138,_ZNSaISt10shared_ptrI5PieceEEC2Ev
FNDA:11062,_ZNSaISt10shared_ptrI5PieceEEC2Ev
FN:138,_ZNSaISt6vectorI4MoveSaIS0_EEEC2Ev
FNDA:3781,_ZNSaISt6vectorI4MoveSaIS0_EEEC2Ev
FN:138,_ZNSaI4PawnEC2Ev
FNDA:155,_ZNSaI4PawnEC2Ev
FN:138,_ZNSaI4KingEC2Ev
FNDA:16,_ZNSaI4KingEC2Ev
FN:141,_ZNSaI4KingEC2ERKS0_
FNDA:48,_ZNSaI4KingEC2ERKS0_
FN:141,_ZNSaI4MoveEC2ERKS0_
FNDA:0,_ZNSaI4MoveEC2ERKS0_
FN:141,_ZNSaISt10shared_ptrI5PieceEEC2ERKS2_
FNDA:4152,_ZNSaISt10shared_ptrI5PieceEEC2ERKS2_
FN:141,_ZNSaI4PawnEC2ERKS0_
FNDA:465,_ZNSaI4PawnEC2ERKS0_
FN:141,_ZNSaI8PositionEC2ERKS0_
FNDA:0,_ZNSaI8PositionEC2ERKS0_
FN:151,_ZNSaISt23_Sp_counted_ptr_inplaceI4PawnSaIS0_ELN9__gnu_cxx12_Lock_policyE2EEEC2IS0_EERKSaIT_E
FNDA:310,_ZNSaISt23_Sp_counted_ptr_inplaceI4PawnSaIS0_ELN9__gnu_cxx12_Lock_policyE2EEEC2IS0_EERKSaIT_E
FN:151,_ZNSaISt23_Sp_counted_ptr_inplaceI4KingSaIS0_ELN9__gnu_cxx12_Lock_policyE2EEEC2IS0_EERKSaIT_E
FNDA:32,_ZNSaISt23_Sp_counted_ptr_inplaceI4KingSaIS0_ELN9__gnu_cxx12_Lock_policyE2EEEC2IS0_EERKSaIT_E
FN:153,_ZNSaI4KingED2Ev
FNDA:64,_ZNSaI4KingED2Ev
FN:153,_ZNSaISt23_Sp_counted_ptr_inplaceI4PawnSaIS0_ELN9__gnu_cxx12_Lock_policyE2EEED2Ev
FNDA:310,_ZNSaISt23_Sp_counted_ptr_inplaceI4PawnSaIS0_ELN9__gnu_cxx12_Lock_policyE2EEED2Ev
FN:153,_ZNSaI4PawnED2Ev
FNDA:620,_ZNSaI4PawnED2Ev
FN:153,_ZNSaISt23_Sp_counted_ptr_inplaceI4KingSaIS0_ELN9__gnu_cxx12_Lock_policyE2EEED2Ev
FNDA:32,_ZNSaISt23_Sp_counted_ptr_inplaceI4KingSaIS0_ELN9__gnu_cxx12_Lock_policyE2EEED2Ev
FN:153,_ZNSaISt6vectorI4MoveSaIS0_EEED2Ev
FNDA:0,_ZNSaISt6vectorI4MoveSaIS0_EEED2Ev
FN:153,_ZNSaISt10shared_ptrI5PieceEED2Ev
FNDA:0,_ZNSaISt10shared_ptrI5PieceEED2Ev
FN:153,_ZNSaI4MoveED2Ev
FNDA:0,_ZNSaI4MoveED2Ev
FN:153,_ZNSaI8PositionED2Ev
FNDA:0,_ZNSaI8PositionED2Ev
DA:138,16
DA:138,155
DA:138,3781
DA:138,11062
DA:141,0
DA:142,0
DA:141,48
DA:142,48
DA:141,465
DA:142,465
DA:141,4152
DA:142,4152
DA:141,0
DA:142,0
DA:151,32
DA:151,310
DA:153,32
DA:153,310
DA:153,64
DA:153,620
DA:153,0
DA:153,0
DA:153,0
DA:153,0
end_of_record
SF:/usr/include/c++/9/bits/stl_iterator.h
FN:806,_ZN9__gnu_cxx17__normal_iteratorIPK8PositionSt6vectorIS1_SaIS1_EEEC2ERKS3_
FNDA:0,_ZN9__gnu_cxx17__normal_iteratorIPK8PositionSt6vectorIS1_SaIS1_EEEC2ERKS3_
FN:806,_ZN9__gnu_cxx17__normal_iteratorIPKSt6vectorI4MoveSaIS2_EES1_IS4_SaIS4_EEEC2ERKS6_
FNDA:0,_ZN9__gnu_cxx17__normal_iteratorIPKSt6vectorI4MoveSaIS2_EES1_IS4_SaIS4_EEEC2ERKS6_
FN:806,_ZN9__gnu_cxx17__normal_iteratorIPSt6vectorI4MoveSaIS2_EES1_IS4_SaIS4_EEEC2ERKS5_
FNDA:4278,_ZN9__gnu_cxx17__normal_iteratorIPSt6vectorI4MoveSaIS2_EES1_IS4_SaIS4_EEEC2ERKS5_
FN:806,_ZN9__gnu_cxx17__normal_iteratorIPK4MoveSt6vectorIS1_SaIS1_EEEC2ERKS3_
FNDA:0,_ZN9__gnu_cxx17__normal_iteratorIPK4MoveSt6vectorIS1_SaIS1_EEEC2ERKS3_
FN:806,_ZN9__gnu_cxx17__normal_iteratorIP4MoveSt6vectorIS1_SaIS1_EEEC2ERKS2_
FNDA:0,_ZN9__gnu_cxx17__normal_iteratorIP4MoveSt6vectorIS1_SaIS1_EEEC2ERKS2_
FN:806,_ZN9__gnu_cxx17__normal_iteratorIP8PositionSt6vectorIS1_SaIS1_EEEC2ERKS2_
FNDA:0,_ZN9__gnu_cxx17__normal_iteratorIP8PositionSt6vectorIS1_SaIS1_EEEC2ERKS2_
FN:806,_ZN9__gnu_cxx17__normal_iteratorIPSt10shared_ptrI5PieceESt6vectorIS3_SaIS3_EEEC2ERKS4_
FNDA:74670,_ZN9__gnu_cxx17__normal_iteratorIPSt10shared_ptrI5PieceESt6vectorIS3_SaIS3_EEEC2ERKS4_
FN:806,_ZN9__gnu_cxx17__normal_iteratorIPKSt10shared_ptrI5PieceESt6vectorIS3_SaIS3_EEEC2ERKS5_
FNDA:0,_ZN9__gnu_cxx17__normal_iteratorIPKSt10shared_ptrI5PieceESt6vectorIS3_SaIS3_EEEC2ERKS5_
FN:811,_ZN9__gnu_cxx17__normal_iteratorIPKSt10shared_ptrI5PieceESt6vectorIS3_SaIS3_EEEC2IPS3_EERKNS0_IT_NS_11__enable_ifIXsrSt10__are_sameISC_SB_E7__valueES8_E6__typeEEE
FNDA:6274,_ZN9__gnu_cxx17__normal_iteratorIPKSt10shared_ptrI5PieceESt6vectorIS3_SaIS3_EEEC2IPS3_EERKNS0_IT_NS_11__enable_ifIXsrSt10__are_sameISC_SB_E7__valueES8_E6__typeEEE
FN:819,_ZNK9__gnu_cxx17__normal_iteratorIPK8PositionSt6vectorIS1_SaIS1_EEEdeEv
FNDA:0,_ZNK9__gnu_cxx17__normal_iteratorIPK8PositionSt6vectorIS1_SaIS1_EEEdeEv
FN:819,_ZNK9__gnu_cxx17__normal_iteratorIP4MoveSt6vectorIS1_SaIS1_EEEdeEv
FNDA:0,_ZNK9__gnu_cxx17__normal_iteratorIP4MoveSt6vectorIS1_SaIS1_EEEdeEv
FN:819,_ZNK9__gnu_cxx17__normal_iteratorIP8PositionSt6vectorIS1_SaIS1_EEEdeEv
FNDA:994,_ZNK9__gnu_cxx17__normal_iteratorIP8PositionSt6vectorIS1_SaIS1_EEEdeEv
FN:819,_ZNK9__gnu_cxx17__normal_iteratorIPK4MoveSt6vectorIS1_SaIS1_EEEdeEv
FNDA:0,_ZNK9__gnu_cxx17__normal_iteratorIPK4MoveSt6vectorIS1_SaIS1_EEEdeEv
FN:819,_ZNK9__gnu_cxx17__normal_iteratorIPSt10shared_ptrI5PieceESt6vectorIS3_SaIS3_EEEdeEv
FNDA:37659,_ZNK9__gnu_cxx17__normal_iteratorIPSt10shared_ptrI5PieceESt6vectorIS3_SaIS3_EEEdeEv
FN:819,_ZNK9__gnu_cxx17__normal_iteratorIPKSt10shared_ptrI5PieceESt6vectorIS3_SaIS3_EEEdeEv
FNDA:36521,_ZNK9__gnu_cxx17__normal_iteratorIPKSt10shared_ptrI5PieceESt6vectorIS3_SaIS3_EEEdeEv
FN:827,_ZN9__gnu_cxx17__normal_iteratorIP4MoveSt6vectorIS1_SaIS1_EEEppEv
FNDA:0,_ZN9__gnu_cxx17__normal_iteratorIP4MoveSt6vectorIS1_SaIS1_EEEppEv
FN:827,_ZN9__gnu_cxx17__normal_iteratorIP8PositionSt6vectorIS1_SaIS1_EEEppEv
FNDA:994,_ZN9__gnu_cxx17__normal_iteratorIP8PositionSt6vectorIS1_SaIS1_EEEppEv
FN:827,_ZN9__gnu_cxx17__normal_iteratorIPSt10shared_ptrI5PieceESt6vectorIS3_SaIS3_EEEppEv
FNDA:31092,_ZN9__gnu_cxx17__normal_iteratorIPSt10shared_ptrI5PieceESt6vectorIS3_SaIS3_EEEppEv
FN:827,_ZN9__gnu_cxx17__normal_iteratorIPKSt10shared_ptrI5PieceESt6vectorIS3_SaIS3_EEEppEv
FNDA:30666,_ZN9__gnu_cxx17__normal_iteratorIPKSt10shared_ptrI5PieceESt6vectorIS3_SaIS3_EEEppEv
FN:827,_ZN9__gnu_cxx17__normal_iteratorIPK8PositionSt6vectorIS1_SaIS1_EEEppEv
FNDA:0,_ZN9__gnu_cxx17__normal_iteratorIPK8PositionSt6vectorIS1_SaIS1_EEEppEv
FN:827,_ZN9__gnu_cxx17__normal_iteratorIPK4MoveSt6vectorIS1_SaIS1_EEEppEv
FNDA:0,_ZN9__gnu_cxx17__normal_iteratorIPK4MoveSt6vectorIS1_SaIS1_EEEppEv
FN:859,_ZNK9__gnu_cxx17__normal_iteratorIPSt10shared_ptrI5PieceESt6vectorIS3_SaIS3_EEEplEl
FNDA:14788,_ZNK9__gnu_cxx17__normal_iteratorIPSt10shared_ptrI5PieceESt6vectorIS3_SaIS3_EEEplEl
FN:871,_ZNK9__gnu_cxx17__normal_iteratorIPK8PositionSt6vectorIS1_SaIS1_EEE4baseEv
FNDA:0,_ZNK9__gnu_cxx17__normal_iteratorIPK8PositionSt6vectorIS1_SaIS1_EEE4baseEv
FN:871,_ZNK9__gnu_cxx17__normal_iteratorIPKSt6vectorI4MoveSaIS2_EES1_IS4_SaIS4_EEE4baseEv
FNDA:0,_ZNK9__gnu_cxx17__normal_iteratorIPKSt6vectorI4MoveSaIS2_EES1_IS4_SaIS4_EEE4baseEv
FN:871,_ZNK9__gnu_cxx17__normal_iteratorIPSt10shared_ptrI5PieceESt6vectorIS3_SaIS3_EEE4baseEv
FNDA:153956,_ZNK9__gnu_cxx17__normal_iteratorIPSt10shared_ptrI5PieceESt6vectorIS3_SaIS3_EEE4baseEv
FN:871,_ZNK9__gnu_cxx17__normal_iteratorIPSt6vectorI4MoveSaIS2_EES1_IS4_SaIS4_EEE4baseEv
FNDA:7234,_ZNK9__gnu_cxx17__normal_iteratorIPSt6vectorI4MoveSaIS2_EES1_IS4_SaIS4_EEE4baseEv
FN:871,_ZNK9__gnu_cxx17__normal_iteratorIP8PositionSt6vectorIS1_SaIS1_EEE4baseEv
FNDA:0,_ZNK9__gnu_cxx17__normal_iteratorIP8PositionSt6vectorIS1_SaIS1_EEE4baseEv
FN:871,_ZNK9__gnu_cxx17__normal_iteratorIPK4MoveSt6vectorIS1_SaIS1_EEE4baseEv
FNDA:0,_ZNK9__gnu_cxx17__normal_iteratorIPK4MoveSt6vectorIS1_SaIS1_EEE4baseEv
FN:871,_ZNK9__gnu_cxx17__normal_iteratorIPKSt10shared_ptrI5PieceESt6vectorIS3_SaIS3_EEE4baseEv
FNDA:0,_ZNK9__gnu_cxx17__normal_iteratorIPKSt10shared_ptrI5PieceESt6vectorIS3_SaIS3_EEE4baseEv
FN:871,_ZNK9__gnu_cxx17__normal_iteratorIP4MoveSt6vectorIS1_SaIS1_EEE4baseEv
FNDA:0,_ZNK9__gnu_cxx17__normal_iteratorIP4MoveSt6vectorIS1_SaIS1_EEE4baseEv
FN:893,_ZN9__gnu_cxxeqIPKSt6vectorI4MoveSaIS2_EES1_IS4_SaIS4_EEEEbRKNS_17__normal_iteratorIT_T0_EESE_
FNDA:0,_ZN9__gnu_cxxeqIPKSt6vectorI4MoveSaIS2_EES1_IS4_SaIS4_EEEEbRKNS_17__normal_iteratorIT_T0_EESE_
FN:893,_ZN9__gnu_cxxeqIPK4MoveSt6vectorIS1_SaIS1_EEEEbRKNS_17__normal_iteratorIT_T0_EESC_
FNDA:0,_ZN9__gnu_cxxeqIPK4MoveSt6vectorIS1_SaIS1_EEEEbRKNS_17__normal_iteratorIT_T0_EESC_
FN:893,_ZN9__gnu_cxxeqIPK8PositionSt6vectorIS1_SaIS1_EEEEbRKNS_17__normal_iteratorIT_T0_EESC_
FNDA:0,_ZN9__gnu_cxxeqIPK8PositionSt6vectorIS1_SaIS1_EEEEbRKNS_17__normal_iteratorIT_T0_EESC_
FN:893,_ZN9__gnu_cxxeqIPSt10shared_ptrI5PieceESt6vectorIS3_SaIS3_EEEEbRKNS_17__normal_iteratorIT_T0_EESD_
FNDA:6274,_ZN9__gnu_cxxeqIPSt10shared_ptrI5PieceESt6vectorIS3_SaIS3_EEEEbRKNS_17__normal_iteratorIT_T0_EESD_
FN:907,_ZN9__gnu_cxxneIP4MoveSt6vectorIS1_SaIS1_EEEEbRKNS_17__normal_iteratorIT_T0_EESB_
FNDA:0,_ZN9__gnu_cxxneIP4MoveSt6vectorIS1_SaIS1_EEEEbRKNS_17__normal_iteratorIT_T0_EESB_
FN:907,_ZN9__gnu_cxxneIPK4MoveSt6vectorIS1_SaIS1_EEEEbRKNS_17__normal_iteratorIT_T0_EESC_
FNDA:0,_ZN9__gnu_cxxneIPK4MoveSt6vectorIS1_SaIS1_EEEEbRKNS_17__normal_iteratorIT_T0_EESC_
FN:907,_ZN9__gnu_cxxneIP8PositionSt6vectorIS1_SaIS1_EEEEbRKNS_17__normal_iteratorIT_T0_EESB_
FNDA:4504,_ZN9__gnu_cxxneIP8PositionSt6vectorIS1_SaIS1_EEEEbRKNS_17__normal_iteratorIT_T0_EESB_
FN:907,_ZN9__gnu_cxxneIPSt10shared_ptrI5PieceESt6vectorIS3_SaIS3_EEEEbRKNS_17__normal_iteratorIT_T0_EESD_
FNDA:28001,_ZN9__gnu_cxxneIPSt10shared_ptrI5PieceESt6vectorIS3_SaIS3_EEEEbRKNS_17__normal_iteratorIT_T0_EESD_
FN:907,_ZN9__gnu_cxxneIPK8PositionSt6vectorIS1_SaIS1_EEEEbRKNS_17__normal_iteratorIT_T0_EESC_
FNDA:0,_ZN9__gnu_cxxneIPK8PositionSt6vectorIS1_SaIS1_EEEEbRKNS_17__normal_iteratorIT_T0_EESC_
FN:907,_ZN9__gnu_cxxneIPKSt10shared_ptrI5PieceESt6vectorIS3_SaIS3_EEEEbRKNS_17__normal_iteratorIT_T0_EESE_
FNDA:55599,_ZN9__gnu_cxxneIPKSt10shared_ptrI5PieceESt6vectorIS3_SaIS3_EEEEbRKNS_17__normal_iteratorIT_T0_EESE_
FN:989,_ZN9__gnu_cxxmiIPKSt10shared_ptrI5PieceESt6vectorIS3_SaIS3_EEEENS_17__normal_iteratorIT_T0_E15difference_typeERKSC_SF_
FNDA:6274,_ZN9__gnu_cxxmiIPKSt10shared_ptrI5PieceESt6vectorIS3_SaIS3_EEEENS_17__normal_iteratorIT_T0_E15difference_typeERKSC_SF_
FN:989,_ZN9__gnu_cxxmiIPSt10shared_ptrI5PieceESt6vectorIS3_SaIS3_EEEENS_17__normal_iteratorIT_T0_E15difference_typeERKSB_SE_
FNDA:24474,_ZN9__gnu_cxxmiIPSt10shared_ptrI5PieceESt6vectorIS3_SaIS3_EEEENS_17__normal_iteratorIT_T0_E15difference_typeERKSB_SE_
FN:989,_ZN9__gnu_cxxmiIPSt6vectorI4MoveSaIS2_EES1_IS4_SaIS4_EEEENS_17__normal_iteratorIT_T0_E15difference_typeERKSB_SE_
FNDA:1136,_ZN9__gnu_cxxmiIPSt6vectorI4MoveSaIS2_EES1_IS4_SaIS4_EEEENS_17__normal_iteratorIT_T0_E15difference_typeERKSB_SE_
FN:1010,_ZSt12__niter_baseIPSt10shared_ptrI5PieceESt6vectorIS2_SaIS2_EEET_N9__gnu_cxx17__normal_iteratorIS7_T0_EE
FNDA:4480,_ZSt12__niter_baseIPSt10shared_ptrI5PieceESt6vectorIS2_SaIS2_EEET_N9__gnu_cxx17__normal_iteratorIS7_T0_EE
FN:1057,_ZNSt13move_iteratorIPSt10shared_ptrI5PieceEEC2ES3_
FNDA:0,_ZNSt13move_iteratorIPSt10shared_ptrI5PieceEEC2ES3_
FN:1057,_ZNSt13move_iteratorIPSt6vectorI4MoveSaIS1_EEEC2ES4_
FNDA:0,_ZNSt13move_iteratorIPSt6vectorI4MoveSaIS1_EEEC2ES4_
FN:1066,_ZNKSt13move_iteratorIPSt10shared_ptrI5PieceEE4baseEv
FNDA:0,_ZNKSt13move_iteratorIPSt10shared_ptrI5PieceEE4baseEv
FN:1066,_ZNKSt13move_iteratorIPSt6vectorI4MoveSaIS1_EEE4baseEv
FNDA:0,_ZNKSt13move_iteratorIPSt6vectorI4MoveSaIS1_EEE4baseEv
FN:1070,_ZNKSt13move_iteratorIPSt6vectorI4MoveSaIS1_EEEdeEv
FNDA:0,_ZNKSt13move_iteratorIPSt6vectorI4MoveSaIS1_EEEdeEv
FN:1070,_ZNKSt13move_iteratorIPSt10shared_ptrI5PieceEEdeEv
FNDA:0,_ZNKSt13move_iteratorIPSt10shared_ptrI5PieceEEdeEv
FN:1078,_ZNSt13move_iteratorIPSt6vectorI4MoveSaIS1_EEEppEv
FNDA:0,_ZNSt13move_iteratorIPSt6vectorI4MoveSaIS1_EEEppEv
FN:1078,_ZNSt13move_iteratorIPSt10shared_ptrI5PieceEEppEv
FNDA:0,_ZNSt13move_iteratorIPSt10shared_ptrI5PieceEEppEv
FN:1145,_ZSteqIPSt6vectorI4MoveSaIS1_EEEbRKSt13move_iteratorIT_ES9_
FNDA:0,_ZSteqIPSt6vectorI4MoveSaIS1_EEEbRKSt13move_iteratorIT_ES9_
FN:1145,_ZSteqIPSt10shared_ptrI5PieceEEbRKSt13move_iteratorIT_ES8_
FNDA:0,_ZSteqIPSt10shared_ptrI5PieceEEbRKSt13move_iteratorIT_ES8_
FN:1157,_ZStneIPSt10shared_ptrI5PieceEEbRKSt13move_iteratorIT_ES8_
FNDA:0,_ZStneIPSt10shared_ptrI5PieceEEbRKSt13move_iteratorIT_ES8_
FN:1157,_ZStneIPSt6vectorI4MoveSaIS1_EEEbRKSt13move_iteratorIT_ES9_
FNDA:0,_ZStneIPSt6vectorI4MoveSaIS1_EEEbRKSt13move_iteratorIT_ES9_
FN:1242,_ZSt32__make_move_if_noexcept_iteratorISt10shared_ptrI5PieceESt13move_iteratorIPS2_EET0_PT_
FNDA:0,_ZSt32__make_move_if_noexcept_iteratorISt10shared_ptrI5PieceESt13move_iteratorIPS2_EET0_PT_
FN:1242,_ZSt32__make_move_if_noexcept_iteratorISt6vectorI4MoveSaIS1_EESt13move_iteratorIPS3_EET0_PT_
FNDA:0,_ZSt32__make_move_if_noexcept_iteratorISt6vectorI4MoveSaIS1_EESt13move_iteratorIPS3_EET0_PT_
DA:806,0
DA:807,0
DA:806,0
DA:807,0
DA:806,4278
DA:807,4278
DA:806,0
DA:807,0
DA:806,0
DA:807,0
DA:806,0
DA:807,0
DA:806,74670
DA:807,74670
DA:806,0
DA:807,0
DA:811,6274
DA:815,6274
DA:819,0
DA:820,0
DA:819,0
DA:820,0
DA:819,0
DA:820,0
DA:819,994
DA:820,994
DA:819,37659
DA:820,37659
DA:819,36521
DA:820,36521
DA:827,0
DA:829,0
DA:830,0
DA:827,0
DA:829,0
DA:830,0
DA:827,0
DA:829,0
DA:830,0
DA:827,994
DA:829,994
DA:830,994
DA:827,31092
DA:829,31092
DA:830,31092
DA:827,30666
DA:829,30666
DA:830,30666
DA:859,14788
DA:860,14788
DA:871,0
DA:872,0
DA:871,0
DA:872,0
DA:871,7234
DA:872,7234
DA:871,0
DA:872,0
DA:871,0
DA:872,0
DA:871,0
DA:872,0
DA:871,153956
DA:872,153956
DA:871,0
DA:872,0
DA:893,6274
DA:896,6274
DA:893,0
DA:896,0
DA:893,0
DA:896,0
DA:893,0
DA:896,0
DA:907,0
DA:910,0
DA:907,0
DA:910,0
DA:907,0
DA:910,0
DA:907,4504
DA:910,4504
DA:907,28001
DA:910,28001
DA:907,55599
DA:910,55599
DA:989,24474
DA:992,24474
DA:989,1136
DA:992,1136
DA:989,6274
DA:992,6274
DA:1010,4480
DA:1012,4480
DA:1057,0
DA:1058,0
DA:1057,0
DA:1058,0
DA:1066,0
DA:1067,0
DA:1066,0
DA:1067,0
DA:1070,0
DA:1071,0
DA:1070,0
DA:1071,0
DA:1078,0
DA:1080,0
DA:1081,0
DA:1078,0
DA:1080,0
DA:1081,0
DA:1145,0
DA:1147,0
DA:1145,0
DA:1147,0
DA:1157,0
DA:1159,0
DA:1157,0
DA:1159,0
DA:1242,0
DA:1243,0
DA:1242,0
DA:1243,0
end_of_record
SF:/usr/include/c++/9/bits/stl_vector.h
FN:94,_ZNSt12_Vector_baseI8PositionSaIS0_EE17_Vector_impl_dataC2Ev
FNDA:0,_ZNSt12_Vector_baseI8PositionSaIS0_EE17_Vector_impl_dataC2Ev
FN:94,_ZNSt12_Vector_baseI4MoveSaIS0_EE17_Vector_impl_dataC2Ev
FNDA:0,_ZNSt12_Vector_baseI4MoveSaIS0_EE17_Vector_impl_dataC2Ev
FN:94,_ZNSt12_Vector_baseISt6vectorI4MoveSaIS1_EESaIS3_EE17_Vector_impl_dataC2Ev
FNDA:6730,_ZNSt12_Vector_baseISt6vectorI4MoveSaIS1_EESaIS3_EE17_Vector_impl_dataC2Ev
FN:94,_ZNSt12_Vector_baseISt10shared_ptrI5PieceESaIS2_EE17_Vector_impl_dataC2Ev
FNDA:13138,_ZNSt12_Vector_baseISt10shared_ptrI5PieceESaIS2_EE17_Vector_impl_dataC2Ev
FN:99,_ZNSt12_Vector_baseI4MoveSaIS0_EE17_Vector_impl_dataC2EOS3_
FNDA:17356,_ZNSt12_Vector_baseI4MoveSaIS0_EE17_Vector_impl_dataC2EOS3_
FN:106,_ZNSt12_Vector_baseI4MoveSaIS0_EE17_Vector_impl_data12_M_copy_dataERKS3_
FNDA:0,_ZNSt12_Vector_baseI4MoveSaIS0_EE17_Vector_impl_data12_M_copy_dataERKS3_
FN:114,_ZNSt12_Vector_baseI4MoveSaIS0_EE17_Vector_impl_data12_M_swap_dataERS3_
FNDA:0,_ZNSt12_Vector_baseI4MoveSaIS0_EE17_Vector_impl_data12_M_swap_dataERS3_
FN:128,_ZNSt12_Vector_baseISt10shared_ptrI5PieceESaIS2_EE12_Vector_implC2Ev
FNDA:11062,_ZNSt12_Vector_baseISt10shared_ptrI5PieceESaIS2_EE12_Vector_implC2Ev
FN:128,_ZNSt12_Vector_baseISt6vectorI4MoveSaIS1_EESaIS3_EE12_Vector_implC2Ev
FNDA:3781,_ZNSt12_Vector_baseISt6vectorI4MoveSaIS1_EESaIS3_EE12_Vector_implC2Ev
FN:133,_ZNSt12_Vector_baseI8PositionSaIS0_EE12_Vector_implC2ERKS1_
FNDA:0,_ZNSt12_Vector_baseI8PositionSaIS0_EE12_Vector_implC2ERKS1_
FN:133,_ZNSt12_Vector_baseISt10shared_ptrI5PieceESaIS2_EE12_Vector_implC2ERKS3_
FNDA:2076,_ZNSt12_Vector_baseISt10shared_ptrI5PieceESaIS2_EE12_Vector_implC2ERKS3_
FN:133,_ZNSt12_Vector_baseI4MoveSaIS0_EE12_Vector_implC2ERKS1_
FNDA:0,_ZNSt12_Vector_baseI4MoveSaIS0_EE12_Vector_implC2ERKS1_
FN:140,_ZNSt12_Vector_baseI4MoveSaIS0_EE12_Vector_implC2EOS3_
FNDA:17356,_ZNSt12_Vector_baseI4MoveSaIS0_EE12_Vector_implC2EOS3_
FN:273,_ZNSt12_Vector_baseI4MoveSaIS0_EE19_M_get_Tp_allocatorEv
FNDA:0,_ZNSt12_Vector_baseI4MoveSaIS0_EE19_M_get_Tp_allocatorEv
FN:273,_ZNSt12_Vector_baseISt6vectorI4MoveSaIS1_EESaIS3_EE19_M_get_Tp_allocatorEv
FNDA:0,_ZNSt12_Vector_baseISt6vectorI4MoveSaIS1_EESaIS3_EE19_M_get_Tp_allocatorEv
FN:273,_ZNSt12_Vector_baseISt10shared_ptrI5PieceESaIS2_EE19_M_get_Tp_allocatorEv
FNDA:0,_ZNSt12_Vector_baseISt10shared_ptrI5PieceESaIS2_EE19_M_get_Tp_allocatorEv
FN:273,_ZNSt12_Vector_baseI8PositionSaIS0_EE19_M_get_Tp_allocatorEv
FNDA:0,_ZNSt12_Vector_baseI8PositionSaIS0_EE19_M_get_Tp_allocatorEv
FN:277,_ZNKSt12_Vector_baseISt10shared_ptrI5PieceESaIS2_EE19_M_get_Tp_allocatorEv
FNDA:27780,_ZNKSt12_Vector_baseISt10shared_ptrI5PieceESaIS2_EE19_M_get_Tp_allocatorEv
FN:277,_ZNKSt12_Vector_baseI4MoveSaIS0_EE19_M_get_Tp_allocatorEv
FNDA:0,_ZNKSt12_Vector_baseI4MoveSaIS0_EE19_M_get_Tp_allocatorEv
FN:277,_ZNKSt12_Vector_baseISt6vectorI4MoveSaIS1_EESaIS3_EE19_M_get_Tp_allocatorEv
FNDA:3255,_ZNKSt12_Vector_baseISt6vectorI4MoveSaIS1_EESaIS3_EE19_M_get_Tp_allocatorEv
FN:277,_ZNKSt12_Vector_baseI8PositionSaIS0_EE19_M_get_Tp_allocatorEv
FNDA:0,_ZNKSt12_Vector_baseI8PositionSaIS0_EE19_M_get_Tp_allocatorEv
FN:281,_ZNKSt12_Vector_baseI4MoveSaIS0_EE13get_allocatorEv
FNDA:0,_ZNKSt12_Vector_baseI4MoveSaIS0_EE13get_allocatorEv
FN:285,_ZNSt12_Vector_baseISt10shared_ptrI5PieceESaIS2_EEC2Ev
FNDA:11062,_ZNSt12_Vector_baseISt10shared_ptrI5PieceESaIS2_EEC2Ev
FN:285,_ZNSt12_Vector_baseISt6vectorI4MoveSaIS1_EESaIS3_EEC2Ev
FNDA:3781,_ZNSt12_Vector_baseISt6vectorI4MoveSaIS1_EESaIS3_EEC2Ev
FN:290,_ZNSt12_Vector_baseI4MoveSaIS0_EEC2ERKS1_
FNDA:0,_ZNSt12_Vector_baseI4MoveSaIS0_EEC2ERKS1_
FN:300,_ZNSt12_Vector_baseI8PositionSaIS0_EEC2EmRKS1_
FNDA:0,_ZNSt12_Vector_baseI8PositionSaIS0_EEC2EmRKS1_
FN:300,_ZNSt12_Vector_baseISt10shared_ptrI5PieceESaIS2_EEC2EmRKS3_
FNDA:2076,_ZNSt12_Vector_baseISt10shared_ptrI5PieceESaIS2_EEC2EmRKS3_
FN:300,_ZNSt12_Vector_baseI4MoveSaIS0_EEC2EmRKS1_
FNDA:0,_ZNSt12_Vector_baseI4MoveSaIS0_EEC2EmRKS1_
FN:305,_ZNSt12_Vector_baseI4MoveSaIS0_EEC2EOS2_
FNDA:17356,_ZNSt12_Vector_baseI4MoveSaIS0_EEC2EOS2_
FN:330,_ZNSt12_Vector_baseI8PositionSaIS0_EED2Ev
FNDA:0,_ZNSt12_Vector_baseI8PositionSaIS0_EED2Ev
FN:330,_ZNSt12_Vector_baseI4MoveSaIS0_EED2Ev
FNDA:0,_ZNSt12_Vector_baseI4MoveSaIS0_EED2Ev
FN:330,_ZNSt12_Vector_baseISt10shared_ptrI5PieceESaIS2_EED2Ev
FNDA:0,_ZNSt12_Vector_baseISt10shared_ptrI5PieceESaIS2_EED2Ev
FN:330,_ZNSt12_Vector_baseISt6vectorI4MoveSaIS1_EESaIS3_EED2Ev
FNDA:0,_ZNSt12_Vector_baseISt6vectorI4MoveSaIS1_EESaIS3_EED2Ev
FN:340,_ZNSt12_Vector_baseI8PositionSaIS0_EE11_M_allocateEm
FNDA:0,_ZNSt12_Vector_baseI8PositionSaIS0_EE11_M_allocateEm
FN:340,_ZNSt12_Vector_baseISt10shared_ptrI5PieceESaIS2_EE11_M_allocateEm
FNDA:14928,_ZNSt12_Vector_baseISt10shared_ptrI5PieceESaIS2_EE11_M_allocateEm
FN:340,_ZNSt12_Vector_baseI4MoveSaIS0_EE11_M_allocateEm
FNDA:0,_ZNSt12_Vector_baseI4MoveSaIS0_EE11_M_allocateEm
FN:340,_ZNSt12_Vector_baseISt6vectorI4MoveSaIS1_EESaIS3_EE11_M_allocateEm
FNDA:1136,_ZNSt12_Vector_baseISt6vectorI4MoveSaIS1_EESaIS3_EE11_M_allocateEm
FN:347,_ZNSt12_Vector_baseI4MoveSaIS0_EE13_M_deallocateEPS0_m
FNDA:0,_ZNSt12_Vector_baseI4MoveSaIS0_EE13_M_deallocateEPS0_m
FN:347,_ZNSt12_Vector_baseISt10shared_ptrI5PieceESaIS2_EE13_M_deallocateEPS2_m
FNDA:0,_ZNSt12_Vector_baseISt10shared_ptrI5PieceESaIS2_EE13_M_deallocateEPS2_m
FN:347,_ZNSt12_Vector_baseI8PositionSaIS0_EE13_M_deallocateEPS0_m
FNDA:0,_ZNSt12_Vector_baseI8PositionSaIS0_EE13_M_deallocateEPS0_m
FN:347,_ZNSt12_Vector_baseISt6vectorI4MoveSaIS1_EESaIS3_EE13_M_deallocateEPS3_m
FNDA:0,_ZNSt12_Vector_baseISt6vectorI4MoveSaIS1_EESaIS3_EE13_M_deallocateEPS3_m
FN:356,_ZNSt12_Vector_baseISt10shared_ptrI5PieceESaIS2_EE17_M_create_storageEm
FNDA:2076,_ZNSt12_Vector_baseISt10shared_ptrI5PieceESaIS2_EE17_M_create_storageEm
FN:356,_ZNSt12_Vector_baseI4MoveSaIS0_EE17_M_create_storageEm
FNDA:0,_ZNSt12_Vector_baseI4MoveSaIS0_EE17_M_create_storageEm
FN:356,_ZNSt12_Vector_baseI8PositionSaIS0_EE17_M_create_storageEm
FNDA:0,_ZNSt12_Vector_baseI8PositionSaIS0_EE17_M_create_storageEm
FN:428,_ZNSt6vectorIS_I4MoveSaIS0_EESaIS2_EE19_S_nothrow_relocateESt17integral_constantIbLb1EE
FNDA:2272,_ZNSt6vectorIS_I4MoveSaIS0_EESaIS2_EE19_S_nothrow_relocateESt17integral_constantIbLb1EE
FN:428,_ZNSt6vectorISt10shared_ptrI5PieceESaIS2_EE19_S_nothrow_relocateESt17integral_constantIbLb1EE
FNDA:25704,_ZNSt6vectorISt10shared_ptrI5PieceESaIS2_EE19_S_nothrow_relocateESt17integral_constantIbLb1EE
FN:441,_ZNSt6vectorIS_I4MoveSaIS0_EESaIS2_EE15_S_use_relocateEv
FNDA:2272,_ZNSt6vectorIS_I4MoveSaIS0_EESaIS2_EE15_S_use_relocateEv
FN:441,_ZNSt6vectorISt10shared_ptrI5PieceESaIS2_EE15_S_use_relocateEv
FNDA:25704,_ZNSt6vectorISt10shared_ptrI5PieceESaIS2_EE15_S_use_relocateEv
FN:450,_ZNSt6vectorIS_I4MoveSaIS0_EESaIS2_EE14_S_do_relocateEPS2_S5_S5_RS3_St17integral_constantIbLb1EE
FNDA:2272,_ZNSt6vectorIS_I4MoveSaIS0_EESaIS2_EE14_S_do_relocateEPS2_S5_S5_RS3_St17integral_constantIbLb1EE
FN:450,_ZNSt6vectorISt10shared_ptrI5PieceESaIS2_EE14_S_do_relocateEPS2_S5_S5_RS3_St17integral_constantIbLb1EE
FNDA:25704,_ZNSt6vectorISt10shared_ptrI5PieceESaIS2_EE14_S_do_relocateEPS2_S5_S5_RS3_St17integral_constantIbLb1EE
FN:462,_ZNSt6vectorIS_I4MoveSaIS0_EESaIS2_EE11_S_relocateEPS2_S5_S5_RS3_
FNDA:2272,_ZNSt6vectorIS_I4MoveSaIS0_EESaIS2_EE11_S_relocateEPS2_S5_S5_RS3_
FN:462,_ZNSt6vectorISt10shared_ptrI5PieceESaIS2_EE11_S_relocateEPS2_S5_S5_RS3_
FNDA:25704,_ZNSt6vectorISt10shared_ptrI5PieceESaIS2_EE11_S_relocateEPS2_S5_S5_RS3_
FN:484,_ZNSt6vectorISt10shared_ptrI5PieceESaIS2_EEC2Ev
FNDA:11062,_ZNSt6vectorISt10shared_ptrI5PieceESaIS2_EEC2Ev
FN:484,_ZNSt6vectorIS_I4MoveSaIS0_EESaIS2_EEC2Ev
FNDA:3781,_ZNSt6vectorIS_I4MoveSaIS0_EESaIS2_EEC2Ev
FN:494,_ZNSt6vectorI4MoveSaIS0_EEC2ERKS1_
FNDA:0,_ZNSt6vectorI4MoveSaIS0_EEC2ERKS1_
FN:550,_ZNSt6vectorI4MoveSaIS0_EEC2ERKS2_
FNDA:0,_ZNSt6vectorI4MoveSaIS0_EEC2ERKS2_
FN:550,_ZNSt6vectorISt10shared_ptrI5PieceESaIS2_EEC2ERKS4_
FNDA:2076,_ZNSt6vectorISt10shared_ptrI5PieceESaIS2_EEC2ERKS4_
FN:550,_ZNSt6vectorI8PositionSaIS0_EEC2ERKS2_
FNDA:0,_ZNSt6vectorI8PositionSaIS0_EEC2ERKS2_
FN:569,_ZNSt6vectorI4MoveSaIS0_EEC2EOS2_
FNDA:17356,_ZNSt6vectorI4MoveSaIS0_EEC2EOS2_
FN:675,_ZNSt6vectorIS_I4MoveSaIS0_EESaIS2_EED2Ev
FNDA:0,_ZNSt6vectorIS_I4MoveSaIS0_EESaIS2_EED2Ev
FN:675,_ZNSt6vectorI8PositionSaIS0_EED2Ev
FNDA:0,_ZNSt6vectorI8PositionSaIS0_EED2Ev
FN:675,_ZNSt6vectorISt10shared_ptrI5PieceESaIS2_EED2Ev
FNDA:0,_ZNSt6vectorISt10shared_ptrI5PieceESaIS2_EED2Ev
FN:675,_ZNSt6vectorI4MoveSaIS0_EED2Ev
FNDA:0,_ZNSt6vectorI4MoveSaIS0_EED2Ev
FN:706,_ZNSt6vectorI4MoveSaIS0_EEaSEOS2_
FNDA:0,_ZNSt6vectorI4MoveSaIS0_EEaSEOS2_
FN:808,_ZNSt6vectorIS_I4MoveSaIS0_EESaIS2_EE5beginEv
FNDA:2139,_ZNSt6vectorIS_I4MoveSaIS0_EESaIS2_EE5beginEv
FN:808,_ZNSt6vectorI4MoveSaIS0_EE5beginEv
FNDA:0,_ZNSt6vectorI4MoveSaIS0_EE5beginEv
FN:808,_ZNSt6vectorISt10shared_ptrI5PieceESaIS2_EE5beginEv
FNDA:29381,_ZNSt6vectorISt10shared_ptrI5PieceESaIS2_EE5beginEv
FN:808,_ZNSt6vectorI8PositionSaIS0_EE5beginEv
FNDA:0,_ZNSt6vectorI8PositionSaIS0_EE5beginEv
FN:817,_ZNKSt6vectorISt10shared_ptrI5PieceESaIS2_EE5beginEv
FNDA:0,_ZNKSt6vectorISt10shared_ptrI5PieceESaIS2_EE5beginEv
FN:817,_ZNKSt6vectorIS_I4MoveSaIS0_EESaIS2_EE5beginEv
FNDA:0,_ZNKSt6vectorIS_I4MoveSaIS0_EESaIS2_EE5beginEv
FN:817,_ZNKSt6vectorI4MoveSaIS0_EE5beginEv
FNDA:0,_ZNKSt6vectorI4MoveSaIS0_EE5beginEv
FN:817,_ZNKSt6vectorI8PositionSaIS0_EE5beginEv
FNDA:0,_ZNKSt6vectorI8PositionSaIS0_EE5beginEv
FN:826,_ZNSt6vectorI8PositionSaIS0_EE3endEv
FNDA:0,_ZNSt6vectorI8PositionSaIS0_EE3endEv
FN:826,_ZNSt6vectorIS_I4MoveSaIS0_EESaIS2_EE3endEv
FNDA:2139,_ZNSt6vectorIS_I4MoveSaIS0_EESaIS2_EE3endEv
FN:826,_ZNSt6vectorISt10shared_ptrI5PieceESaIS2_EE3endEv
FNDA:30501,_ZNSt6vectorISt10shared_ptrI5PieceESaIS2_EE3endEv
FN:826,_ZNSt6vectorI4MoveSaIS0_EE3endEv
FNDA:0,_ZNSt6vectorI4MoveSaIS0_EE3endEv
FN:835,_ZNKSt6vectorI8PositionSaIS0_EE3endEv
FNDA:0,_ZNKSt6vectorI8PositionSaIS0_EE3endEv
FN:835,_ZNKSt6vectorISt10shared_ptrI5PieceESaIS2_EE3endEv
FNDA:0,_ZNKSt6vectorISt10shared_ptrI5PieceESaIS2_EE3endEv
FN:835,_ZNKSt6vectorI4MoveSaIS0_EE3endEv
FNDA:0,_ZNKSt6vectorI4MoveSaIS0_EE3endEv
FN:835,_ZNKSt6vectorIS_I4MoveSaIS0_EESaIS2_EE3endEv
FNDA:0,_ZNKSt6vectorIS_I4MoveSaIS0_EESaIS2_EE3endEv
FN:881,_ZNKSt6vectorISt10shared_ptrI5PieceESaIS2_EE6cbeginEv
FNDA:6274,_ZNKSt6vectorISt10shared_ptrI5PieceESaIS2_EE6cbeginEv
FN:915,_ZNKSt6vectorI8PositionSaIS0_EE4sizeEv
FNDA:0,_ZNKSt6vectorI8PositionSaIS0_EE4sizeEv
FN:915,_ZNKSt6vectorI4MoveSaIS0_EE4sizeEv
FNDA:0,_ZNKSt6vectorI4MoveSaIS0_EE4sizeEv
FN:915,_ZNKSt6vectorISt10shared_ptrI5PieceESaIS2_EE4sizeEv
FNDA:0,_ZNKSt6vectorISt10shared_ptrI5PieceESaIS2_EE4sizeEv
FN:915,_ZNKSt6vectorIS_I4MoveSaIS0_EESaIS2_EE4sizeEv
FNDA:0,_ZNKSt6vectorIS_I4MoveSaIS0_EESaIS2_EE4sizeEv
FN:920,_ZNKSt6vectorISt10shared_ptrI5PieceESaIS2_EE8max_sizeEv
FNDA:25704,_ZNKSt6vectorISt10shared_ptrI5PieceESaIS2_EE8max_sizeEv
FN:920,_ZNKSt6vectorIS_I4MoveSaIS0_EESaIS2_EE8max_sizeEv
FNDA:2272,_ZNKSt6vectorIS_I4MoveSaIS0_EESaIS2_EE8max_sizeEv
FN:1004,_ZNKSt6vectorI8PositionSaIS0_EE5emptyEv
FNDA:0,_ZNKSt6vectorI8PositionSaIS0_EE5emptyEv
FN:1004,_ZNKSt6vectorI4MoveSaIS0_EE5emptyEv
FNDA:0,_ZNKSt6vectorI4MoveSaIS0_EE5emptyEv
FN:1004,_ZNKSt6vectorIS_I4MoveSaIS0_EESaIS2_EE5emptyEv
FNDA:0,_ZNKSt6vectorIS_I4MoveSaIS0_EESaIS2_EE5emptyEv
FN:1184,_ZNSt6vectorIS_I4MoveSaIS0_EESaIS2_EE9push_backERKS2_
FNDA:1180,_ZNSt6vectorIS_I4MoveSaIS0_EESaIS2_EE9push_backERKS2_
FN:1200,_ZNSt6vectorISt10shared_ptrI5PieceESaIS2_EE9push_backEOS2_
FNDA:22439,_ZNSt6vectorISt10shared_ptrI5PieceESaIS2_EE9push_backEOS2_
FN:1427,_ZNSt6vectorISt10shared_ptrI5PieceESaIS2_EE5eraseEN9__gnu_cxx17__normal_iteratorIPKS2_S4_EE
FNDA:6274,_ZNSt6vectorISt10shared_ptrI5PieceESaIS2_EE5eraseEN9__gnu_cxx17__normal_iteratorIPKS2_S4_EE
FN:1753,_ZNKSt6vectorIS_I4MoveSaIS0_EESaIS2_EE12_M_check_lenEmPKc
FNDA:1136,_ZNKSt6vectorIS_I4MoveSaIS0_EESaIS2_EE12_M_check_lenEmPKc
FN:1753,_ZNKSt6vectorISt10shared_ptrI5PieceESaIS2_EE12_M_check_lenEmPKc
FNDA:12852,_ZNKSt6vectorISt10shared_ptrI5PieceESaIS2_EE12_M_check_lenEmPKc
FN:1773,_ZNSt6vectorISt10shared_ptrI5PieceESaIS2_EE11_S_max_sizeERKS3_
FNDA:25704,_ZNSt6vectorISt10shared_ptrI5PieceESaIS2_EE11_S_max_sizeERKS3_
FN:1773,_ZNSt6vectorIS_I4MoveSaIS0_EESaIS2_EE11_S_max_sizeERKS3_
FNDA:2272,_ZNSt6vectorIS_I4MoveSaIS0_EESaIS2_EE11_S_max_sizeERKS3_
FN:1812,_ZNSt6vectorI4MoveSaIS0_EE14_M_move_assignEOS2_St17integral_constantIbLb1EE
FNDA:0,_ZNSt6vectorI4MoveSaIS0_EE14_M_move_assignEOS2_St17integral_constantIbLb1EE
DA:94,6730
DA:95,6730
DA:96,6730
DA:94,13138
DA:95,13138
DA:96,13138
DA:94,0
DA:95,0
DA:96,0
DA:94,0
DA:95,0
DA:96,0
DA:99,17356
DA:100,17356
DA:101,17356
DA:102,17356
DA:106,0
DA:108,0
DA:109,0
DA:110,0
DA:111,0
DA:114,0
DA:118,0
DA:119,0
DA:120,0
DA:121,0
DA:122,0
DA:128,3781
DA:130,3781
DA:131,3781
DA:128,11062
DA:130,11062
DA:131,11062
DA:133,0
DA:134,0
DA:135,0
DA:133,0
DA:134,0
DA:135,0
DA:133,2076
DA:134,2076
DA:135,2076
DA:140,17356
DA:141,17356
DA:142,17356
DA:273,0
DA:274,0
DA:273,0
DA:274,0
DA:273,0
DA:274,0
DA:273,0
DA:274,0
DA:277,0
DA:278,0
DA:277,3255
DA:278,3255
DA:277,0
DA:278,0
DA:277,27780
DA:278,27780
DA:281,0
DA:282,0
DA:285,3781
DA:285,11062
DA:290,0
DA:291,0
DA:300,0
DA:301,0
DA:302,0
DA:300,0
DA:301,0
DA:302,0
DA:300,2076
DA:301,2076
DA:302,2076
DA:305,17356
DA:330,0
DA:332,0
DA:333,0
DA:334,0
DA:330,0
DA:332,0
DA:333,0
DA:334,0
DA:330,0
DA:332,0
DA:333,0
DA:334,0
DA:330,0
DA:332,0
DA:333,0
DA:334,0
DA:340,0
DA:343,0
DA:340,0
DA:343,0
DA:340,14928
DA:343,14928
DA:340,1136
DA:343,1136
DA:347,0
DA:350,0
DA:351,0
DA:352,0
DA:347,0
DA:350,0
DA:351,0
DA:352,0
DA:347,0
DA:350,0
DA:351,0
DA:352,0
DA:347,0
DA:350,0
DA:351,0
DA:352,0
DA:356,0
DA:358,0
DA:359,0
DA:360,0
DA:361,0
DA:356,0
DA:358,0
DA:359,0
DA:360,0
DA:361,0
DA:356,2076
DA:358,2076
DA:359,2076
DA:360,2076
DA:361,2076
DA:428,25704
DA:433,25704
DA:428,2272
DA:433,2272
DA:441,25704
DA:446,25704
DA:441,2272
DA:446,2272
DA:450,25704
DA:453,25704
DA:450,2272
DA:453,2272
DA:462,25704
DA:466,25704
DA:462,2272
DA:466,2272
DA:484,3781
DA:484,11062
DA:494,0
DA:495,0
DA:550,0
DA:552,0
DA:554,0
DA:555,0
DA:557,0
DA:558,0
DA:550,0
DA:552,0
DA:554,0
DA:555,0
DA:557,0
DA:558,0
DA:550,2076
DA:552,2076
DA:554,2076
DA:555,2076
DA:557,2076
DA:558,2076
DA:569,17356
DA:675,0
DA:677,0
DA:678,0
DA:680,0
DA:675,0
DA:677,0
DA:678,0
DA:680,0
DA:675,0
DA:677,0
DA:678,0
DA:680,0
DA:675,0
DA:677,0
DA:678,0
DA:680,0
DA:706,0
DA:708,0
DA:711,0
DA:712,0
DA:808,2139
DA:809,2139
DA:808,0
DA:809,0
DA:808,0
DA:809,0
DA:808,29381
DA:809,29381
DA:817,0
DA:818,0
DA:817,0
DA:818,0
DA:817,0
DA:818,0
DA:817,0
DA:818,0
DA:826,2139
DA:827,2139
DA:826,0
DA:827,0
DA:826,0
DA:827,0
DA:826,30501
DA:827,30501
DA:835,0
DA:836,0
DA:835,0
DA:836,0
DA:835,0
DA:836,0
DA:835,0
DA:836,0
DA:881,6274
DA:882,6274
DA:915,0
DA:916,0
DA:915,0
DA:916,0
DA:915,0
DA:916,0
DA:915,0
DA:916,0
DA:920,25704
DA:921,25704
DA:920,2272
DA:921,2272
DA:1004,0
DA:1005,0
DA:1004,0
DA:1005,0
DA:1004,0
DA:1005,0
DA:1184,1180
DA:1186,1180
DA:1189,44
DA:1191,44
DA:1195,1136
DA:1196,1180
DA:1200,22439
DA:1201,22439
DA:1427,6274
DA:1428,12548
DA:1753,12852
DA:1755,12852
DA:1756,0
DA:1758,12852
DA:1759,12852
DA:1753,1136
DA:1755,1136
DA:1756,0
DA:1758,1136
DA:1759,1136
DA:1773,25704
DA:1778,25704
DA:1780,25704
DA:1781,25704
DA:1773,2272
DA:1778,2272
DA:1780,2272
DA:1781,2272
DA:1812,0
DA:1814,0
DA:1815,0
DA:1816,0
DA:1817,0
DA:1818,0
end_of_record
SF:/usr/include/x86_64-linux-gnu/c++/9/bits/gthr-default.h
FN:248,_ZL18__gthread_active_pv
FNDA:16797,_ZL18__gthread_active_pv
DA:248,16797
DA:252,16797
end_of_record
SF:/home/napiad/studia/eiti/mgr/sem1/zpr/checkers-webapp/checkers/src/Move.h
end_of_record
SF:/usr/include/c++/9/bits/alloc_traits.h
FN:443,_ZNSt16allocator_traitsISaISt6vectorI4MoveSaIS1_EEEE8allocateERS4_m
FNDA:1136,_ZNSt16allocator_traitsISaISt6vectorI4MoveSaIS1_EEEE8allocateERS4_m
FN:443,_ZNSt16allocator_traitsISaI8PositionEE8allocateERS1_m
FNDA:0,_ZNSt16allocator_traitsISaI8PositionEE8allocateERS1_m
FN:443,_ZNSt16allocator_traitsISaI4MoveEE8allocateERS1_m
FNDA:0,_ZNSt16allocator_traitsISaI4MoveEE8allocateERS1_m
FN:443,_ZNSt16allocator_traitsISaISt10shared_ptrI5PieceEEE8allocateERS3_m
FNDA:14901,_ZNSt16allocator_traitsISaISt10shared_ptrI5PieceEEE8allocateERS3_m
FN:443,_ZNSt16allocator_traitsISaISt23_Sp_counted_ptr_inplaceI4KingSaIS1_ELN9__gnu_cxx12_Lock_policyE2EEEE8allocateERS6_m
FNDA:16,_ZNSt16allocator_traitsISaISt23_Sp_counted_ptr_inplaceI4KingSaIS1_ELN9__gnu_cxx12_Lock_policyE2EEEE8allocateERS6_m
FN:443,_ZNSt16allocator_traitsISaISt23_Sp_counted_ptr_inplaceI4PawnSaIS1_ELN9__gnu_cxx12_Lock_policyE2EEEE8allocateERS6_m
FNDA:155,_ZNSt16allocator_traitsISaISt23_Sp_counted_ptr_inplaceI4PawnSaIS1_ELN9__gnu_cxx12_Lock_policyE2EEEE8allocateERS6_m
FN:469,_ZNSt16allocator_traitsISaI8PositionEE10deallocateERS1_PS0_m
FNDA:0,_ZNSt16allocator_traitsISaI8PositionEE10deallocateERS1_PS0_m
FN:469,_ZNSt16allocator_traitsISaISt6vectorI4MoveSaIS1_EEEE10deallocateERS4_PS3_m
FNDA:0,_ZNSt16allocator_traitsISaISt6vectorI4MoveSaIS1_EEEE10deallocateERS4_PS3_m
FN:469,_ZNSt16allocator_traitsISaISt23_Sp_counted_ptr_inplaceI4KingSaIS1_ELN9__gnu_cxx12_Lock_policyE2EEEE10deallocateERS6_PS5_m
FNDA:16,_ZNSt16allocator_traitsISaISt23_Sp_counted_ptr_inplaceI4KingSaIS1_ELN9__gnu_cxx12_Lock_policyE2EEEE10deallocateERS6_PS5_m
FN:469,_ZNSt16allocator_traitsISaISt23_Sp_counted_ptr_inplaceI4PawnSaIS1_ELN9__gnu_cxx12_Lock_policyE2EEEE10deallocateERS6_PS5_m
FNDA:155,_ZNSt16allocator_traitsISaISt23_Sp_counted_ptr_inplaceI4PawnSaIS1_ELN9__gnu_cxx12_Lock_policyE2EEEE10deallocateERS6_PS5_m
FN:469,_ZNSt16allocator_traitsISaI4MoveEE10deallocateERS1_PS0_m
FNDA:0,_ZNSt16allocator_traitsISaI4MoveEE10deallocateERS1_PS0_m
FN:469,_ZNSt16allocator_traitsISaISt10shared_ptrI5PieceEEE10deallocateERS3_PS2_m
FNDA:0,_ZNSt16allocator_traitsISaISt10shared_ptrI5PieceEEE10deallocateERS3_PS2_m
FN:482,_ZNSt16allocator_traitsISaISt6vectorI4MoveSaIS1_EEEE9constructIS3_JRKS3_EEEvRS4_PT_DpOT0_
FNDA:1180,_ZNSt16allocator_traitsISaISt6vectorI4MoveSaIS1_EEEE9constructIS3_JRKS3_EEEvRS4_PT_DpOT0_
FN:482,_ZNSt16allocator_traitsISaISt10shared_ptrI5PieceEEE9constructIS2_JS2_EEEvRS3_PT_DpOT0_
FNDA:30163,_ZNSt16allocator_traitsISaISt10shared_ptrI5PieceEEE9constructIS2_JS2_EEEvRS3_PT_DpOT0_
FN:482,_ZNSt16allocator_traitsISaI4PawnEE9constructIS0_JR8PositionRbS6_R5BoardEEEvRS1_PT_DpOT0_
FNDA:25,_ZNSt16allocator_traitsISaI4PawnEE9constructIS0_JR8PositionRbS6_R5BoardEEEvRS1_PT_DpOT0_
FN:482,_ZNSt16allocator_traitsISaI4KingEE9constructIS0_JR8PositionRbS6_R5BoardEEEvRS1_PT_DpOT0_
FNDA:8,_ZNSt16allocator_traitsISaI4KingEE9constructIS0_JR8PositionRbS6_R5BoardEEEvRS1_PT_DpOT0_
FN:482,_ZNSt16allocator_traitsISaISt6vectorI4MoveSaIS1_EEEE9constructIS3_JS3_EEEvRS4_PT_DpOT0_
FNDA:201,_ZNSt16allocator_traitsISaISt6vectorI4MoveSaIS1_EEEE9constructIS3_JS3_EEEvRS4_PT_DpOT0_
FN:495,_ZNSt16allocator_traitsISaI4KingEE7destroyIS0_EEvRS1_PT_
FNDA:16,_ZNSt16allocator_traitsISaI4KingEE7destroyIS0_EEvRS1_PT_
FN:495,_ZNSt16allocator_traitsISaISt6vectorI4MoveSaIS1_EEEE7destroyIS3_EEvRS4_PT_
FNDA:201,_ZNSt16allocator_traitsISaISt6vectorI4MoveSaIS1_EEEE7destroyIS3_EEvRS4_PT_
FN:495,_ZNSt16allocator_traitsISaISt10shared_ptrI5PieceEEE7destroyIS2_EEvRS3_PT_
FNDA:13998,_ZNSt16allocator_traitsISaISt10shared_ptrI5PieceEEE7destroyIS2_EEvRS3_PT_
FN:495,_ZNSt16allocator_traitsISaI4PawnEE7destroyIS0_EEvRS1_PT_
FNDA:155,_ZNSt16allocator_traitsISaI4PawnEE7destroyIS0_EEvRS1_PT_
FN:505,_ZNSt16allocator_traitsISaISt6vectorI4MoveSaIS1_EEEE8max_sizeERKS4_
FNDA:2272,_ZNSt16allocator_traitsISaISt6vectorI4MoveSaIS1_EEEE8max_sizeERKS4_
FN:505,_ZNSt16allocator_traitsISaISt10shared_ptrI5PieceEEE8max_sizeERKS3_
FNDA:25704,_ZNSt16allocator_traitsISaISt10shared_ptrI5PieceEEE8max_sizeERKS3_
FN:514,_ZNSt16allocator_traitsISaISt10shared_ptrI5PieceEEE37select_on_container_copy_constructionERKS3_
FNDA:2076,_ZNSt16allocator_traitsISaISt10shared_ptrI5PieceEEE37select_on_container_copy_constructionERKS3_
FN:514,_ZNSt16allocator_traitsISaIcEE37select_on_container_copy_constructionERKS0_
FNDA:0,_ZNSt16allocator_traitsISaIcEE37select_on_container_copy_constructionERKS0_
FN:514,_ZNSt16allocator_traitsISaI4MoveEE37select_on_container_copy_constructionERKS1_
FNDA:0,_ZNSt16allocator_traitsISaI4MoveEE37select_on_container_copy_constructionERKS1_
FN:514,_ZNSt16allocator_traitsISaI8PositionEE37select_on_container_copy_constructionERKS1_
FNDA:0,_ZNSt16allocator_traitsISaI8PositionEE37select_on_container_copy_constructionERKS1_
FN:545,_ZSt18__do_alloc_on_moveISaI4MoveEEvRT_S3_St17integral_constantIbLb1EE
FNDA:0,_ZSt18__do_alloc_on_moveISaI4MoveEEvRT_S3_St17integral_constantIbLb1EE
FN:553,_ZSt15__alloc_on_moveISaI4MoveEEvRT_S3_
FNDA:0,_ZSt15__alloc_on_moveISaI4MoveEEvRT_S3_
DA:443,0
DA:444,0
DA:443,0
DA:444,0
DA:443,16
DA:444,16
DA:443,155
DA:444,155
DA:443,14901
DA:444,14901
DA:443,1136
DA:444,1136
DA:469,16
DA:470,16
DA:469,155
DA:470,155
DA:469,0
DA:470,0
DA:469,0
DA:470,0
DA:469,0
DA:470,0
DA:469,0
DA:470,0
DA:482,201
DA:484,201
DA:482,8
DA:484,8
DA:482,25
DA:484,25
DA:482,30163
DA:484,30163
DA:482,1180
DA:484,1180
DA:495,155
DA:497,155
DA:495,16
DA:497,16
DA:495,13998
DA:497,13998
DA:495,201
DA:497,201
DA:505,25704
DA:506,25704
DA:505,2272
DA:506,2272
DA:514,0
DA:515,0
DA:514,0
DA:515,0
DA:514,2076
DA:515,2076
DA:514,0
DA:515,0
DA:545,0
DA:546,0
DA:553,0
DA:557,0
DA:558,0
end_of_record
TN:
SF:/usr/include/c++/9/bits/allocated_ptr.h
FN:52,_ZNSt15__allocated_ptrISaISt23_Sp_counted_ptr_inplaceI4KingSaIS1_ELN9__gnu_cxx12_Lock_policyE2EEEEC2ERS6_PS5_
FNDA:0,_ZNSt15__allocated_ptrISaISt23_Sp_counted_ptr_inplaceI4KingSaIS1_ELN9__gnu_cxx12_Lock_policyE2EEEEC2ERS6_PS5_
FN:52,_ZNSt15__allocated_ptrISaISt23_Sp_counted_ptr_inplaceI4PawnSaIS1_ELN9__gnu_cxx12_Lock_policyE2EEEEC2ERS6_PS5_
FNDA:0,_ZNSt15__allocated_ptrISaISt23_Sp_counted_ptr_inplaceI4PawnSaIS1_ELN9__gnu_cxx12_Lock_policyE2EEEEC2ERS6_PS5_
FN:70,_ZNSt15__allocated_ptrISaISt23_Sp_counted_ptr_inplaceI4KingSaIS1_ELN9__gnu_cxx12_Lock_policyE2EEEED2Ev
FNDA:0,_ZNSt15__allocated_ptrISaISt23_Sp_counted_ptr_inplaceI4KingSaIS1_ELN9__gnu_cxx12_Lock_policyE2EEEED2Ev
FN:70,_ZNSt15__allocated_ptrISaISt23_Sp_counted_ptr_inplaceI4PawnSaIS1_ELN9__gnu_cxx12_Lock_policyE2EEEED2Ev
FNDA:0,_ZNSt15__allocated_ptrISaISt23_Sp_counted_ptr_inplaceI4PawnSaIS1_ELN9__gnu_cxx12_Lock_policyE2EEEED2Ev
FN:78,_ZNSt15__allocated_ptrISaISt23_Sp_counted_ptr_inplaceI4KingSaIS1_ELN9__gnu_cxx12_Lock_policyE2EEEEaSEDn
FNDA:0,_ZNSt15__allocated_ptrISaISt23_Sp_counted_ptr_inplaceI4KingSaIS1_ELN9__gnu_cxx12_Lock_policyE2EEEEaSEDn
FN:78,_ZNSt15__allocated_ptrISaISt23_Sp_counted_ptr_inplaceI4PawnSaIS1_ELN9__gnu_cxx12_Lock_policyE2EEEEaSEDn
FNDA:0,_ZNSt15__allocated_ptrISaISt23_Sp_counted_ptr_inplaceI4PawnSaIS1_ELN9__gnu_cxx12_Lock_policyE2EEEEaSEDn
FN:85,_ZNSt15__allocated_ptrISaISt23_Sp_counted_ptr_inplaceI4KingSaIS1_ELN9__gnu_cxx12_Lock_policyE2EEEE3getEv
FNDA:0,_ZNSt15__allocated_ptrISaISt23_Sp_counted_ptr_inplaceI4KingSaIS1_ELN9__gnu_cxx12_Lock_policyE2EEEE3getEv
FN:85,_ZNSt15__allocated_ptrISaISt23_Sp_counted_ptr_inplaceI4PawnSaIS1_ELN9__gnu_cxx12_Lock_policyE2EEEE3getEv
FNDA:0,_ZNSt15__allocated_ptrISaISt23_Sp_counted_ptr_inplaceI4PawnSaIS1_ELN9__gnu_cxx12_Lock_policyE2EEEE3getEv
FN:95,_ZSt18__allocate_guardedISaISt23_Sp_counted_ptr_inplaceI4KingSaIS1_ELN9__gnu_cxx12_Lock_policyE2EEEESt15__allocated_ptrIT_ERS8_
FNDA:0,_ZSt18__allocate_guardedISaISt23_Sp_counted_ptr_inplaceI4KingSaIS1_ELN9__gnu_cxx12_Lock_policyE2EEEESt15__allocated_ptrIT_ERS8_
FN:95,_ZSt18__allocate_guardedISaISt23_Sp_counted_ptr_inplaceI4PawnSaIS1_ELN9__gnu_cxx12_Lock_policyE2EEEESt15__allocated_ptrIT_ERS8_
FNDA:0,_ZSt18__allocate_guardedISaISt23_Sp_counted_ptr_inplaceI4PawnSaIS1_ELN9__gnu_cxx12_Lock_policyE2EEEESt15__allocated_ptrIT_ERS8_
DA:52,0
DA:53,0
DA:54,0
DA:52,0
DA:53,0
DA:54,0
DA:70,0
DA:72,0
DA:73,0
DA:74,0
DA:70,0
DA:72,0
DA:73,0
DA:74,0
DA:78,0
DA:80,0
DA:81,0
DA:78,0
DA:80,0
DA:81,0
DA:85,0
DA:85,0
DA:95,0
DA:97,0
DA:95,0
DA:97,0
end_of_record
SF:/usr/include/c++/9/new
FN:173,_ZnwmPv
FNDA:0,_ZnwmPv
FN:179,_ZdlPvS_
FNDA:0,_ZdlPvS_
DA:173,0
DA:174,0
DA:179,0
end_of_record
SF:/usr/include/c++/9/ext/new_allocator.h
FN:80,_ZN9__gnu_cxx13new_allocatorI4PawnEC2Ev
FNDA:0,_ZN9__gnu_cxx13new_allocatorI4PawnEC2Ev
FN:80,_ZN9__gnu_cxx13new_allocatorI4KingEC2Ev
FNDA:0,_ZN9__gnu_cxx13new_allocatorI4KingEC2Ev
FN:80,_ZN9__gnu_cxx13new_allocatorISt23_Sp_counted_ptr_inplaceI4PawnSaIS2_ELNS_12_Lock_policyE2EEEC2Ev
FNDA:0,_ZN9__gnu_cxx13new_allocatorISt23_Sp_counted_ptr_inplaceI4PawnSaIS2_ELNS_12_Lock_policyE2EEEC2Ev
FN:80,_ZN9__gnu_cxx13new_allocatorISt23_Sp_counted_ptr_inplaceI4KingSaIS2_ELNS_12_Lock_policyE2EEEC2Ev
FNDA:0,_ZN9__gnu_cxx13new_allocatorISt23_Sp_counted_ptr_inplaceI4KingSaIS2_ELNS_12_Lock_policyE2EEEC2Ev
FN:83,_ZN9__gnu_cxx13new_allocatorI4PawnEC2ERKS2_
FNDA:0,_ZN9__gnu_cxx13new_allocatorI4PawnEC2ERKS2_
FN:83,_ZN9__gnu_cxx13new_allocatorI4KingEC2ERKS2_
FNDA:0,_ZN9__gnu_cxx13new_allocatorI4KingEC2ERKS2_
FN:89,_ZN9__gnu_cxx13new_allocatorISt10shared_ptrI5PieceEED2Ev
FNDA:0,_ZN9__gnu_cxx13new_allocatorISt10shared_ptrI5PieceEED2Ev
FN:89,_ZN9__gnu_cxx13new_allocatorI4PawnED2Ev
FNDA:0,_ZN9__gnu_cxx13new_allocatorI4PawnED2Ev
FN:89,_ZN9__gnu_cxx13new_allocatorI4KingED2Ev
FNDA:0,_ZN9__gnu_cxx13new_allocatorI4KingED2Ev
FN:89,_ZN9__gnu_cxx13new_allocatorISt23_Sp_counted_ptr_inplaceI4PawnSaIS2_ELNS_12_Lock_policyE2EEED2Ev
FNDA:0,_ZN9__gnu_cxx13new_allocatorISt23_Sp_counted_ptr_inplaceI4PawnSaIS2_ELNS_12_Lock_policyE2EEED2Ev
FN:89,_ZN9__gnu_cxx13new_allocatorISt23_Sp_counted_ptr_inplaceI4KingSaIS2_ELNS_12_Lock_policyE2EEED2Ev
FNDA:0,_ZN9__gnu_cxx13new_allocatorISt23_Sp_counted_ptr_inplaceI4KingSaIS2_ELNS_12_Lock_policyE2EEED2Ev
FN:102,_ZN9__gnu_cxx13new_allocatorISt23_Sp_counted_ptr_inplaceI4PawnSaIS2_ELNS_12_Lock_policyE2EEE8allocateEmPKv
FNDA:0,_ZN9__gnu_cxx13new_allocatorISt23_Sp_counted_ptr_inplaceI4PawnSaIS2_ELNS_12_Lock_policyE2EEE8allocateEmPKv
FN:102,_ZN9__gnu_cxx13new_allocatorISt23_Sp_counted_ptr_inplaceI4KingSaIS2_ELNS_12_Lock_policyE2EEE8allocateEmPKv
FNDA:0,_ZN9__gnu_cxx13new_allocatorISt23_Sp_counted_ptr_inplaceI4KingSaIS2_ELNS_12_Lock_policyE2EEE8allocateEmPKv
FN:102,_ZN9__gnu_cxx13new_allocatorISt10shared_ptrI5PieceEE8allocateEmPKv
FNDA:0,_ZN9__gnu_cxx13new_allocatorISt10shared_ptrI5PieceEE8allocateEmPKv
FN:119,_ZN9__gnu_cxx13new_allocatorISt23_Sp_counted_ptr_inplaceI4PawnSaIS2_ELNS_12_Lock_policyE2EEE10deallocateEPS5_m
FNDA:0,_ZN9__gnu_cxx13new_allocatorISt23_Sp_counted_ptr_inplaceI4PawnSaIS2_ELNS_12_Lock_policyE2EEE10deallocateEPS5_m
FN:119,_ZN9__gnu_cxx13new_allocatorISt23_Sp_counted_ptr_inplaceI4KingSaIS2_ELNS_12_Lock_policyE2EEE10deallocateEPS5_m
FNDA:0,_ZN9__gnu_cxx13new_allocatorISt23_Sp_counted_ptr_inplaceI4KingSaIS2_ELNS_12_Lock_policyE2EEE10deallocateEPS5_m
FN:119,_ZN9__gnu_cxx13new_allocatorISt10shared_ptrI5PieceEE10deallocateEPS3_m
FNDA:0,_ZN9__gnu_cxx13new_allocatorISt10shared_ptrI5PieceEE10deallocateEPS3_m
FN:132,_ZNK9__gnu_cxx13new_allocatorISt10shared_ptrI5PieceEE8max_sizeEv
FNDA:0,_ZNK9__gnu_cxx13new_allocatorISt10shared_ptrI5PieceEE8max_sizeEv
FN:132,_ZNK9__gnu_cxx13new_allocatorISt23_Sp_counted_ptr_inplaceI4PawnSaIS2_ELNS_12_Lock_policyE2EEE8max_sizeEv
FNDA:0,_ZNK9__gnu_cxx13new_allocatorISt23_Sp_counted_ptr_inplaceI4PawnSaIS2_ELNS_12_Lock_policyE2EEE8max_sizeEv
FN:132,_ZNK9__gnu_cxx13new_allocatorISt23_Sp_counted_ptr_inplaceI4KingSaIS2_ELNS_12_Lock_policyE2EEE8max_sizeEv
FNDA:0,_ZNK9__gnu_cxx13new_allocatorISt23_Sp_counted_ptr_inplaceI4KingSaIS2_ELNS_12_Lock_policyE2EEE8max_sizeEv
FN:144,_ZN9__gnu_cxx13new_allocatorI4PawnE9constructIS1_J8PositionRbbR5BoardEEEvPT_DpOT0_
FNDA:120,_ZN9__gnu_cxx13new_allocatorI4PawnE9constructIS1_J8PositionRbbR5BoardEEEvPT_DpOT0_
FN:144,_ZN9__gnu_cxx13new_allocatorI4KingE9constructIS1_JR8PositionRbbR5BoardEEEvPT_DpOT0_
FNDA:8,_ZN9__gnu_cxx13new_allocatorI4KingE9constructIS1_JR8PositionRbbR5BoardEEEvPT_DpOT0_
FN:144,_ZN9__gnu_cxx13new_allocatorISt10shared_ptrI5PieceEE9constructIS3_JS3_EEEvPT_DpOT0_
FNDA:0,_ZN9__gnu_cxx13new_allocatorISt10shared_ptrI5PieceEE9constructIS3_JS3_EEEvPT_DpOT0_
FN:144,_ZN9__gnu_cxx13new_allocatorI4PawnE9constructIS1_JR8PositionRbbR5BoardEEEvPT_DpOT0_
FNDA:10,_ZN9__gnu_cxx13new_allocatorI4PawnE9constructIS1_JR8PositionRbbR5BoardEEEvPT_DpOT0_
FN:151,_ZN9__gnu_cxx13new_allocatorISt10shared_ptrI5PieceEE7destroyIS3_EEvPT_
FNDA:0,_ZN9__gnu_cxx13new_allocatorISt10shared_ptrI5PieceEE7destroyIS3_EEvPT_
FN:151,_ZN9__gnu_cxx13new_allocatorI4KingE7destroyIS1_EEvPT_
FNDA:0,_ZN9__gnu_cxx13new_allocatorI4KingE7destroyIS1_EEvPT_
FN:151,_ZN9__gnu_cxx13new_allocatorI4PawnE7destroyIS1_EEvPT_
FNDA:0,_ZN9__gnu_cxx13new_allocatorI4PawnE7destroyIS1_EEvPT_
DA:80,0
DA:80,0
DA:80,0
DA:80,0
DA:83,0
DA:83,0
DA:89,0
DA:89,0
DA:89,0
DA:89,0
DA:89,0
DA:102,0
DA:104,0
DA:105,0
DA:114,0
DA:102,0
DA:104,0
DA:105,0
DA:114,0
DA:102,0
DA:104,0
DA:105,0
DA:114,0
DA:119,0
DA:128,0
DA:129,0
DA:119,0
DA:128,0
DA:129,0
DA:119,0
DA:128,0
DA:129,0
DA:132,0
DA:135,0
DA:132,0
DA:135,0
DA:132,0
DA:135,0
DA:144,10
DA:147,10
DA:144,8
DA:147,8
DA:144,120
DA:147,120
DA:144,0
DA:147,0
DA:151,0
DA:153,0
DA:151,0
DA:153,0
DA:151,0
DA:153,0
end_of_record
SF:/usr/include/c++/9/bits/stl_uninitialized.h
FN:76,_ZNSt20__uninitialized_copyILb0EE13__uninit_copyISt13move_iteratorIPSt10shared_ptrI5PieceEES6_EET0_T_S9_S8_
FNDA:0,_ZNSt20__uninitialized_copyILb0EE13__uninit_copyISt13move_iteratorIPSt10shared_ptrI5PieceEES6_EET0_T_S9_S8_
FN:115,_ZSt18uninitialized_copyISt13move_iteratorIPSt10shared_ptrI5PieceEES4_ET0_T_S7_S6_
FNDA:0,_ZSt18uninitialized_copyISt13move_iteratorIPSt10shared_ptrI5PieceEES4_ET0_T_S7_S6_
FN:305,_ZSt22__uninitialized_copy_aISt13move_iteratorIPSt10shared_ptrI5PieceEES4_S3_ET0_T_S7_S6_RSaIT1_E
FNDA:0,_ZSt22__uninitialized_copy_aISt13move_iteratorIPSt10shared_ptrI5PieceEES4_S3_ET0_T_S7_S6_RSaIT1_E
FN:323,_ZSt34__uninitialized_move_if_noexcept_aIPSt10shared_ptrI5PieceES3_SaIS2_EET0_T_S6_S5_RT1_
FNDA:0,_ZSt34__uninitialized_move_if_noexcept_aIPSt10shared_ptrI5PieceES3_SaIS2_EET0_T_S6_S5_RT1_
FN:905,_ZSt19__relocate_object_aISt10shared_ptrI5PieceES2_SaIS2_EEvPT_PT0_RT1_
FNDA:0,_ZSt19__relocate_object_aISt10shared_ptrI5PieceES2_SaIS2_EEvPT_PT0_RT1_
FN:936,_ZSt14__relocate_a_1IPSt10shared_ptrI5PieceES3_SaIS2_EET0_T_S6_S5_RT1_
FNDA:0,_ZSt14__relocate_a_1IPSt10shared_ptrI5PieceES3_SaIS2_EET0_T_S6_S5_RT1_
FN:958,_ZSt12__relocate_aIPSt10shared_ptrI5PieceES3_SaIS2_EET0_T_S6_S5_RT1_
FNDA:0,_ZSt12__relocate_aIPSt10shared_ptrI5PieceES3_SaIS2_EET0_T_S6_S5_RT1_
DA:76,0
DA:79,0
DA:82,0
DA:83,0
DA:84,0
DA:86,0
DA:88,0
DA:89,0
DA:115,0
DA:134,0
DA:140,0
DA:305,0
DA:307,0
DA:323,0
DA:329,0
DA:330,0
DA:905,0
DA:912,0
DA:913,0
DA:914,0
DA:936,0
DA:948,0
DA:949,0
DA:950,0
DA:952,0
DA:958,0
DA:964,0
DA:966,0
end_of_record
SF:/usr/include/c++/9/bits/shared_ptr_base.h
FN:117,_ZNSt16_Sp_counted_baseILN9__gnu_cxx12_Lock_policyE2EEC2Ev
FNDA:0,_ZNSt16_Sp_counted_baseILN9__gnu_cxx12_Lock_policyE2EEC2Ev
FN:121,_ZNSt16_Sp_counted_baseILN9__gnu_cxx12_Lock_policyE2EED2Ev
FNDA:0,_ZNSt16_Sp_counted_baseILN9__gnu_cxx12_Lock_policyE2EED2Ev
FN:121,_ZNSt16_Sp_counted_baseILN9__gnu_cxx12_Lock_policyE2EED0Ev
FNDA:0,_ZNSt16_Sp_counted_baseILN9__gnu_cxx12_Lock_policyE2EED0Ev
FN:131,_ZNSt16_Sp_counted_baseILN9__gnu_cxx12_Lock_policyE2EE10_M_destroyEv
FNDA:0,_ZNSt16_Sp_counted_baseILN9__gnu_cxx12_Lock_policyE2EE10_M_destroyEv
FN:138,_ZNSt16_Sp_counted_baseILN9__gnu_cxx12_Lock_policyE2EE15_M_add_ref_copyEv
FNDA:0,_ZNSt16_Sp_counted_baseILN9__gnu_cxx12_Lock_policyE2EE15_M_add_ref_copyEv
FN:148,_ZNSt16_Sp_counted_baseILN9__gnu_cxx12_Lock_policyE2EE10_M_releaseEv
FNDA:0,_ZNSt16_Sp_counted_baseILN9__gnu_cxx12_Lock_policyE2EE10_M_releaseEv
FN:414,_ZNSt14_Sp_ebo_helperILi0ESaI4PawnELb1EEC2ERKS1_
FNDA:0,_ZNSt14_Sp_ebo_helperILi0ESaI4PawnELb1EEC2ERKS1_
FN:414,_ZNSt14_Sp_ebo_helperILi0ESaI4KingELb1EEC2ERKS1_
FNDA:0,_ZNSt14_Sp_ebo_helperILi0ESaI4KingELb1EEC2ERKS1_
FN:418,_ZNSt14_Sp_ebo_helperILi0ESaI4KingELb1EE6_S_getERS2_
FNDA:0,_ZNSt14_Sp_ebo_helperILi0ESaI4KingELb1EE6_S_getERS2_
FN:418,_ZNSt14_Sp_ebo_helperILi0ESaI4PawnELb1EE6_S_getERS2_
FNDA:0,_ZNSt14_Sp_ebo_helperILi0ESaI4PawnELb1EE6_S_getERS2_
FN:508,_ZNSt19_Sp_make_shared_tag5_S_tiEv
FNDA:0,_ZNSt19_Sp_make_shared_tag5_S_tiEv
FN:531,_ZNSt23_Sp_counted_ptr_inplaceI4KingSaIS0_ELN9__gnu_cxx12_Lock_policyE2EE5_ImplC2ES1_
FNDA:0,_ZNSt23_Sp_counted_ptr_inplaceI4KingSaIS0_ELN9__gnu_cxx12_Lock_policyE2EE5_ImplC2ES1_
FN:531,_ZNSt23_Sp_counted_ptr_inplaceI4PawnSaIS0_ELN9__gnu_cxx12_Lock_policyE2EE5_ImplC2ES1_
FNDA:0,_ZNSt23_Sp_counted_ptr_inplaceI4PawnSaIS0_ELN9__gnu_cxx12_Lock_policyE2EE5_ImplC2ES1_
FN:533,_ZNSt23_Sp_counted_ptr_inplaceI4PawnSaIS0_ELN9__gnu_cxx12_Lock_policyE2EE5_Impl8_M_allocEv
FNDA:0,_ZNSt23_Sp_counted_ptr_inplaceI4PawnSaIS0_ELN9__gnu_cxx12_Lock_policyE2EE5_Impl8_M_allocEv
FN:533,_ZNSt23_Sp_counted_ptr_inplaceI4KingSaIS0_ELN9__gnu_cxx12_Lock_policyE2EE5_Impl8_M_allocEv
FNDA:0,_ZNSt23_Sp_counted_ptr_inplaceI4KingSaIS0_ELN9__gnu_cxx12_Lock_policyE2EE5_Impl8_M_allocEv
FN:543,_ZNSt23_Sp_counted_ptr_inplaceI4PawnSaIS0_ELN9__gnu_cxx12_Lock_policyE2EEC2IJ8PositionRbbR5BoardEEES1_DpOT_
FNDA:120,_ZNSt23_Sp_counted_ptr_inplaceI4PawnSaIS0_ELN9__gnu_cxx12_Lock_policyE2EEC2IJ8PositionRbbR5BoardEEES1_DpOT_
FN:543,_ZNSt23_Sp_counted_ptr_inplaceI4KingSaIS0_ELN9__gnu_cxx12_Lock_policyE2EEC2IJR8PositionRbbR5BoardEEES1_DpOT_
FNDA:8,_ZNSt23_Sp_counted_ptr_inplaceI4KingSaIS0_ELN9__gnu_cxx12_Lock_policyE2EEC2IJR8PositionRbbR5BoardEEES1_DpOT_
FN:543,_ZNSt23_Sp_counted_ptr_inplaceI4PawnSaIS0_ELN9__gnu_cxx12_Lock_policyE2EEC2IJR8PositionRbbR5BoardEEES1_DpOT_
FNDA:10,_ZNSt23_Sp_counted_ptr_inplaceI4PawnSaIS0_ELN9__gnu_cxx12_Lock_policyE2EEC2IJR8PositionRbbR5BoardEEES1_DpOT_
FN:552,_ZNSt23_Sp_counted_ptr_inplaceI4KingSaIS0_ELN9__gnu_cxx12_Lock_policyE2EED0Ev
FNDA:0,_ZNSt23_Sp_counted_ptr_inplaceI4KingSaIS0_ELN9__gnu_cxx12_Lock_policyE2EED0Ev
FN:552,_ZNSt23_Sp_counted_ptr_inplaceI4PawnSaIS0_ELN9__gnu_cxx12_Lock_policyE2EED0Ev
FNDA:0,_ZNSt23_Sp_counted_ptr_inplaceI4PawnSaIS0_ELN9__gnu_cxx12_Lock_policyE2EED0Ev
FN:552,_ZNSt23_Sp_counted_ptr_inplaceI4PawnSaIS0_ELN9__gnu_cxx12_Lock_policyE2EED2Ev
FNDA:0,_ZNSt23_Sp_counted_ptr_inplaceI4PawnSaIS0_ELN9__gnu_cxx12_Lock_policyE2EED2Ev
FN:552,_ZNSt23_Sp_counted_ptr_inplaceI4KingSaIS0_ELN9__gnu_cxx12_Lock_policyE2EED2Ev
FNDA:0,_ZNSt23_Sp_counted_ptr_inplaceI4KingSaIS0_ELN9__gnu_cxx12_Lock_policyE2EED2Ev
FN:555,_ZNSt23_Sp_counted_ptr_inplaceI4KingSaIS0_ELN9__gnu_cxx12_Lock_policyE2EE10_M_disposeEv
FNDA:0,_ZNSt23_Sp_counted_ptr_inplaceI4KingSaIS0_ELN9__gnu_cxx12_Lock_policyE2EE10_M_disposeEv
FN:555,_ZNSt23_Sp_counted_ptr_inplaceI4PawnSaIS0_ELN9__gnu_cxx12_Lock_policyE2EE10_M_disposeEv
FNDA:0,_ZNSt23_Sp_counted_ptr_inplaceI4PawnSaIS0_ELN9__gnu_cxx12_Lock_policyE2EE10_M_disposeEv
FN:562,_ZNSt23_Sp_counted_ptr_inplaceI4PawnSaIS0_ELN9__gnu_cxx12_Lock_policyE2EE10_M_destroyEv
FNDA:0,_ZNSt23_Sp_counted_ptr_inplaceI4PawnSaIS0_ELN9__gnu_cxx12_Lock_policyE2EE10_M_destroyEv
FN:562,_ZNSt23_Sp_counted_ptr_inplaceI4KingSaIS0_ELN9__gnu_cxx12_Lock_policyE2EE10_M_destroyEv
FNDA:0,_ZNSt23_Sp_counted_ptr_inplaceI4KingSaIS0_ELN9__gnu_cxx12_Lock_policyE2EE10_M_destroyEv
FN:575,_ZNSt23_Sp_counted_ptr_inplaceI4PawnSaIS0_ELN9__gnu_cxx12_Lock_policyE2EE14_M_get_deleterERKSt9type_info
FNDA:0,_ZNSt23_Sp_counted_ptr_inplaceI4PawnSaIS0_ELN9__gnu_cxx12_Lock_policyE2EE14_M_get_deleterERKSt9type_info
FN:575,_ZNSt23_Sp_counted_ptr_inplaceI4KingSaIS0_ELN9__gnu_cxx12_Lock_policyE2EE14_M_get_deleterERKSt9type_info
FNDA:0,_ZNSt23_Sp_counted_ptr_inplaceI4KingSaIS0_ELN9__gnu_cxx12_Lock_policyE2EE14_M_get_deleterERKSt9type_info
FN:594,_ZNSt23_Sp_counted_ptr_inplaceI4KingSaIS0_ELN9__gnu_cxx12_Lock_policyE2EE6_M_ptrEv
FNDA:0,_ZNSt23_Sp_counted_ptr_inplaceI4KingSaIS0_ELN9__gnu_cxx12_Lock_policyE2EE6_M_ptrEv
FN:594,_ZNSt23_Sp_counted_ptr_inplaceI4PawnSaIS0_ELN9__gnu_cxx12_Lock_policyE2EE6_M_ptrEv
FNDA:0,_ZNSt23_Sp_counted_ptr_inplaceI4PawnSaIS0_ELN9__gnu_cxx12_Lock_policyE2EE6_M_ptrEv
FN:616,_ZNSt14__shared_countILN9__gnu_cxx12_Lock_policyE2EEC2Ev
FNDA:0,_ZNSt14__shared_countILN9__gnu_cxx12_Lock_policyE2EEC2Ev
FN:672,_ZNSt14__shared_countILN9__gnu_cxx12_Lock_policyE2EEC2I4PawnSaIS4_EJR8PositionRbbR5BoardEEERPT_St20_Sp_alloc_shared_tagIT0_EDpOT1_
FNDA:10,_ZNSt14__shared_countILN9__gnu_cxx12_Lock_policyE2EEC2I4PawnSaIS4_EJR8PositionRbbR5BoardEEERPT_St20_Sp_alloc_shared_tagIT0_EDpOT1_
FN:672,_ZNSt14__shared_countILN9__gnu_cxx12_Lock_policyE2EEC2I4PawnSaIS4_EJ8PositionRbbR5BoardEEERPT_St20_Sp_alloc_shared_tagIT0_EDpOT1_
FNDA:120,_ZNSt14__shared_countILN9__gnu_cxx12_Lock_policyE2EEC2I4PawnSaIS4_EJ8PositionRbbR5BoardEEERPT_St20_Sp_alloc_shared_tagIT0_EDpOT1_
FN:672,_ZNSt14__shared_countILN9__gnu_cxx12_Lock_policyE2EEC2I4KingSaIS4_EJR8PositionRbbR5BoardEEERPT_St20_Sp_alloc_shared_tagIT0_EDpOT1_
FNDA:8,_ZNSt14__shared_countILN9__gnu_cxx12_Lock_policyE2EEC2I4KingSaIS4_EJR8PositionRbbR5BoardEEERPT_St20_Sp_alloc_shared_tagIT0_EDpOT1_
FN:727,_ZNSt14__shared_countILN9__gnu_cxx12_Lock_policyE2EED2Ev
FNDA:0,_ZNSt14__shared_countILN9__gnu_cxx12_Lock_policyE2EED2Ev
FN:733,_ZNSt14__shared_countILN9__gnu_cxx12_Lock_policyE2EEC2ERKS2_
FNDA:0,_ZNSt14__shared_countILN9__gnu_cxx12_Lock_policyE2EEC2ERKS2_
FN:756,_ZNSt14__shared_countILN9__gnu_cxx12_Lock_policyE2EE7_M_swapERS2_
FNDA:0,_ZNSt14__shared_countILN9__gnu_cxx12_Lock_policyE2EE7_M_swapERS2_
FN:1167,_ZNSt12__shared_ptrI5PieceLN9__gnu_cxx12_Lock_policyE2EEC2ERKS3_
FNDA:0,_ZNSt12__shared_ptrI5PieceLN9__gnu_cxx12_Lock_policyE2EEC2ERKS3_
FN:1169,_ZNSt12__shared_ptrI5PieceLN9__gnu_cxx12_Lock_policyE2EED2Ev
FNDA:0,_ZNSt12__shared_ptrI5PieceLN9__gnu_cxx12_Lock_policyE2EED2Ev
FN:1169,_ZNSt12__shared_ptrI4PawnLN9__gnu_cxx12_Lock_policyE2EED2Ev
FNDA:0,_ZNSt12__shared_ptrI4PawnLN9__gnu_cxx12_Lock_policyE2EED2Ev
FN:1169,_ZNSt12__shared_ptrI4KingLN9__gnu_cxx12_Lock_policyE2EED2Ev
FNDA:0,_ZNSt12__shared_ptrI4KingLN9__gnu_cxx12_Lock_policyE2EED2Ev
FN:1176,_ZNSt12__shared_ptrI5PieceLN9__gnu_cxx12_Lock_policyE2EEC2EOS3_
FNDA:0,_ZNSt12__shared_ptrI5PieceLN9__gnu_cxx12_Lock_policyE2EEC2EOS3_
FN:1184,_ZNSt12__shared_ptrI5PieceLN9__gnu_cxx12_Lock_policyE2EEC2I4KingvEEOS_IT_LS2_2EE
FNDA:0,_ZNSt12__shared_ptrI5PieceLN9__gnu_cxx12_Lock_policyE2EEC2I4KingvEEOS_IT_LS2_2EE
FN:1184,_ZNSt12__shared_ptrI5PieceLN9__gnu_cxx12_Lock_policyE2EEC2I4PawnvEEOS_IT_LS2_2EE
FNDA:0,_ZNSt12__shared_ptrI5PieceLN9__gnu_cxx12_Lock_policyE2EEC2I4PawnvEEOS_IT_LS2_2EE
FN:1343,_ZNSt12__shared_ptrI4PawnLN9__gnu_cxx12_Lock_policyE2EEC2ISaIS0_EJ8PositionRbbR5BoardEEESt20_Sp_alloc_shared_tagIT_EDpOT0_
FNDA:120,_ZNSt12__shared_ptrI4PawnLN9__gnu_cxx12_Lock_policyE2EEC2ISaIS0_EJ8PositionRbbR5BoardEEESt20_Sp_alloc_shared_tagIT_EDpOT0_
FN:1343,_ZNSt12__shared_ptrI4PawnLN9__gnu_cxx12_Lock_policyE2EEC2ISaIS0_EJR8PositionRbbR5BoardEEESt20_Sp_alloc_shared_tagIT_EDpOT0_
FNDA:10,_ZNSt12__shared_ptrI4PawnLN9__gnu_cxx12_Lock_policyE2EEC2ISaIS0_EJR8PositionRbbR5BoardEEESt20_Sp_alloc_shared_tagIT_EDpOT0_
FN:1343,_ZNSt12__shared_ptrI4KingLN9__gnu_cxx12_Lock_policyE2EEC2ISaIS0_EJR8PositionRbbR5BoardEEESt20_Sp_alloc_shared_tagIT_EDpOT0_
FNDA:8,_ZNSt12__shared_ptrI4KingLN9__gnu_cxx12_Lock_policyE2EEC2ISaIS0_EJR8PositionRbbR5BoardEEESt20_Sp_alloc_shared_tagIT_EDpOT0_
FN:1388,_ZNSt12__shared_ptrI4KingLN9__gnu_cxx12_Lock_policyE2EE31_M_enable_shared_from_this_withIS0_S0_EENSt9enable_ifIXntsrNS3_15__has_esft_baseIT0_vEE5valueEvE4typeEPT_
FNDA:0,_ZNSt12__shared_ptrI4KingLN9__gnu_cxx12_Lock_policyE2EE31_M_enable_shared_from_this_withIS0_S0_EENSt9enable_ifIXntsrNS3_15__has_esft_baseIT0_vEE5valueEvE4typeEPT_
FN:1388,_ZNSt12__shared_ptrI4PawnLN9__gnu_cxx12_Lock_policyE2EE31_M_enable_shared_from_this_withIS0_S0_EENSt9enable_ifIXntsrNS3_15__has_esft_baseIT0_vEE5valueEvE4typeEPT_
FNDA:0,_ZNSt12__shared_ptrI4PawnLN9__gnu_cxx12_Lock_policyE2EE31_M_enable_shared_from_this_withIS0_S0_EENSt9enable_ifIXntsrNS3_15__has_esft_baseIT0_vEE5valueEvE4typeEPT_
DA:117,0
DA:118,0
DA:121,0
DA:122,0
DA:121,0
DA:122,0
DA:131,0
DA:132,0
DA:138,0
DA:139,0
DA:148,0
DA:152,0
DA:155,0
DA:167,0
DA:168,0
DA:171,0
DA:174,0
DA:414,0
DA:414,0
DA:418,0
DA:418,0
DA:508,0
DA:511,0
DA:531,0
DA:531,0
DA:533,0
DA:533,0
DA:543,10
DA:544,10
DA:548,10
DA:550,10
DA:543,8
DA:544,8
DA:548,8
DA:550,8
DA:543,120
DA:544,120
DA:548,120
DA:550,120
DA:552,0
DA:552,0
DA:552,0
DA:552,0
DA:555,0
DA:557,0
DA:558,0
DA:555,0
DA:557,0
DA:558,0
DA:562,0
DA:564,0
DA:565,0
DA:566,0
DA:567,0
DA:562,0
DA:564,0
DA:565,0
DA:566,0
DA:567,0
DA:575,0
DA:577,0
DA:582,0
DA:583,0
DA:585,0
DA:590,0
DA:591,0
DA:575,0
DA:577,0
DA:582,0
DA:583,0
DA:585,0
DA:590,0
DA:591,0
DA:594,0
DA:594,0
DA:616,0
DA:617,0
DA:672,10
DA:676,20
DA:677,10
DA:678,10
DA:679,20
DA:680,10
DA:681,10
DA:682,10
DA:683,10
DA:684,10
DA:672,8
DA:676,16
DA:677,8
DA:678,8
DA:679,16
DA:680,8
DA:681,8
DA:682,8
DA:683,8
DA:684,8
DA:672,120
DA:676,240
DA:677,120
DA:678,120
DA:679,240
DA:680,120
DA:681,120
DA:682,120
DA:683,120
DA:684,120
DA:727,0
DA:729,0
DA:730,0
DA:731,0
DA:733,0
DA:734,0
DA:736,0
DA:737,0
DA:738,0
DA:756,0
DA:758,0
DA:759,0
DA:760,0
DA:761,0
DA:1167,0
DA:1169,0
DA:1169,0
DA:1169,0
DA:1176,0
DA:1177,0
DA:1179,0
DA:1180,0
DA:1181,0
DA:1184,0
DA:1185,0
DA:1187,0
DA:1188,0
DA:1189,0
DA:1184,0
DA:1185,0
DA:1187,0
DA:1188,0
DA:1189,0
DA:1343,10
DA:1344,10
DA:1345,10
DA:1343,8
DA:1344,8
DA:1345,8
DA:1343,120
DA:1344,120
DA:1345,120
DA:1388,0
DA:1389,0
DA:1388,0
DA:1389,0
end_of_record
SF:/usr/include/c++/9/bits/stl_algobase.h
FN:198,_ZSt3minImERKT_S2_S2_
FNDA:0,_ZSt3minImERKT_S2_S2_
FN:222,_ZSt3maxImERKT_S2_S2_
FNDA:0,_ZSt3maxImERKT_S2_S2_
FN:280,_ZSt12__niter_baseIPSt10shared_ptrI5PieceEET_S4_
FNDA:0,_ZSt12__niter_baseIPSt10shared_ptrI5PieceEET_S4_
DA:198,0
DA:203,0
DA:204,0
DA:205,0
DA:222,0
DA:227,0
DA:228,0
DA:229,0
DA:280,0
DA:282,0
end_of_record
SF:/usr/include/c++/9/ext/atomicity.h
FN:48,_ZN9__gnu_cxxL18__exchange_and_addEPVii
FNDA:0,_ZN9__gnu_cxxL18__exchange_and_addEPVii
FN:52,_ZN9__gnu_cxxL12__atomic_addEPVii
FNDA:0,_ZN9__gnu_cxxL12__atomic_addEPVii
FN:65,_ZN9__gnu_cxxL25__exchange_and_add_singleEPii
FNDA:0,_ZN9__gnu_cxxL25__exchange_and_add_singleEPii
FN:73,_ZN9__gnu_cxxL19__atomic_add_singleEPii
FNDA:0,_ZN9__gnu_cxxL19__atomic_add_singleEPii
FN:78,_ZN9__gnu_cxxL27__exchange_and_add_dispatchEPii
FNDA:0,_ZN9__gnu_cxxL27__exchange_and_add_dispatchEPii
FN:92,_ZN9__gnu_cxxL21__atomic_add_dispatchEPii
FNDA:0,_ZN9__gnu_cxxL21__atomic_add_dispatchEPii
DA:48,0
DA:49,0
DA:52,0
DA:53,0
DA:65,0
DA:67,0
DA:68,0
DA:69,0
DA:73,0
DA:74,0
DA:78,0
DA:81,0
DA:82,0
DA:84,0
DA:92,0
DA:95,0
DA:96,0
DA:98,0
DA:102,0
end_of_record
SF:/usr/include/c++/9/ext/aligned_buffer.h
FN:102,_ZN9__gnu_cxx16__aligned_bufferI4KingE7_M_addrEv
FNDA:0,_ZN9__gnu_cxx16__aligned_bufferI4KingE7_M_addrEv
FN:102,_ZN9__gnu_cxx16__aligned_bufferI4PawnE7_M_addrEv
FNDA:0,_ZN9__gnu_cxx16__aligned_bufferI4PawnE7_M_addrEv
FN:114,_ZN9__gnu_cxx16__aligned_bufferI4KingE6_M_ptrEv
FNDA:0,_ZN9__gnu_cxx16__aligned_bufferI4KingE6_M_ptrEv
FN:114,_ZN9__gnu_cxx16__aligned_bufferI4PawnE6_M_ptrEv
FNDA:0,_ZN9__gnu_cxx16__aligned_bufferI4PawnE6_M_ptrEv
DA:102,0
DA:104,0
DA:102,0
DA:104,0
DA:114,0
DA:115,0
DA:114,0
DA:115,0
end_of_record
SF:/usr/include/c++/9/bits/basic_string.h
end_of_record
SF:/usr/include/c++/9/bits/vector.tcc
FN:109,_ZNSt6vectorISt10shared_ptrI5PieceESaIS2_EE12emplace_backIJS2_EEEvDpOT_
FNDA:0,_ZNSt6vectorISt10shared_ptrI5PieceESaIS2_EE12emplace_backIJS2_EEEvDpOT_
FN:426,_ZNSt6vectorISt10shared_ptrI5PieceESaIS2_EE17_M_realloc_insertIJS2_EEEvN9__gnu_cxx17__normal_iteratorIPS2_S4_EEDpOT_
FNDA:0,_ZNSt6vectorISt10shared_ptrI5PieceESaIS2_EE17_M_realloc_insertIJS2_EEEvN9__gnu_cxx17__normal_iteratorIPS2_S4_EEDpOT_
DA:109,0
DA:112,0
DA:115,0
DA:117,0
DA:121,0
DA:125,0
DA:426,0
DA:435,0
DA:437,0
DA:438,0
DA:439,0
DA:440,0
DA:441,0
DA:449,0
DA:450,0
DA:456,0
DA:459,0
DA:461,0
DA:462,0
DA:464,0
DA:466,0
DA:467,0
DA:474,0
DA:475,0
DA:477,0
DA:481,0
DA:482,0
DA:485,0
DA:487,0
DA:488,0
DA:489,0
DA:491,0
DA:492,0
DA:493,0
DA:496,0
DA:498,0
DA:500,0
DA:501,0
DA:502,0
DA:503,0
DA:504,0
DA:505,0
end_of_record
SF:/home/napiad/studia/eiti/mgr/sem1/zpr/checkers-webapp/checkers/src/UserPlayer.h
end_of_record
SF:/usr/include/c++/9/iostream
end_of_record
SF:/usr/include/c++/9/typeinfo
FN:120,_ZNKSt9type_infoeqERKS_
FNDA:0,_ZNKSt9type_infoeqERKS_
DA:120,0
DA:122,0
DA:123,0
DA:124,0
end_of_record
SF:/home/napiad/studia/eiti/mgr/sem1/zpr/checkers-webapp/checkers/src/UserPlayer.cc
FN:13,_ZN10UserPlayerC2Eb
FNDA:6,_ZN10UserPlayerC2Eb
FN:15,_ZN10UserPlayerC2EbNSt7__cxx1112basic_stringIcSt11char_traitsIcESaIcEEE
FNDA:0,_ZN10UserPlayerC2EbNSt7__cxx1112basic_stringIcSt11char_traitsIcESaIcEEE
FN:19,_ZN10UserPlayer16initializePiecesER5Board
FNDA:5,_ZN10UserPlayer16initializePiecesER5Board
FN:34,_ZN10UserPlayer25initializePiecesFromBoardER5Board
FNDA:10,_ZN10UserPlayer25initializePiecesFromBoardER5Board
FN:38,_ZN10UserPlayer8addPieceEb8PositionR5Board
FNDA:9,_ZN10UserPlayer8addPieceEb8PositionR5Board
DA:13,6
DA:15,0
DA:16,0
DA:17,0
DA:19,5
DA:20,5
DA:21,13
DA:22,12
DA:25,20
DA:26,135
DA:27,120
DA:28,60
DA:32,5
DA:34,10
DA:35,10
DA:36,10
DA:38,9
DA:39,9
DA:40,5
DA:41,9
end_of_record
SF:/usr/include/c++/9/bits/alloc_traits.h
FN:443,_ZNSt16allocator_traitsISaISt23_Sp_counted_ptr_inplaceI4KingSaIS1_ELN9__gnu_cxx12_Lock_policyE2EEEE8allocateERS6_m
FNDA:0,_ZNSt16allocator_traitsISaISt23_Sp_counted_ptr_inplaceI4KingSaIS1_ELN9__gnu_cxx12_Lock_policyE2EEEE8allocateERS6_m
FN:443,_ZNSt16allocator_traitsISaISt23_Sp_counted_ptr_inplaceI4PawnSaIS1_ELN9__gnu_cxx12_Lock_policyE2EEEE8allocateERS6_m
FNDA:0,_ZNSt16allocator_traitsISaISt23_Sp_counted_ptr_inplaceI4PawnSaIS1_ELN9__gnu_cxx12_Lock_policyE2EEEE8allocateERS6_m
FN:443,_ZNSt16allocator_traitsISaISt10shared_ptrI5PieceEEE8allocateERS3_m
FNDA:0,_ZNSt16allocator_traitsISaISt10shared_ptrI5PieceEEE8allocateERS3_m
FN:469,_ZNSt16allocator_traitsISaISt23_Sp_counted_ptr_inplaceI4KingSaIS1_ELN9__gnu_cxx12_Lock_policyE2EEEE10deallocateERS6_PS5_m
FNDA:0,_ZNSt16allocator_traitsISaISt23_Sp_counted_ptr_inplaceI4KingSaIS1_ELN9__gnu_cxx12_Lock_policyE2EEEE10deallocateERS6_PS5_m
FN:469,_ZNSt16allocator_traitsISaISt23_Sp_counted_ptr_inplaceI4PawnSaIS1_ELN9__gnu_cxx12_Lock_policyE2EEEE10deallocateERS6_PS5_m
FNDA:0,_ZNSt16allocator_traitsISaISt23_Sp_counted_ptr_inplaceI4PawnSaIS1_ELN9__gnu_cxx12_Lock_policyE2EEEE10deallocateERS6_PS5_m
FN:469,_ZNSt16allocator_traitsISaISt10shared_ptrI5PieceEEE10deallocateERS3_PS2_m
FNDA:0,_ZNSt16allocator_traitsISaISt10shared_ptrI5PieceEEE10deallocateERS3_PS2_m
FN:482,_ZNSt16allocator_traitsISaI4PawnEE9constructIS0_JR8PositionRbbR5BoardEEEvRS1_PT_DpOT0_
FNDA:10,_ZNSt16allocator_traitsISaI4PawnEE9constructIS0_JR8PositionRbbR5BoardEEEvRS1_PT_DpOT0_
FN:482,_ZNSt16allocator_traitsISaI4KingEE9constructIS0_JR8PositionRbbR5BoardEEEvRS1_PT_DpOT0_
FNDA:8,_ZNSt16allocator_traitsISaI4KingEE9constructIS0_JR8PositionRbbR5BoardEEEvRS1_PT_DpOT0_
FN:482,_ZNSt16allocator_traitsISaI4PawnEE9constructIS0_J8PositionRbbR5BoardEEEvRS1_PT_DpOT0_
FNDA:120,_ZNSt16allocator_traitsISaI4PawnEE9constructIS0_J8PositionRbbR5BoardEEEvRS1_PT_DpOT0_
FN:482,_ZNSt16allocator_traitsISaISt10shared_ptrI5PieceEEE9constructIS2_JS2_EEEvRS3_PT_DpOT0_
FNDA:0,_ZNSt16allocator_traitsISaISt10shared_ptrI5PieceEEE9constructIS2_JS2_EEEvRS3_PT_DpOT0_
FN:495,_ZNSt16allocator_traitsISaI4PawnEE7destroyIS0_EEvRS1_PT_
FNDA:0,_ZNSt16allocator_traitsISaI4PawnEE7destroyIS0_EEvRS1_PT_
FN:495,_ZNSt16allocator_traitsISaI4KingEE7destroyIS0_EEvRS1_PT_
FNDA:0,_ZNSt16allocator_traitsISaI4KingEE7destroyIS0_EEvRS1_PT_
FN:495,_ZNSt16allocator_traitsISaISt10shared_ptrI5PieceEEE7destroyIS2_EEvRS3_PT_
FNDA:0,_ZNSt16allocator_traitsISaISt10shared_ptrI5PieceEEE7destroyIS2_EEvRS3_PT_
FN:505,_ZNSt16allocator_traitsISaISt10shared_ptrI5PieceEEE8max_sizeERKS3_
FNDA:0,_ZNSt16allocator_traitsISaISt10shared_ptrI5PieceEEE8max_sizeERKS3_
DA:443,0
DA:444,0
DA:443,0
DA:444,0
DA:443,0
DA:444,0
DA:469,0
DA:470,0
DA:469,0
DA:470,0
DA:469,0
DA:470,0
DA:482,10
DA:484,10
DA:482,8
DA:484,8
DA:482,120
DA:484,120
DA:482,0
DA:484,0
DA:495,0
DA:497,0
DA:495,0
DA:497,0
DA:495,0
DA:497,0
DA:505,0
DA:506,0
end_of_record
SF:/usr/include/x86_64-linux-gnu/c++/9/bits/gthr-default.h
FN:248,_ZL18__gthread_active_pv
FNDA:0,_ZL18__gthread_active_pv
DA:248,0
DA:252,0
end_of_record
SF:/home/napiad/studia/eiti/mgr/sem1/zpr/checkers-webapp/checkers/src/Player.h
FN:29,_ZN6PlayerD0Ev
FNDA:0,_ZN6PlayerD0Ev
FN:29,_ZN6PlayerD2Ev
FNDA:0,_ZN6PlayerD2Ev
DA:29,0
DA:29,0
end_of_record
SF:/usr/include/c++/9/bits/allocator.h
FN:138,_ZNSaI4KingEC2Ev
FNDA:0,_ZNSaI4KingEC2Ev
FN:138,_ZNSaI4PawnEC2Ev
FNDA:0,_ZNSaI4PawnEC2Ev
FN:141,_ZNSaI4KingEC2ERKS0_
FNDA:0,_ZNSaI4KingEC2ERKS0_
FN:141,_ZNSaI4PawnEC2ERKS0_
FNDA:0,_ZNSaI4PawnEC2ERKS0_
FN:151,_ZNSaISt23_Sp_counted_ptr_inplaceI4KingSaIS0_ELN9__gnu_cxx12_Lock_policyE2EEEC2IS0_EERKSaIT_E
FNDA:0,_ZNSaISt23_Sp_counted_ptr_inplaceI4KingSaIS0_ELN9__gnu_cxx12_Lock_policyE2EEEC2IS0_EERKSaIT_E
FN:151,_ZNSaISt23_Sp_counted_ptr_inplaceI4PawnSaIS0_ELN9__gnu_cxx12_Lock_policyE2EEEC2IS0_EERKSaIT_E
FNDA:0,_ZNSaISt23_Sp_counted_ptr_inplaceI4PawnSaIS0_ELN9__gnu_cxx12_Lock_policyE2EEEC2IS0_EERKSaIT_E
FN:153,_ZNSaISt23_Sp_counted_ptr_inplaceI4KingSaIS0_ELN9__gnu_cxx12_Lock_policyE2EEED2Ev
FNDA:0,_ZNSaISt23_Sp_counted_ptr_inplaceI4KingSaIS0_ELN9__gnu_cxx12_Lock_policyE2EEED2Ev
FN:153,_ZNSaISt23_Sp_counted_ptr_inplaceI4PawnSaIS0_ELN9__gnu_cxx12_Lock_policyE2EEED2Ev
FNDA:0,_ZNSaISt23_Sp_counted_ptr_inplaceI4PawnSaIS0_ELN9__gnu_cxx12_Lock_policyE2EEED2Ev
FN:153,_ZNSaI4KingED2Ev
FNDA:0,_ZNSaI4KingED2Ev
FN:153,_ZNSaI4PawnED2Ev
FNDA:0,_ZNSaI4PawnED2Ev
FN:153,_ZNSaISt10shared_ptrI5PieceEED2Ev
FNDA:0,_ZNSaISt10shared_ptrI5PieceEED2Ev
DA:138,0
DA:138,0
DA:141,0
DA:142,0
DA:141,0
DA:142,0
DA:151,0
DA:151,0
DA:153,0
DA:153,0
DA:153,0
DA:153,0
DA:153,0
end_of_record
SF:/usr/include/c++/9/bits/stl_iterator.h
FN:806,_ZN9__gnu_cxx17__normal_iteratorIPSt10shared_ptrI5PieceESt6vectorIS3_SaIS3_EEEC2ERKS4_
FNDA:0,_ZN9__gnu_cxx17__normal_iteratorIPSt10shared_ptrI5PieceESt6vectorIS3_SaIS3_EEEC2ERKS4_
FN:819,_ZNK9__gnu_cxx17__normal_iteratorIPSt10shared_ptrI5PieceESt6vectorIS3_SaIS3_EEEdeEv
FNDA:0,_ZNK9__gnu_cxx17__normal_iteratorIPSt10shared_ptrI5PieceESt6vectorIS3_SaIS3_EEEdeEv
FN:827,_ZN9__gnu_cxx17__normal_iteratorIPSt10shared_ptrI5PieceESt6vectorIS3_SaIS3_EEEppEv
FNDA:0,_ZN9__gnu_cxx17__normal_iteratorIPSt10shared_ptrI5PieceESt6vectorIS3_SaIS3_EEEppEv
FN:871,_ZNK9__gnu_cxx17__normal_iteratorIPSt10shared_ptrI5PieceESt6vectorIS3_SaIS3_EEE4baseEv
FNDA:0,_ZNK9__gnu_cxx17__normal_iteratorIPSt10shared_ptrI5PieceESt6vectorIS3_SaIS3_EEE4baseEv
FN:907,_ZN9__gnu_cxxneIPSt10shared_ptrI5PieceESt6vectorIS3_SaIS3_EEEEbRKNS_17__normal_iteratorIT_T0_EESD_
FNDA:0,_ZN9__gnu_cxxneIPSt10shared_ptrI5PieceESt6vectorIS3_SaIS3_EEEEbRKNS_17__normal_iteratorIT_T0_EESD_
FN:989,_ZN9__gnu_cxxmiIPSt10shared_ptrI5PieceESt6vectorIS3_SaIS3_EEEENS_17__normal_iteratorIT_T0_E15difference_typeERKSB_SE_
FNDA:0,_ZN9__gnu_cxxmiIPSt10shared_ptrI5PieceESt6vectorIS3_SaIS3_EEEENS_17__normal_iteratorIT_T0_E15difference_typeERKSB_SE_
FN:1057,_ZNSt13move_iteratorIPSt10shared_ptrI5PieceEEC2ES3_
FNDA:0,_ZNSt13move_iteratorIPSt10shared_ptrI5PieceEEC2ES3_
FN:1066,_ZNKSt13move_iteratorIPSt10shared_ptrI5PieceEE4baseEv
FNDA:0,_ZNKSt13move_iteratorIPSt10shared_ptrI5PieceEE4baseEv
FN:1070,_ZNKSt13move_iteratorIPSt10shared_ptrI5PieceEEdeEv
FNDA:0,_ZNKSt13move_iteratorIPSt10shared_ptrI5PieceEEdeEv
FN:1078,_ZNSt13move_iteratorIPSt10shared_ptrI5PieceEEppEv
FNDA:0,_ZNSt13move_iteratorIPSt10shared_ptrI5PieceEEppEv
FN:1145,_ZSteqIPSt10shared_ptrI5PieceEEbRKSt13move_iteratorIT_ES8_
FNDA:0,_ZSteqIPSt10shared_ptrI5PieceEEbRKSt13move_iteratorIT_ES8_
FN:1157,_ZStneIPSt10shared_ptrI5PieceEEbRKSt13move_iteratorIT_ES8_
FNDA:0,_ZStneIPSt10shared_ptrI5PieceEEbRKSt13move_iteratorIT_ES8_
FN:1242,_ZSt32__make_move_if_noexcept_iteratorISt10shared_ptrI5PieceESt13move_iteratorIPS2_EET0_PT_
FNDA:0,_ZSt32__make_move_if_noexcept_iteratorISt10shared_ptrI5PieceESt13move_iteratorIPS2_EET0_PT_
DA:806,0
DA:807,0
DA:819,0
DA:820,0
DA:827,0
DA:829,0
DA:830,0
DA:871,0
DA:872,0
DA:907,0
DA:910,0
DA:989,0
DA:992,0
DA:1057,0
DA:1058,0
DA:1066,0
DA:1067,0
DA:1070,0
DA:1071,0
DA:1078,0
DA:1080,0
DA:1081,0
DA:1145,0
DA:1147,0
DA:1157,0
DA:1159,0
DA:1242,0
DA:1243,0
end_of_record
SF:/usr/include/c++/9/bits/stl_vector.h
FN:273,_ZNSt12_Vector_baseISt10shared_ptrI5PieceESaIS2_EE19_M_get_Tp_allocatorEv
FNDA:0,_ZNSt12_Vector_baseISt10shared_ptrI5PieceESaIS2_EE19_M_get_Tp_allocatorEv
FN:277,_ZNKSt12_Vector_baseISt10shared_ptrI5PieceESaIS2_EE19_M_get_Tp_allocatorEv
FNDA:0,_ZNKSt12_Vector_baseISt10shared_ptrI5PieceESaIS2_EE19_M_get_Tp_allocatorEv
FN:330,_ZNSt12_Vector_baseISt10shared_ptrI5PieceESaIS2_EED2Ev
FNDA:0,_ZNSt12_Vector_baseISt10shared_ptrI5PieceESaIS2_EED2Ev
FN:340,_ZNSt12_Vector_baseISt10shared_ptrI5PieceESaIS2_EE11_M_allocateEm
FNDA:0,_ZNSt12_Vector_baseISt10shared_ptrI5PieceESaIS2_EE11_M_allocateEm
FN:347,_ZNSt12_Vector_baseISt10shared_ptrI5PieceESaIS2_EE13_M_deallocateEPS2_m
FNDA:0,_ZNSt12_Vector_baseISt10shared_ptrI5PieceESaIS2_EE13_M_deallocateEPS2_m
FN:428,_ZNSt6vectorISt10shared_ptrI5PieceESaIS2_EE19_S_nothrow_relocateESt17integral_constantIbLb1EE
FNDA:0,_ZNSt6vectorISt10shared_ptrI5PieceESaIS2_EE19_S_nothrow_relocateESt17integral_constantIbLb1EE
FN:441,_ZNSt6vectorISt10shared_ptrI5PieceESaIS2_EE15_S_use_relocateEv
FNDA:0,_ZNSt6vectorISt10shared_ptrI5PieceESaIS2_EE15_S_use_relocateEv
FN:450,_ZNSt6vectorISt10shared_ptrI5PieceESaIS2_EE14_S_do_relocateEPS2_S5_S5_RS3_St17integral_constantIbLb1EE
FNDA:0,_ZNSt6vectorISt10shared_ptrI5PieceESaIS2_EE14_S_do_relocateEPS2_S5_S5_RS3_St17integral_constantIbLb1EE
FN:462,_ZNSt6vectorISt10shared_ptrI5PieceESaIS2_EE11_S_relocateEPS2_S5_S5_RS3_
FNDA:0,_ZNSt6vectorISt10shared_ptrI5PieceESaIS2_EE11_S_relocateEPS2_S5_S5_RS3_
FN:675,_ZNSt6vectorISt10shared_ptrI5PieceESaIS2_EED2Ev
FNDA:0,_ZNSt6vectorISt10shared_ptrI5PieceESaIS2_EED2Ev
FN:808,_ZNSt6vectorISt10shared_ptrI5PieceESaIS2_EE5beginEv
FNDA:0,_ZNSt6vectorISt10shared_ptrI5PieceESaIS2_EE5beginEv
FN:826,_ZNSt6vectorISt10shared_ptrI5PieceESaIS2_EE3endEv
FNDA:0,_ZNSt6vectorISt10shared_ptrI5PieceESaIS2_EE3endEv
FN:915,_ZNKSt6vectorISt10shared_ptrI5PieceESaIS2_EE4sizeEv
FNDA:0,_ZNKSt6vectorISt10shared_ptrI5PieceESaIS2_EE4sizeEv
FN:920,_ZNKSt6vectorISt10shared_ptrI5PieceESaIS2_EE8max_sizeEv
FNDA:0,_ZNKSt6vectorISt10shared_ptrI5PieceESaIS2_EE8max_sizeEv
FN:1200,_ZNSt6vectorISt10shared_ptrI5PieceESaIS2_EE9push_backEOS2_
FNDA:0,_ZNSt6vectorISt10shared_ptrI5PieceESaIS2_EE9push_backEOS2_
FN:1753,_ZNKSt6vectorISt10shared_ptrI5PieceESaIS2_EE12_M_check_lenEmPKc
FNDA:0,_ZNKSt6vectorISt10shared_ptrI5PieceESaIS2_EE12_M_check_lenEmPKc
FN:1773,_ZNSt6vectorISt10shared_ptrI5PieceESaIS2_EE11_S_max_sizeERKS3_
FNDA:0,_ZNSt6vectorISt10shared_ptrI5PieceESaIS2_EE11_S_max_sizeERKS3_
DA:273,0
DA:274,0
DA:277,0
DA:278,0
DA:330,0
DA:332,0
DA:333,0
DA:334,0
DA:340,0
DA:343,0
DA:347,0
DA:350,0
DA:351,0
DA:352,0
DA:428,0
DA:433,0
DA:441,0
DA:446,0
DA:450,0
DA:453,0
DA:462,0
DA:466,0
DA:675,0
DA:677,0
DA:678,0
DA:680,0
DA:808,0
DA:809,0
DA:826,0
DA:827,0
DA:915,0
DA:916,0
DA:920,0
DA:921,0
DA:1200,0
DA:1201,0
DA:1753,0
DA:1755,0
DA:1756,0
DA:1758,0
DA:1759,0
DA:1773,0
DA:1778,0
DA:1780,0
DA:1781,0
end_of_record
SF:/usr/include/c++/9/bits/shared_ptr.h
FN:129,_ZNSt10shared_ptrI5PieceEC2ERKS1_
FNDA:0,_ZNSt10shared_ptrI5PieceEC2ERKS1_
FN:254,_ZNSt10shared_ptrI5PieceEC2EOS1_
FNDA:0,_ZNSt10shared_ptrI5PieceEC2EOS1_
FN:263,_ZNSt10shared_ptrI5PieceEC2I4KingvEEOS_IT_E
FNDA:0,_ZNSt10shared_ptrI5PieceEC2I4KingvEEOS_IT_E
FN:263,_ZNSt10shared_ptrI5PieceEC2I4PawnvEEOS_IT_E
FNDA:0,_ZNSt10shared_ptrI5PieceEC2I4PawnvEEOS_IT_E
FN:358,_ZNSt10shared_ptrI4PawnEC2ISaIS0_EJR8PositionRbbR5BoardEEESt20_Sp_alloc_shared_tagIT_EDpOT0_
FNDA:10,_ZNSt10shared_ptrI4PawnEC2ISaIS0_EJR8PositionRbbR5BoardEEESt20_Sp_alloc_shared_tagIT_EDpOT0_
FN:358,_ZNSt10shared_ptrI4KingEC2ISaIS0_EJR8PositionRbbR5BoardEEESt20_Sp_alloc_shared_tagIT_EDpOT0_
FNDA:8,_ZNSt10shared_ptrI4KingEC2ISaIS0_EJR8PositionRbbR5BoardEEESt20_Sp_alloc_shared_tagIT_EDpOT0_
FN:358,_ZNSt10shared_ptrI4PawnEC2ISaIS0_EJ8PositionRbbR5BoardEEESt20_Sp_alloc_shared_tagIT_EDpOT0_
FNDA:120,_ZNSt10shared_ptrI4PawnEC2ISaIS0_EJ8PositionRbbR5BoardEEESt20_Sp_alloc_shared_tagIT_EDpOT0_
FN:699,_ZSt15allocate_sharedI4PawnSaIS0_EJR8PositionRbbR5BoardEESt10shared_ptrIT_ERKT0_DpOT1_
FNDA:10,_ZSt15allocate_sharedI4PawnSaIS0_EJR8PositionRbbR5BoardEESt10shared_ptrIT_ERKT0_DpOT1_
FN:699,_ZSt15allocate_sharedI4KingSaIS0_EJR8PositionRbbR5BoardEESt10shared_ptrIT_ERKT0_DpOT1_
FNDA:8,_ZSt15allocate_sharedI4KingSaIS0_EJR8PositionRbbR5BoardEESt10shared_ptrIT_ERKT0_DpOT1_
FN:699,_ZSt15allocate_sharedI4PawnSaIS0_EJ8PositionRbbR5BoardEESt10shared_ptrIT_ERKT0_DpOT1_
FNDA:120,_ZSt15allocate_sharedI4PawnSaIS0_EJ8PositionRbbR5BoardEESt10shared_ptrIT_ERKT0_DpOT1_
FN:714,_ZSt11make_sharedI4PawnJR8PositionRbbR5BoardEESt10shared_ptrIT_EDpOT0_
FNDA:10,_ZSt11make_sharedI4PawnJR8PositionRbbR5BoardEESt10shared_ptrIT_EDpOT0_
FN:714,_ZSt11make_sharedI4KingJR8PositionRbbR5BoardEESt10shared_ptrIT_EDpOT0_
FNDA:8,_ZSt11make_sharedI4KingJR8PositionRbbR5BoardEESt10shared_ptrIT_EDpOT0_
FN:714,_ZSt11make_sharedI4PawnJ8PositionRbbR5BoardEESt10shared_ptrIT_EDpOT0_
FNDA:120,_ZSt11make_sharedI4PawnJ8PositionRbbR5BoardEESt10shared_ptrIT_EDpOT0_
DA:129,0
DA:254,0
DA:255,0
DA:263,0
DA:264,0
DA:263,0
DA:264,0
DA:358,10
DA:359,10
DA:360,10
DA:358,8
DA:359,8
DA:360,8
DA:358,120
DA:359,120
DA:360,120
DA:699,10
DA:702,10
DA:699,8
DA:702,8
DA:699,120
DA:702,120
DA:714,10
DA:718,10
DA:714,8
DA:718,8
DA:714,120
DA:718,120
end_of_record
SF:/usr/include/c++/9/bits/stl_construct.h
FN:74,_ZSt10_ConstructISt10shared_ptrI5PieceEJS2_EEvPT_DpOT0_
FNDA:0,_ZSt10_ConstructISt10shared_ptrI5PieceEJS2_EEvPT_DpOT0_
FN:97,_ZSt8_DestroyISt10shared_ptrI5PieceEEvPT_
FNDA:0,_ZSt8_DestroyISt10shared_ptrI5PieceEEvPT_
FN:105,_ZNSt12_Destroy_auxILb0EE9__destroyIPSt10shared_ptrI5PieceEEEvT_S6_
FNDA:0,_ZNSt12_Destroy_auxILb0EE9__destroyIPSt10shared_ptrI5PieceEEEvT_S6_
FN:127,_ZSt8_DestroyIPSt10shared_ptrI5PieceEEvT_S4_
FNDA:0,_ZSt8_DestroyIPSt10shared_ptrI5PieceEEvT_S4_
FN:203,_ZSt8_DestroyIPSt10shared_ptrI5PieceES2_EvT_S4_RSaIT0_E
FNDA:0,_ZSt8_DestroyIPSt10shared_ptrI5PieceES2_EvT_S4_RSaIT0_E
DA:74,0
DA:75,0
DA:97,0
DA:98,0
DA:105,0
DA:107,0
DA:108,0
DA:109,0
DA:127,0
DA:137,0
DA:138,0
DA:203,0
DA:206,0
DA:207,0
end_of_record
SF:/usr/include/c++/9/bits/move.h
FN:47,_ZSt11__addressofISaISt23_Sp_counted_ptr_inplaceI4KingSaIS1_ELN9__gnu_cxx12_Lock_policyE2EEEEPT_RS7_
FNDA:0,_ZSt11__addressofISaISt23_Sp_counted_ptr_inplaceI4KingSaIS1_ELN9__gnu_cxx12_Lock_policyE2EEEEPT_RS7_
FN:47,_ZSt11__addressofISaISt23_Sp_counted_ptr_inplaceI4PawnSaIS1_ELN9__gnu_cxx12_Lock_policyE2EEEEPT_RS7_
FNDA:0,_ZSt11__addressofISaISt23_Sp_counted_ptr_inplaceI4PawnSaIS1_ELN9__gnu_cxx12_Lock_policyE2EEEEPT_RS7_
FN:47,_ZSt11__addressofISt10shared_ptrI5PieceEEPT_RS3_
FNDA:0,_ZSt11__addressofISt10shared_ptrI5PieceEEPT_RS3_
FN:74,_ZSt7forwardISt10shared_ptrI5PieceEEOT_RNSt16remove_referenceIS3_E4typeE
FNDA:0,_ZSt7forwardISt10shared_ptrI5PieceEEOT_RNSt16remove_referenceIS3_E4typeE
FN:74,_ZSt7forwardIR8PositionEOT_RNSt16remove_referenceIS2_E4typeE
FNDA:0,_ZSt7forwardIR8PositionEOT_RNSt16remove_referenceIS2_E4typeE
FN:74,_ZSt7forwardIR5BoardEOT_RNSt16remove_referenceIS2_E4typeE
FNDA:0,_ZSt7forwardIR5BoardEOT_RNSt16remove_referenceIS2_E4typeE
FN:74,_ZSt7forwardIbEOT_RNSt16remove_referenceIS0_E4typeE
FNDA:2000,_ZSt7forwardIbEOT_RNSt16remove_referenceIS0_E4typeE
FN:74,_ZSt7forwardIRbEOT_RNSt16remove_referenceIS1_E4typeE
FNDA:0,_ZSt7forwardIRbEOT_RNSt16remove_referenceIS1_E4typeE
FN:74,_ZSt7forwardI8PositionEOT_RNSt16remove_referenceIS1_E4typeE
FNDA:1970,_ZSt7forwardI8PositionEOT_RNSt16remove_referenceIS1_E4typeE
FN:99,_ZSt4moveIRSt10shared_ptrI4KingEEONSt16remove_referenceIT_E4typeEOS5_
FNDA:0,_ZSt4moveIRSt10shared_ptrI4KingEEONSt16remove_referenceIT_E4typeEOS5_
FN:99,_ZSt4moveIRSt10shared_ptrI5PieceEEONSt16remove_referenceIT_E4typeEOS5_
FNDA:0,_ZSt4moveIRSt10shared_ptrI5PieceEEONSt16remove_referenceIT_E4typeEOS5_
FN:99,_ZSt4moveIRSt10shared_ptrI4PawnEEONSt16remove_referenceIT_E4typeEOS5_
FNDA:0,_ZSt4moveIRSt10shared_ptrI4PawnEEONSt16remove_referenceIT_E4typeEOS5_
DA:47,0
DA:48,0
DA:47,0
DA:48,0
DA:47,0
DA:48,0
DA:74,0
DA:75,0
DA:74,0
DA:75,0
DA:74,0
DA:75,0
DA:74,2000
DA:75,2000
DA:74,0
DA:75,0
DA:74,1970
DA:75,1970
DA:99,0
DA:100,0
DA:99,0
DA:100,0
DA:99,0
DA:100,0
end_of_record
SF:/usr/include/c++/9/bits/ptr_traits.h
FN:155,_ZSt12__to_addressISt23_Sp_counted_ptr_inplaceI4KingSaIS1_ELN9__gnu_cxx12_Lock_policyE2EEEPT_S7_
FNDA:0,_ZSt12__to_addressISt23_Sp_counted_ptr_inplaceI4KingSaIS1_ELN9__gnu_cxx12_Lock_policyE2EEEPT_S7_
FN:155,_ZSt12__to_addressISt23_Sp_counted_ptr_inplaceI4PawnSaIS1_ELN9__gnu_cxx12_Lock_policyE2EEEPT_S7_
FNDA:0,_ZSt12__to_addressISt23_Sp_counted_ptr_inplaceI4PawnSaIS1_ELN9__gnu_cxx12_Lock_policyE2EEEPT_S7_
DA:155,0
DA:158,0
DA:155,0
DA:158,0
end_of_record
TN:
SF:/usr/include/c++/9/bits/stl_vector.h
FN:94,_ZNSt12_Vector_baseI8PositionSaIS0_EE17_Vector_impl_dataC2Ev
FNDA:0,_ZNSt12_Vector_baseI8PositionSaIS0_EE17_Vector_impl_dataC2Ev
FN:94,_ZNSt12_Vector_baseI4MoveSaIS0_EE17_Vector_impl_dataC2Ev
FNDA:0,_ZNSt12_Vector_baseI4MoveSaIS0_EE17_Vector_impl_dataC2Ev
FN:128,_ZNSt12_Vector_baseI8PositionSaIS0_EE12_Vector_implC2Ev
FNDA:23778,_ZNSt12_Vector_baseI8PositionSaIS0_EE12_Vector_implC2Ev
FN:128,_ZNSt12_Vector_baseI4MoveSaIS0_EE12_Vector_implC2Ev
FNDA:0,_ZNSt12_Vector_baseI4MoveSaIS0_EE12_Vector_implC2Ev
FN:133,_ZNSt12_Vector_baseI4MoveSaIS0_EE12_Vector_implC2ERKS1_
FNDA:0,_ZNSt12_Vector_baseI4MoveSaIS0_EE12_Vector_implC2ERKS1_
FN:133,_ZNSt12_Vector_baseI8PositionSaIS0_EE12_Vector_implC2ERKS1_
FNDA:0,_ZNSt12_Vector_baseI8PositionSaIS0_EE12_Vector_implC2ERKS1_
FN:273,_ZNSt12_Vector_baseI8PositionSaIS0_EE19_M_get_Tp_allocatorEv
FNDA:0,_ZNSt12_Vector_baseI8PositionSaIS0_EE19_M_get_Tp_allocatorEv
FN:273,_ZNSt12_Vector_baseISt6vectorI4MoveSaIS1_EESaIS3_EE19_M_get_Tp_allocatorEv
FNDA:0,_ZNSt12_Vector_baseISt6vectorI4MoveSaIS1_EESaIS3_EE19_M_get_Tp_allocatorEv
FN:273,_ZNSt12_Vector_baseISt10shared_ptrI5PieceESaIS2_EE19_M_get_Tp_allocatorEv
FNDA:0,_ZNSt12_Vector_baseISt10shared_ptrI5PieceESaIS2_EE19_M_get_Tp_allocatorEv
FN:273,_ZNSt12_Vector_baseI4MoveSaIS0_EE19_M_get_Tp_allocatorEv
FNDA:0,_ZNSt12_Vector_baseI4MoveSaIS0_EE19_M_get_Tp_allocatorEv
FN:277,_ZNKSt12_Vector_baseI8PositionSaIS0_EE19_M_get_Tp_allocatorEv
FNDA:0,_ZNKSt12_Vector_baseI8PositionSaIS0_EE19_M_get_Tp_allocatorEv
FN:277,_ZNKSt12_Vector_baseI4MoveSaIS0_EE19_M_get_Tp_allocatorEv
FNDA:0,_ZNKSt12_Vector_baseI4MoveSaIS0_EE19_M_get_Tp_allocatorEv
FN:285,_ZNSt12_Vector_baseI4MoveSaIS0_EEC2Ev
FNDA:0,_ZNSt12_Vector_baseI4MoveSaIS0_EEC2Ev
FN:285,_ZNSt12_Vector_baseI8PositionSaIS0_EEC2Ev
FNDA:23778,_ZNSt12_Vector_baseI8PositionSaIS0_EEC2Ev
FN:300,_ZNSt12_Vector_baseI4MoveSaIS0_EEC2EmRKS1_
FNDA:0,_ZNSt12_Vector_baseI4MoveSaIS0_EEC2EmRKS1_
FN:300,_ZNSt12_Vector_baseI8PositionSaIS0_EEC2EmRKS1_
FNDA:0,_ZNSt12_Vector_baseI8PositionSaIS0_EEC2EmRKS1_
FN:330,_ZNSt12_Vector_baseI4MoveSaIS0_EED2Ev
FNDA:0,_ZNSt12_Vector_baseI4MoveSaIS0_EED2Ev
FN:330,_ZNSt12_Vector_baseISt10shared_ptrI5PieceESaIS2_EED2Ev
FNDA:0,_ZNSt12_Vector_baseISt10shared_ptrI5PieceESaIS2_EED2Ev
FN:330,_ZNSt12_Vector_baseISt6vectorI4MoveSaIS1_EESaIS3_EED2Ev
FNDA:0,_ZNSt12_Vector_baseISt6vectorI4MoveSaIS1_EESaIS3_EED2Ev
FN:330,_ZNSt12_Vector_baseI8PositionSaIS0_EED2Ev
FNDA:0,_ZNSt12_Vector_baseI8PositionSaIS0_EED2Ev
FN:340,_ZNSt12_Vector_baseI8PositionSaIS0_EE11_M_allocateEm
FNDA:0,_ZNSt12_Vector_baseI8PositionSaIS0_EE11_M_allocateEm
FN:340,_ZNSt12_Vector_baseI4MoveSaIS0_EE11_M_allocateEm
FNDA:0,_ZNSt12_Vector_baseI4MoveSaIS0_EE11_M_allocateEm
FN:347,_ZNSt12_Vector_baseI8PositionSaIS0_EE13_M_deallocateEPS0_m
FNDA:0,_ZNSt12_Vector_baseI8PositionSaIS0_EE13_M_deallocateEPS0_m
FN:347,_ZNSt12_Vector_baseI4MoveSaIS0_EE13_M_deallocateEPS0_m
FNDA:0,_ZNSt12_Vector_baseI4MoveSaIS0_EE13_M_deallocateEPS0_m
FN:347,_ZNSt12_Vector_baseISt10shared_ptrI5PieceESaIS2_EE13_M_deallocateEPS2_m
FNDA:0,_ZNSt12_Vector_baseISt10shared_ptrI5PieceESaIS2_EE13_M_deallocateEPS2_m
FN:347,_ZNSt12_Vector_baseISt6vectorI4MoveSaIS1_EESaIS3_EE13_M_deallocateEPS3_m
FNDA:0,_ZNSt12_Vector_baseISt6vectorI4MoveSaIS1_EESaIS3_EE13_M_deallocateEPS3_m
FN:356,_ZNSt12_Vector_baseI4MoveSaIS0_EE17_M_create_storageEm
FNDA:0,_ZNSt12_Vector_baseI4MoveSaIS0_EE17_M_create_storageEm
FN:356,_ZNSt12_Vector_baseI8PositionSaIS0_EE17_M_create_storageEm
FNDA:0,_ZNSt12_Vector_baseI8PositionSaIS0_EE17_M_create_storageEm
FN:484,_ZNSt6vectorI8PositionSaIS0_EEC2Ev
FNDA:23778,_ZNSt6vectorI8PositionSaIS0_EEC2Ev
FN:484,_ZNSt6vectorI4MoveSaIS0_EEC2Ev
FNDA:0,_ZNSt6vectorI4MoveSaIS0_EEC2Ev
FN:550,_ZNSt6vectorI8PositionSaIS0_EEC2ERKS2_
FNDA:0,_ZNSt6vectorI8PositionSaIS0_EEC2ERKS2_
FN:550,_ZNSt6vectorI4MoveSaIS0_EEC2ERKS2_
FNDA:0,_ZNSt6vectorI4MoveSaIS0_EEC2ERKS2_
FN:675,_ZNSt6vectorIS_I4MoveSaIS0_EESaIS2_EED2Ev
FNDA:0,_ZNSt6vectorIS_I4MoveSaIS0_EESaIS2_EED2Ev
FN:675,_ZNSt6vectorI8PositionSaIS0_EED2Ev
FNDA:0,_ZNSt6vectorI8PositionSaIS0_EED2Ev
FN:675,_ZNSt6vectorI4MoveSaIS0_EED2Ev
FNDA:0,_ZNSt6vectorI4MoveSaIS0_EED2Ev
FN:675,_ZNSt6vectorISt10shared_ptrI5PieceESaIS2_EED2Ev
FNDA:0,_ZNSt6vectorISt10shared_ptrI5PieceESaIS2_EED2Ev
FN:808,_ZNSt6vectorI4MoveSaIS0_EE5beginEv
FNDA:6427,_ZNSt6vectorI4MoveSaIS0_EE5beginEv
FN:808,_ZNSt6vectorI8PositionSaIS0_EE5beginEv
FNDA:5328,_ZNSt6vectorI8PositionSaIS0_EE5beginEv
FN:817,_ZNKSt6vectorISt10shared_ptrI5PieceESaIS2_EE5beginEv
FNDA:0,_ZNKSt6vectorISt10shared_ptrI5PieceESaIS2_EE5beginEv
FN:817,_ZNKSt6vectorI4MoveSaIS0_EE5beginEv
FNDA:0,_ZNKSt6vectorI4MoveSaIS0_EE5beginEv
FN:817,_ZNKSt6vectorIS_I4MoveSaIS0_EESaIS2_EE5beginEv
FNDA:0,_ZNKSt6vectorIS_I4MoveSaIS0_EESaIS2_EE5beginEv
FN:817,_ZNKSt6vectorI8PositionSaIS0_EE5beginEv
FNDA:0,_ZNKSt6vectorI8PositionSaIS0_EE5beginEv
FN:826,_ZNSt6vectorI8PositionSaIS0_EE3endEv
FNDA:5328,_ZNSt6vectorI8PositionSaIS0_EE3endEv
FN:826,_ZNSt6vectorI4MoveSaIS0_EE3endEv
FNDA:6427,_ZNSt6vectorI4MoveSaIS0_EE3endEv
FN:835,_ZNKSt6vectorISt10shared_ptrI5PieceESaIS2_EE3endEv
FNDA:0,_ZNKSt6vectorISt10shared_ptrI5PieceESaIS2_EE3endEv
FN:835,_ZNKSt6vectorIS_I4MoveSaIS0_EESaIS2_EE3endEv
FNDA:0,_ZNKSt6vectorIS_I4MoveSaIS0_EESaIS2_EE3endEv
FN:835,_ZNKSt6vectorI8PositionSaIS0_EE3endEv
FNDA:0,_ZNKSt6vectorI8PositionSaIS0_EE3endEv
FN:835,_ZNKSt6vectorI4MoveSaIS0_EE3endEv
FNDA:0,_ZNKSt6vectorI4MoveSaIS0_EE3endEv
FN:915,_ZNKSt6vectorI4MoveSaIS0_EE4sizeEv
FNDA:0,_ZNKSt6vectorI4MoveSaIS0_EE4sizeEv
FN:915,_ZNKSt6vectorI8PositionSaIS0_EE4sizeEv
FNDA:0,_ZNKSt6vectorI8PositionSaIS0_EE4sizeEv
FN:995,_ZNKSt6vectorI8PositionSaIS0_EE8capacityEv
FNDA:1677,_ZNKSt6vectorI8PositionSaIS0_EE8capacityEv
FN:995,_ZNKSt6vectorI4MoveSaIS0_EE8capacityEv
FNDA:832,_ZNKSt6vectorI4MoveSaIS0_EE8capacityEv
FN:1004,_ZNKSt6vectorI8PositionSaIS0_EE5emptyEv
FNDA:0,_ZNKSt6vectorI8PositionSaIS0_EE5emptyEv
FN:1004,_ZNKSt6vectorISt10shared_ptrI5PieceESaIS2_EE5emptyEv
FNDA:0,_ZNKSt6vectorISt10shared_ptrI5PieceESaIS2_EE5emptyEv
FN:1004,_ZNKSt6vectorIS_I4MoveSaIS0_EESaIS2_EE5emptyEv
FNDA:0,_ZNKSt6vectorIS_I4MoveSaIS0_EESaIS2_EE5emptyEv
FN:1495,_ZNSt6vectorI8PositionSaIS0_EE5clearEv
FNDA:0,_ZNSt6vectorI8PositionSaIS0_EE5clearEv
FN:1495,_ZNSt6vectorI4MoveSaIS0_EE5clearEv
FNDA:0,_ZNSt6vectorI4MoveSaIS0_EE5clearEv
FN:1505,_ZNSt6vectorI4MoveSaIS0_EE20_M_allocate_and_copyIN9__gnu_cxx17__normal_iteratorIPKS0_S2_EEEEPS0_mT_SA_
FNDA:4,_ZNSt6vectorI4MoveSaIS0_EE20_M_allocate_and_copyIN9__gnu_cxx17__normal_iteratorIPKS0_S2_EEEEPS0_mT_SA_
FN:1505,_ZNSt6vectorI8PositionSaIS0_EE20_M_allocate_and_copyIN9__gnu_cxx17__normal_iteratorIPKS0_S2_EEEEPS0_mT_SA_
FNDA:248,_ZNSt6vectorI8PositionSaIS0_EE20_M_allocate_and_copyIN9__gnu_cxx17__normal_iteratorIPKS0_S2_EEEEPS0_mT_SA_
FN:1789,_ZNSt6vectorI8PositionSaIS0_EE15_M_erase_at_endEPS0_
FNDA:0,_ZNSt6vectorI8PositionSaIS0_EE15_M_erase_at_endEPS0_
FN:1789,_ZNSt6vectorI4MoveSaIS0_EE15_M_erase_at_endEPS0_
FNDA:0,_ZNSt6vectorI4MoveSaIS0_EE15_M_erase_at_endEPS0_
DA:94,0
DA:95,0
DA:96,0
DA:94,0
DA:95,0
DA:96,0
DA:128,0
DA:130,0
DA:131,0
DA:128,23778
DA:130,23778
DA:131,23778
DA:133,0
DA:134,0
DA:135,0
DA:133,0
DA:134,0
DA:135,0
DA:273,0
DA:274,0
DA:273,0
DA:274,0
DA:273,0
DA:274,0
DA:273,0
DA:274,0
DA:277,0
DA:278,0
DA:277,0
DA:278,0
DA:285,0
DA:285,23778
DA:300,0
DA:301,0
DA:302,0
DA:300,0
DA:301,0
DA:302,0
DA:330,0
DA:332,0
DA:333,0
DA:334,0
DA:330,0
DA:332,0
DA:333,0
DA:334,0
DA:330,0
DA:332,0
DA:333,0
DA:334,0
DA:330,0
DA:332,0
DA:333,0
DA:334,0
DA:340,0
DA:343,0
DA:340,0
DA:343,0
DA:347,0
DA:350,0
DA:351,0
DA:352,0
DA:347,0
DA:350,0
DA:351,0
DA:352,0
DA:347,0
DA:350,0
DA:351,0
DA:352,0
DA:347,0
DA:350,0
DA:351,0
DA:352,0
DA:356,0
DA:358,0
DA:359,0
DA:360,0
DA:361,0
DA:356,0
DA:358,0
DA:359,0
DA:360,0
DA:361,0
DA:484,0
DA:484,23778
DA:550,0
DA:552,0
DA:554,0
DA:555,0
DA:557,0
DA:558,0
DA:550,0
DA:552,0
DA:554,0
DA:555,0
DA:557,0
DA:558,0
DA:675,0
DA:677,0
DA:678,0
DA:680,0
DA:675,0
DA:677,0
DA:678,0
DA:680,0
DA:675,0
DA:677,0
DA:678,0
DA:680,0
DA:675,0
DA:677,0
DA:678,0
DA:680,0
DA:808,6427
DA:809,6427
DA:808,5328
DA:809,5328
DA:817,0
DA:818,0
DA:817,0
DA:818,0
DA:817,0
DA:818,0
DA:817,0
DA:818,0
DA:826,6427
DA:827,6427
DA:826,5328
DA:827,5328
DA:835,0
DA:836,0
DA:835,0
DA:836,0
DA:835,0
DA:836,0
DA:835,0
DA:836,0
DA:915,0
DA:916,0
DA:915,0
DA:916,0
DA:995,832
DA:996,832
DA:997,832
DA:995,1677
DA:996,1677
DA:997,1677
DA:1004,0
DA:1005,0
DA:1004,0
DA:1005,0
DA:1004,0
DA:1005,0
DA:1495,0
DA:1496,0
DA:1495,0
DA:1496,0
DA:1505,4
DA:1508,4
DA:1511,4
DA:1512,4
DA:1513,4
DA:1515,0
DA:1517,0
DA:1518,0
DA:1505,248
DA:1508,248
DA:1511,248
DA:1512,248
DA:1513,248
DA:1515,0
DA:1517,0
DA:1518,0
DA:1789,0
DA:1791,0
DA:1793,0
DA:1794,0
DA:1795,0
DA:1798,0
DA:1789,0
DA:1791,0
DA:1793,0
DA:1794,0
DA:1795,0
DA:1798,0
end_of_record
SF:/usr/include/c++/9/bits/allocator.h
FN:138,_ZNSaI4MoveEC2Ev
FNDA:0,_ZNSaI4MoveEC2Ev
FN:138,_ZNSaI8PositionEC2Ev
FNDA:23778,_ZNSaI8PositionEC2Ev
FN:141,_ZNSaISt13_Rb_tree_nodeISt4pairIK9PieceNamecEEEC2ERKS5_
FNDA:0,_ZNSaISt13_Rb_tree_nodeISt4pairIK9PieceNamecEEEC2ERKS5_
FN:141,_ZNSaISt13_Rb_tree_nodeISt4pairIKNSt7__cxx1112basic_stringIcSt11char_traitsIcESaIcEEE8PositionEEEC2ERKSB_
FNDA:0,_ZNSaISt13_Rb_tree_nodeISt4pairIKNSt7__cxx1112basic_stringIcSt11char_traitsIcESaIcEEE8PositionEEEC2ERKSB_
FN:141,_ZNSaI4MoveEC2ERKS0_
FNDA:0,_ZNSaI4MoveEC2ERKS0_
FN:141,_ZNSaI8PositionEC2ERKS0_
FNDA:0,_ZNSaI8PositionEC2ERKS0_
FN:153,_ZNSaISt6vectorI4MoveSaIS0_EEED2Ev
FNDA:0,_ZNSaISt6vectorI4MoveSaIS0_EEED2Ev
FN:153,_ZNSaISt13_Rb_tree_nodeISt4pairIKNSt7__cxx1112basic_stringIcSt11char_traitsIcESaIcEEE8PositionEEED2Ev
FNDA:0,_ZNSaISt13_Rb_tree_nodeISt4pairIKNSt7__cxx1112basic_stringIcSt11char_traitsIcESaIcEEE8PositionEEED2Ev
FN:153,_ZNSaISt13_Rb_tree_nodeISt4pairIK9PieceNamecEEED2Ev
FNDA:0,_ZNSaISt13_Rb_tree_nodeISt4pairIK9PieceNamecEEED2Ev
FN:153,_ZNSaISt10shared_ptrI5PieceEED2Ev
FNDA:0,_ZNSaISt10shared_ptrI5PieceEED2Ev
FN:153,_ZNSaI4MoveED2Ev
FNDA:0,_ZNSaI4MoveED2Ev
FN:153,_ZNSaI8PositionED2Ev
FNDA:0,_ZNSaI8PositionED2Ev
FN:160,_ZStneRKSaI4MoveES2_
FNDA:0,_ZStneRKSaI4MoveES2_
FN:160,_ZStneRKSaI8PositionES2_
FNDA:0,_ZStneRKSaI8PositionES2_
DA:138,0
DA:138,23778
DA:141,0
DA:142,0
DA:141,0
DA:142,0
DA:141,0
DA:142,0
DA:141,0
DA:142,0
DA:153,0
DA:153,0
DA:153,0
DA:153,0
DA:153,0
DA:153,0
DA:160,0
DA:161,0
DA:160,0
DA:161,0
end_of_record
SF:/home/napiad/studia/eiti/mgr/sem1/zpr/checkers-webapp/checkers/src/AIPlayer.h
end_of_record
SF:/home/napiad/studia/eiti/mgr/sem1/zpr/checkers-webapp/checkers/src/Checkers.cc
FN:11,_ZN8Checkers11getInstanceEv
FNDA:9,_ZN8Checkers11getInstanceEv
FN:16,_ZN8CheckersC2Ev
FNDA:1,_ZN8CheckersC2Ev
FN:21,_ZN8Checkers10initializeENSt7__cxx1112basic_stringIcSt11char_traitsIcESaIcEEEb
FNDA:3,_ZN8Checkers10initializeENSt7__cxx1112basic_stringIcSt11char_traitsIcESaIcEEEb
FN:47,_ZN8Checkers13fenInitializeENSt7__cxx1112basic_stringIcSt11char_traitsIcESaIcEEES5_bb
FNDA:10,_ZN8Checkers13fenInitializeENSt7__cxx1112basic_stringIcSt11char_traitsIcESaIcEEES5_bb
FN:73,_ZN8Checkers11updateStateERK4Moveb
FNDA:42,_ZN8Checkers11updateStateERK4Moveb
FN:95,_ZNK8Checkers12getGameStateEv
FNDA:5,_ZNK8Checkers12getGameStateEv
FN:99,_ZNK8Checkers8getBoardEv
FNDA:0,_ZNK8Checkers8getBoardEv
FN:106,_ZN8Checkers15processUserMoveENSt7__cxx1112basic_stringIcSt11char_traitsIcESaIcEEES5_
FNDA:24,_ZN8Checkers15processUserMoveENSt7__cxx1112basic_stringIcSt11char_traitsIcESaIcEEES5_
FN:134,_ZN8Checkers16makeComputerMoveEv
FNDA:21,_ZN8Checkers16makeComputerMoveEv
FN:147,_ZN8Checkers11updateScoreEv
FNDA:42,_ZN8Checkers11updateScoreEv
DA:11,9
DA:12,9
DA:13,9
DA:16,1
DA:21,3
DA:22,3
DA:23,3
DA:24,3
DA:26,3
DA:27,3
DA:28,3
DA:30,3
DA:31,3
DA:32,3
DA:33,3
DA:34,3
DA:35,3
DA:36,3
DA:37,3
DA:38,3
DA:39,3
DA:40,3
DA:41,3
DA:42,3
DA:47,10
DA:48,10
DA:50,10
DA:51,10
DA:53,10
DA:54,10
DA:56,10
DA:57,10
DA:59,10
DA:60,10
DA:61,10
DA:62,10
DA:63,10
DA:64,10
DA:65,10
DA:66,10
DA:67,10
DA:68,10
DA:69,10
DA:70,10
DA:73,42
DA:74,42
DA:75,42
DA:76,42
DA:77,42
DA:78,42
DA:79,42
DA:80,42
DA:82,42
DA:83,33
DA:86,9
DA:89,42
DA:90,40
DA:92,42
DA:93,42
DA:95,5
DA:96,5
DA:99,0
DA:100,0
DA:106,24
DA:108,24
DA:109,0
DA:111,24
DA:112,24
DA:113,48
DA:114,24
DA:115,22
DA:116,2
DA:117,0
DA:120,22
DA:121,22
DA:122,22
DA:124,24
DA:126,0
DA:127,0
DA:134,21
DA:135,21
DA:136,1
DA:139,40
DA:140,20
DA:141,20
DA:147,42
DA:149,42
DA:150,42
DA:151,1
DA:153,41
DA:154,4
DA:156,37
DA:157,2
DA:159,35
DA:160,0
DA:163,35
DA:164,0
DA:167,35
DA:169,42
end_of_record
SF:/usr/include/c++/9/bits/stl_tree.h
FN:112,_ZNSt18_Rb_tree_node_base10_S_minimumEPS_
FNDA:0,_ZNSt18_Rb_tree_node_base10_S_minimumEPS_
FN:126,_ZNSt18_Rb_tree_node_base10_S_maximumEPS_
FNDA:0,_ZNSt18_Rb_tree_node_base10_S_maximumEPS_
FN:152,_ZNSt20_Rb_tree_key_compareISt4lessINSt7__cxx1112basic_stringIcSt11char_traitsIcESaIcEEEEEC2ERKS7_
FNDA:0,_ZNSt20_Rb_tree_key_compareISt4lessINSt7__cxx1112basic_stringIcSt11char_traitsIcESaIcEEEEEC2ERKS7_
FN:152,_ZNSt20_Rb_tree_key_compareISt4lessI9PieceNameEEC2ERKS2_
FNDA:0,_ZNSt20_Rb_tree_key_compareISt4lessI9PieceNameEEC2ERKS2_
FN:173,_ZNSt15_Rb_tree_headerC2Ev
FNDA:0,_ZNSt15_Rb_tree_headerC2Ev
FN:206,_ZNSt15_Rb_tree_header8_M_resetEv
FNDA:0,_ZNSt15_Rb_tree_header8_M_resetEv
FN:234,_ZNSt13_Rb_tree_nodeISt4pairIKNSt7__cxx1112basic_stringIcSt11char_traitsIcESaIcEEE8PositionEE9_M_valptrEv
FNDA:0,_ZNSt13_Rb_tree_nodeISt4pairIKNSt7__cxx1112basic_stringIcSt11char_traitsIcESaIcEEE8PositionEE9_M_valptrEv
FN:234,_ZNSt13_Rb_tree_nodeISt4pairIK9PieceNamecEE9_M_valptrEv
FNDA:0,_ZNSt13_Rb_tree_nodeISt4pairIK9PieceNamecEE9_M_valptrEv
FN:238,_ZNKSt13_Rb_tree_nodeISt4pairIK9PieceNamecEE9_M_valptrEv
FNDA:0,_ZNKSt13_Rb_tree_nodeISt4pairIK9PieceNamecEE9_M_valptrEv
FN:238,_ZNKSt13_Rb_tree_nodeISt4pairIKNSt7__cxx1112basic_stringIcSt11char_traitsIcESaIcEEE8PositionEE9_M_valptrEv
FNDA:0,_ZNKSt13_Rb_tree_nodeISt4pairIKNSt7__cxx1112basic_stringIcSt11char_traitsIcESaIcEEE8PositionEE9_M_valptrEv
FN:538,_ZNSt8_Rb_treeI9PieceNameSt4pairIKS0_cESt10_Select1stIS3_ESt4lessIS0_ESaIS3_EE11_Alloc_nodeC2ERS9_
FNDA:0,_ZNSt8_Rb_treeI9PieceNameSt4pairIKS0_cESt10_Select1stIS3_ESt4lessIS0_ESaIS3_EE11_Alloc_nodeC2ERS9_
FN:538,_ZNSt8_Rb_treeINSt7__cxx1112basic_stringIcSt11char_traitsIcESaIcEEESt4pairIKS5_8PositionESt10_Select1stIS9_ESt4lessIS5_ESaIS9_EE11_Alloc_nodeC2ERSF_
FNDA:0,_ZNSt8_Rb_treeINSt7__cxx1112basic_stringIcSt11char_traitsIcESaIcEEESt4pairIKS5_8PositionESt10_Select1stIS9_ESt4lessIS5_ESaIS9_EE11_Alloc_nodeC2ERSF_
FN:546,_ZNKSt8_Rb_treeI9PieceNameSt4pairIKS0_cESt10_Select1stIS3_ESt4lessIS0_ESaIS3_EE11_Alloc_nodeclIRKS3_EEPSt13_Rb_tree_nodeIS3_EOT_
FNDA:0,_ZNKSt8_Rb_treeI9PieceNameSt4pairIKS0_cESt10_Select1stIS3_ESt4lessIS0_ESaIS3_EE11_Alloc_nodeclIRKS3_EEPSt13_Rb_tree_nodeIS3_EOT_
FN:546,_ZNKSt8_Rb_treeINSt7__cxx1112basic_stringIcSt11char_traitsIcESaIcEEESt4pairIKS5_8PositionESt10_Select1stIS9_ESt4lessIS5_ESaIS9_EE11_Alloc_nodeclIRKS9_EEPSt13_Rb_tree_nodeIS9_EOT_
FNDA:0,_ZNKSt8_Rb_treeINSt7__cxx1112basic_stringIcSt11char_traitsIcESaIcEEESt4pairIKS5_8PositionESt10_Select1stIS9_ESt4lessIS5_ESaIS9_EE11_Alloc_nodeclIRKS9_EEPSt13_Rb_tree_nodeIS9_EOT_
FN:566,_ZNSt8_Rb_treeI9PieceNameSt4pairIKS0_cESt10_Select1stIS3_ESt4lessIS0_ESaIS3_EE21_M_get_Node_allocatorEv
FNDA:0,_ZNSt8_Rb_treeI9PieceNameSt4pairIKS0_cESt10_Select1stIS3_ESt4lessIS0_ESaIS3_EE21_M_get_Node_allocatorEv
FN:566,_ZNSt8_Rb_treeINSt7__cxx1112basic_stringIcSt11char_traitsIcESaIcEEESt4pairIKS5_8PositionESt10_Select1stIS9_ESt4lessIS5_ESaIS9_EE21_M_get_Node_allocatorEv
FNDA:0,_ZNSt8_Rb_treeINSt7__cxx1112basic_stringIcSt11char_traitsIcESaIcEEESt4pairIKS5_8PositionESt10_Select1stIS9_ESt4lessIS5_ESaIS9_EE21_M_get_Node_allocatorEv
FN:579,_ZNSt8_Rb_treeINSt7__cxx1112basic_stringIcSt11char_traitsIcESaIcEEESt4pairIKS5_8PositionESt10_Select1stIS9_ESt4lessIS5_ESaIS9_EE11_M_get_nodeEv
FNDA:0,_ZNSt8_Rb_treeINSt7__cxx1112basic_stringIcSt11char_traitsIcESaIcEEESt4pairIKS5_8PositionESt10_Select1stIS9_ESt4lessIS5_ESaIS9_EE11_M_get_nodeEv
FN:579,_ZNSt8_Rb_treeI9PieceNameSt4pairIKS0_cESt10_Select1stIS3_ESt4lessIS0_ESaIS3_EE11_M_get_nodeEv
FNDA:0,_ZNSt8_Rb_treeI9PieceNameSt4pairIKS0_cESt10_Select1stIS3_ESt4lessIS0_ESaIS3_EE11_M_get_nodeEv
FN:583,_ZNSt8_Rb_treeI9PieceNameSt4pairIKS0_cESt10_Select1stIS3_ESt4lessIS0_ESaIS3_EE11_M_put_nodeEPSt13_Rb_tree_nodeIS3_E
FNDA:0,_ZNSt8_Rb_treeI9PieceNameSt4pairIKS0_cESt10_Select1stIS3_ESt4lessIS0_ESaIS3_EE11_M_put_nodeEPSt13_Rb_tree_nodeIS3_E
FN:583,_ZNSt8_Rb_treeINSt7__cxx1112basic_stringIcSt11char_traitsIcESaIcEEESt4pairIKS5_8PositionESt10_Select1stIS9_ESt4lessIS5_ESaIS9_EE11_M_put_nodeEPSt13_Rb_tree_nodeIS9_E
FNDA:0,_ZNSt8_Rb_treeINSt7__cxx1112basic_stringIcSt11char_traitsIcESaIcEEESt4pairIKS5_8PositionESt10_Select1stIS9_ESt4lessIS5_ESaIS9_EE11_M_put_nodeEPSt13_Rb_tree_nodeIS9_E
FN:609,_ZNSt8_Rb_treeINSt7__cxx1112basic_stringIcSt11char_traitsIcESaIcEEESt4pairIKS5_8PositionESt10_Select1stIS9_ESt4lessIS5_ESaIS9_EE17_M_construct_nodeIJRKS9_EEEvPSt13_Rb_tree_nodeIS9_EDpOT_
FNDA:0,_ZNSt8_Rb_treeINSt7__cxx1112basic_stringIcSt11char_traitsIcESaIcEEESt4pairIKS5_8PositionESt10_Select1stIS9_ESt4lessIS5_ESaIS9_EE17_M_construct_nodeIJRKS9_EEEvPSt13_Rb_tree_nodeIS9_EDpOT_
FN:609,_ZNSt8_Rb_treeI9PieceNameSt4pairIKS0_cESt10_Select1stIS3_ESt4lessIS0_ESaIS3_EE17_M_construct_nodeIJRKS3_EEEvPSt13_Rb_tree_nodeIS3_EDpOT_
FNDA:0,_ZNSt8_Rb_treeI9PieceNameSt4pairIKS0_cESt10_Select1stIS3_ESt4lessIS0_ESaIS3_EE17_M_construct_nodeIJRKS3_EEEvPSt13_Rb_tree_nodeIS3_EDpOT_
FN:628,_ZNSt8_Rb_treeINSt7__cxx1112basic_stringIcSt11char_traitsIcESaIcEEESt4pairIKS5_8PositionESt10_Select1stIS9_ESt4lessIS5_ESaIS9_EE14_M_create_nodeIJRKS9_EEEPSt13_Rb_tree_nodeIS9_EDpOT_
FNDA:0,_ZNSt8_Rb_treeINSt7__cxx1112basic_stringIcSt11char_traitsIcESaIcEEESt4pairIKS5_8PositionESt10_Select1stIS9_ESt4lessIS5_ESaIS9_EE14_M_create_nodeIJRKS9_EEEPSt13_Rb_tree_nodeIS9_EDpOT_
FN:628,_ZNSt8_Rb_treeI9PieceNameSt4pairIKS0_cESt10_Select1stIS3_ESt4lessIS0_ESaIS3_EE14_M_create_nodeIJRKS3_EEEPSt13_Rb_tree_nodeIS3_EDpOT_
FNDA:0,_ZNSt8_Rb_treeI9PieceNameSt4pairIKS0_cESt10_Select1stIS3_ESt4lessIS0_ESaIS3_EE14_M_create_nodeIJRKS3_EEEPSt13_Rb_tree_nodeIS3_EDpOT_
FN:637,_ZNSt8_Rb_treeI9PieceNameSt4pairIKS0_cESt10_Select1stIS3_ESt4lessIS0_ESaIS3_EE15_M_destroy_nodeEPSt13_Rb_tree_nodeIS3_E
FNDA:0,_ZNSt8_Rb_treeI9PieceNameSt4pairIKS0_cESt10_Select1stIS3_ESt4lessIS0_ESaIS3_EE15_M_destroy_nodeEPSt13_Rb_tree_nodeIS3_E
FN:637,_ZNSt8_Rb_treeINSt7__cxx1112basic_stringIcSt11char_traitsIcESaIcEEESt4pairIKS5_8PositionESt10_Select1stIS9_ESt4lessIS5_ESaIS9_EE15_M_destroy_nodeEPSt13_Rb_tree_nodeIS9_E
FNDA:0,_ZNSt8_Rb_treeINSt7__cxx1112basic_stringIcSt11char_traitsIcESaIcEEESt4pairIKS5_8PositionESt10_Select1stIS9_ESt4lessIS5_ESaIS9_EE15_M_destroy_nodeEPSt13_Rb_tree_nodeIS9_E
FN:648,_ZNSt8_Rb_treeINSt7__cxx1112basic_stringIcSt11char_traitsIcESaIcEEESt4pairIKS5_8PositionESt10_Select1stIS9_ESt4lessIS5_ESaIS9_EE12_M_drop_nodeEPSt13_Rb_tree_nodeIS9_E
FNDA:0,_ZNSt8_Rb_treeINSt7__cxx1112basic_stringIcSt11char_traitsIcESaIcEEESt4pairIKS5_8PositionESt10_Select1stIS9_ESt4lessIS5_ESaIS9_EE12_M_drop_nodeEPSt13_Rb_tree_nodeIS9_E
FN:648,_ZNSt8_Rb_treeI9PieceNameSt4pairIKS0_cESt10_Select1stIS3_ESt4lessIS0_ESaIS3_EE12_M_drop_nodeEPSt13_Rb_tree_nodeIS3_E
FNDA:0,_ZNSt8_Rb_treeI9PieceNameSt4pairIKS0_cESt10_Select1stIS3_ESt4lessIS0_ESaIS3_EE12_M_drop_nodeEPSt13_Rb_tree_nodeIS3_E
FN:656,_ZNSt8_Rb_treeINSt7__cxx1112basic_stringIcSt11char_traitsIcESaIcEEESt4pairIKS5_8PositionESt10_Select1stIS9_ESt4lessIS5_ESaIS9_EE13_M_clone_nodeINSF_11_Alloc_nodeEEEPSt13_Rb_tree_nodeIS9_EPKSJ_RT_
FNDA:0,_ZNSt8_Rb_treeINSt7__cxx1112basic_stringIcSt11char_traitsIcESaIcEEESt4pairIKS5_8PositionESt10_Select1stIS9_ESt4lessIS5_ESaIS9_EE13_M_clone_nodeINSF_11_Alloc_nodeEEEPSt13_Rb_tree_nodeIS9_EPKSJ_RT_
FN:656,_ZNSt8_Rb_treeI9PieceNameSt4pairIKS0_cESt10_Select1stIS3_ESt4lessIS0_ESaIS3_EE13_M_clone_nodeINS9_11_Alloc_nodeEEEPSt13_Rb_tree_nodeIS3_EPKSD_RT_
FNDA:0,_ZNSt8_Rb_treeI9PieceNameSt4pairIKS0_cESt10_Select1stIS3_ESt4lessIS0_ESaIS3_EE13_M_clone_nodeINS9_11_Alloc_nodeEEEPSt13_Rb_tree_nodeIS3_EPKSD_RT_
FN:687,_ZNSt8_Rb_treeI9PieceNameSt4pairIKS0_cESt10_Select1stIS3_ESt4lessIS0_ESaIS3_EE13_Rb_tree_implIS7_Lb1EEC2ERKSB_
FNDA:0,_ZNSt8_Rb_treeI9PieceNameSt4pairIKS0_cESt10_Select1stIS3_ESt4lessIS0_ESaIS3_EE13_Rb_tree_implIS7_Lb1EEC2ERKSB_
FN:687,_ZNSt8_Rb_treeINSt7__cxx1112basic_stringIcSt11char_traitsIcESaIcEEESt4pairIKS5_8PositionESt10_Select1stIS9_ESt4lessIS5_ESaIS9_EE13_Rb_tree_implISD_Lb1EEC2ERKSH_
FNDA:0,_ZNSt8_Rb_treeINSt7__cxx1112basic_stringIcSt11char_traitsIcESaIcEEESt4pairIKS5_8PositionESt10_Select1stIS9_ESt4lessIS5_ESaIS9_EE13_Rb_tree_implISD_Lb1EEC2ERKSH_
FN:720,_ZNSt8_Rb_treeINSt7__cxx1112basic_stringIcSt11char_traitsIcESaIcEEESt4pairIKS5_8PositionESt10_Select1stIS9_ESt4lessIS5_ESaIS9_EE7_M_rootEv
FNDA:0,_ZNSt8_Rb_treeINSt7__cxx1112basic_stringIcSt11char_traitsIcESaIcEEESt4pairIKS5_8PositionESt10_Select1stIS9_ESt4lessIS5_ESaIS9_EE7_M_rootEv
FN:720,_ZNSt8_Rb_treeI9PieceNameSt4pairIKS0_cESt10_Select1stIS3_ESt4lessIS0_ESaIS3_EE7_M_rootEv
FNDA:0,_ZNSt8_Rb_treeI9PieceNameSt4pairIKS0_cESt10_Select1stIS3_ESt4lessIS0_ESaIS3_EE7_M_rootEv
FN:724,_ZNKSt8_Rb_treeI9PieceNameSt4pairIKS0_cESt10_Select1stIS3_ESt4lessIS0_ESaIS3_EE7_M_rootEv
FNDA:0,_ZNKSt8_Rb_treeI9PieceNameSt4pairIKS0_cESt10_Select1stIS3_ESt4lessIS0_ESaIS3_EE7_M_rootEv
FN:724,_ZNKSt8_Rb_treeINSt7__cxx1112basic_stringIcSt11char_traitsIcESaIcEEESt4pairIKS5_8PositionESt10_Select1stIS9_ESt4lessIS5_ESaIS9_EE7_M_rootEv
FNDA:0,_ZNKSt8_Rb_treeINSt7__cxx1112basic_stringIcSt11char_traitsIcESaIcEEESt4pairIKS5_8PositionESt10_Select1stIS9_ESt4lessIS5_ESaIS9_EE7_M_rootEv
FN:728,_ZNSt8_Rb_treeINSt7__cxx1112basic_stringIcSt11char_traitsIcESaIcEEESt4pairIKS5_8PositionESt10_Select1stIS9_ESt4lessIS5_ESaIS9_EE11_M_leftmostEv
FNDA:0,_ZNSt8_Rb_treeINSt7__cxx1112basic_stringIcSt11char_traitsIcESaIcEEESt4pairIKS5_8PositionESt10_Select1stIS9_ESt4lessIS5_ESaIS9_EE11_M_leftmostEv
FN:728,_ZNSt8_Rb_treeI9PieceNameSt4pairIKS0_cESt10_Select1stIS3_ESt4lessIS0_ESaIS3_EE11_M_leftmostEv
FNDA:0,_ZNSt8_Rb_treeI9PieceNameSt4pairIKS0_cESt10_Select1stIS3_ESt4lessIS0_ESaIS3_EE11_M_leftmostEv
FN:736,_ZNSt8_Rb_treeI9PieceNameSt4pairIKS0_cESt10_Select1stIS3_ESt4lessIS0_ESaIS3_EE12_M_rightmostEv
FNDA:0,_ZNSt8_Rb_treeI9PieceNameSt4pairIKS0_cESt10_Select1stIS3_ESt4lessIS0_ESaIS3_EE12_M_rightmostEv
FN:736,_ZNSt8_Rb_treeINSt7__cxx1112basic_stringIcSt11char_traitsIcESaIcEEESt4pairIKS5_8PositionESt10_Select1stIS9_ESt4lessIS5_ESaIS9_EE12_M_rightmostEv
FNDA:0,_ZNSt8_Rb_treeINSt7__cxx1112basic_stringIcSt11char_traitsIcESaIcEEESt4pairIKS5_8PositionESt10_Select1stIS9_ESt4lessIS5_ESaIS9_EE12_M_rightmostEv
FN:744,_ZNSt8_Rb_treeINSt7__cxx1112basic_stringIcSt11char_traitsIcESaIcEEESt4pairIKS5_8PositionESt10_Select1stIS9_ESt4lessIS5_ESaIS9_EE8_M_beginEv
FNDA:0,_ZNSt8_Rb_treeINSt7__cxx1112basic_stringIcSt11char_traitsIcESaIcEEESt4pairIKS5_8PositionESt10_Select1stIS9_ESt4lessIS5_ESaIS9_EE8_M_beginEv
FN:744,_ZNSt8_Rb_treeI9PieceNameSt4pairIKS0_cESt10_Select1stIS3_ESt4lessIS0_ESaIS3_EE8_M_beginEv
FNDA:0,_ZNSt8_Rb_treeI9PieceNameSt4pairIKS0_cESt10_Select1stIS3_ESt4lessIS0_ESaIS3_EE8_M_beginEv
FN:748,_ZNKSt8_Rb_treeINSt7__cxx1112basic_stringIcSt11char_traitsIcESaIcEEESt4pairIKS5_8PositionESt10_Select1stIS9_ESt4lessIS5_ESaIS9_EE8_M_beginEv
FNDA:0,_ZNKSt8_Rb_treeINSt7__cxx1112basic_stringIcSt11char_traitsIcESaIcEEESt4pairIKS5_8PositionESt10_Select1stIS9_ESt4lessIS5_ESaIS9_EE8_M_beginEv
FN:748,_ZNKSt8_Rb_treeI9PieceNameSt4pairIKS0_cESt10_Select1stIS3_ESt4lessIS0_ESaIS3_EE8_M_beginEv
FNDA:0,_ZNKSt8_Rb_treeI9PieceNameSt4pairIKS0_cESt10_Select1stIS3_ESt4lessIS0_ESaIS3_EE8_M_beginEv
FN:755,_ZNSt8_Rb_treeINSt7__cxx1112basic_stringIcSt11char_traitsIcESaIcEEESt4pairIKS5_8PositionESt10_Select1stIS9_ESt4lessIS5_ESaIS9_EE6_M_endEv
FNDA:0,_ZNSt8_Rb_treeINSt7__cxx1112basic_stringIcSt11char_traitsIcESaIcEEESt4pairIKS5_8PositionESt10_Select1stIS9_ESt4lessIS5_ESaIS9_EE6_M_endEv
FN:755,_ZNSt8_Rb_treeI9PieceNameSt4pairIKS0_cESt10_Select1stIS3_ESt4lessIS0_ESaIS3_EE6_M_endEv
FNDA:0,_ZNSt8_Rb_treeI9PieceNameSt4pairIKS0_cESt10_Select1stIS3_ESt4lessIS0_ESaIS3_EE6_M_endEv
FN:789,_ZNSt8_Rb_treeINSt7__cxx1112basic_stringIcSt11char_traitsIcESaIcEEESt4pairIKS5_8PositionESt10_Select1stIS9_ESt4lessIS5_ESaIS9_EE7_S_leftEPSt18_Rb_tree_node_base
FNDA:0,_ZNSt8_Rb_treeINSt7__cxx1112basic_stringIcSt11char_traitsIcESaIcEEESt4pairIKS5_8PositionESt10_Select1stIS9_ESt4lessIS5_ESaIS9_EE7_S_leftEPSt18_Rb_tree_node_base
FN:789,_ZNSt8_Rb_treeI9PieceNameSt4pairIKS0_cESt10_Select1stIS3_ESt4lessIS0_ESaIS3_EE7_S_leftEPSt18_Rb_tree_node_base
FNDA:0,_ZNSt8_Rb_treeI9PieceNameSt4pairIKS0_cESt10_Select1stIS3_ESt4lessIS0_ESaIS3_EE7_S_leftEPSt18_Rb_tree_node_base
FN:793,_ZNSt8_Rb_treeINSt7__cxx1112basic_stringIcSt11char_traitsIcESaIcEEESt4pairIKS5_8PositionESt10_Select1stIS9_ESt4lessIS5_ESaIS9_EE7_S_leftEPKSt18_Rb_tree_node_base
FNDA:0,_ZNSt8_Rb_treeINSt7__cxx1112basic_stringIcSt11char_traitsIcESaIcEEESt4pairIKS5_8PositionESt10_Select1stIS9_ESt4lessIS5_ESaIS9_EE7_S_leftEPKSt18_Rb_tree_node_base
FN:793,_ZNSt8_Rb_treeI9PieceNameSt4pairIKS0_cESt10_Select1stIS3_ESt4lessIS0_ESaIS3_EE7_S_leftEPKSt18_Rb_tree_node_base
FNDA:0,_ZNSt8_Rb_treeI9PieceNameSt4pairIKS0_cESt10_Select1stIS3_ESt4lessIS0_ESaIS3_EE7_S_leftEPKSt18_Rb_tree_node_base
FN:797,_ZNSt8_Rb_treeINSt7__cxx1112basic_stringIcSt11char_traitsIcESaIcEEESt4pairIKS5_8PositionESt10_Select1stIS9_ESt4lessIS5_ESaIS9_EE8_S_rightEPSt18_Rb_tree_node_base
FNDA:0,_ZNSt8_Rb_treeINSt7__cxx1112basic_stringIcSt11char_traitsIcESaIcEEESt4pairIKS5_8PositionESt10_Select1stIS9_ESt4lessIS5_ESaIS9_EE8_S_rightEPSt18_Rb_tree_node_base
FN:797,_ZNSt8_Rb_treeI9PieceNameSt4pairIKS0_cESt10_Select1stIS3_ESt4lessIS0_ESaIS3_EE8_S_rightEPSt18_Rb_tree_node_base
FNDA:0,_ZNSt8_Rb_treeI9PieceNameSt4pairIKS0_cESt10_Select1stIS3_ESt4lessIS0_ESaIS3_EE8_S_rightEPSt18_Rb_tree_node_base
FN:801,_ZNSt8_Rb_treeI9PieceNameSt4pairIKS0_cESt10_Select1stIS3_ESt4lessIS0_ESaIS3_EE8_S_rightEPKSt18_Rb_tree_node_base
FNDA:0,_ZNSt8_Rb_treeI9PieceNameSt4pairIKS0_cESt10_Select1stIS3_ESt4lessIS0_ESaIS3_EE8_S_rightEPKSt18_Rb_tree_node_base
FN:801,_ZNSt8_Rb_treeINSt7__cxx1112basic_stringIcSt11char_traitsIcESaIcEEESt4pairIKS5_8PositionESt10_Select1stIS9_ESt4lessIS5_ESaIS9_EE8_S_rightEPKSt18_Rb_tree_node_base
FNDA:0,_ZNSt8_Rb_treeINSt7__cxx1112basic_stringIcSt11char_traitsIcESaIcEEESt4pairIKS5_8PositionESt10_Select1stIS9_ESt4lessIS5_ESaIS9_EE8_S_rightEPKSt18_Rb_tree_node_base
FN:813,_ZNSt8_Rb_treeI9PieceNameSt4pairIKS0_cESt10_Select1stIS3_ESt4lessIS0_ESaIS3_EE10_S_minimumEPSt18_Rb_tree_node_base
FNDA:0,_ZNSt8_Rb_treeI9PieceNameSt4pairIKS0_cESt10_Select1stIS3_ESt4lessIS0_ESaIS3_EE10_S_minimumEPSt18_Rb_tree_node_base
FN:813,_ZNSt8_Rb_treeINSt7__cxx1112basic_stringIcSt11char_traitsIcESaIcEEESt4pairIKS5_8PositionESt10_Select1stIS9_ESt4lessIS5_ESaIS9_EE10_S_minimumEPSt18_Rb_tree_node_base
FNDA:0,_ZNSt8_Rb_treeINSt7__cxx1112basic_stringIcSt11char_traitsIcESaIcEEESt4pairIKS5_8PositionESt10_Select1stIS9_ESt4lessIS5_ESaIS9_EE10_S_minimumEPSt18_Rb_tree_node_base
FN:821,_ZNSt8_Rb_treeINSt7__cxx1112basic_stringIcSt11char_traitsIcESaIcEEESt4pairIKS5_8PositionESt10_Select1stIS9_ESt4lessIS5_ESaIS9_EE10_S_maximumEPSt18_Rb_tree_node_base
FNDA:0,_ZNSt8_Rb_treeINSt7__cxx1112basic_stringIcSt11char_traitsIcESaIcEEESt4pairIKS5_8PositionESt10_Select1stIS9_ESt4lessIS5_ESaIS9_EE10_S_maximumEPSt18_Rb_tree_node_base
FN:821,_ZNSt8_Rb_treeI9PieceNameSt4pairIKS0_cESt10_Select1stIS3_ESt4lessIS0_ESaIS3_EE10_S_maximumEPSt18_Rb_tree_node_base
FNDA:0,_ZNSt8_Rb_treeI9PieceNameSt4pairIKS0_cESt10_Select1stIS3_ESt4lessIS0_ESaIS3_EE10_S_maximumEPSt18_Rb_tree_node_base
FN:899,_ZNSt8_Rb_treeINSt7__cxx1112basic_stringIcSt11char_traitsIcESaIcEEESt4pairIKS5_8PositionESt10_Select1stIS9_ESt4lessIS5_ESaIS9_EE7_M_copyINSF_11_Alloc_nodeEEEPSt13_Rb_tree_nodeIS9_ERKSF_RT_
FNDA:0,_ZNSt8_Rb_treeINSt7__cxx1112basic_stringIcSt11char_traitsIcESaIcEEESt4pairIKS5_8PositionESt10_Select1stIS9_ESt4lessIS5_ESaIS9_EE7_M_copyINSF_11_Alloc_nodeEEEPSt13_Rb_tree_nodeIS9_ERKSF_RT_
FN:899,_ZNSt8_Rb_treeI9PieceNameSt4pairIKS0_cESt10_Select1stIS3_ESt4lessIS0_ESaIS3_EE7_M_copyINS9_11_Alloc_nodeEEEPSt13_Rb_tree_nodeIS3_ERKS9_RT_
FNDA:0,_ZNSt8_Rb_treeI9PieceNameSt4pairIKS0_cESt10_Select1stIS3_ESt4lessIS0_ESaIS3_EE7_M_copyINS9_11_Alloc_nodeEEEPSt13_Rb_tree_nodeIS3_ERKS9_RT_
FN:909,_ZNSt8_Rb_treeINSt7__cxx1112basic_stringIcSt11char_traitsIcESaIcEEESt4pairIKS5_8PositionESt10_Select1stIS9_ESt4lessIS5_ESaIS9_EE7_M_copyERKSF_
FNDA:0,_ZNSt8_Rb_treeINSt7__cxx1112basic_stringIcSt11char_traitsIcESaIcEEESt4pairIKS5_8PositionESt10_Select1stIS9_ESt4lessIS5_ESaIS9_EE7_M_copyERKSF_
FN:909,_ZNSt8_Rb_treeI9PieceNameSt4pairIKS0_cESt10_Select1stIS3_ESt4lessIS0_ESaIS3_EE7_M_copyERKS9_
FNDA:0,_ZNSt8_Rb_treeI9PieceNameSt4pairIKS0_cESt10_Select1stIS3_ESt4lessIS0_ESaIS3_EE7_M_copyERKS9_
FN:946,_ZNSt8_Rb_treeI9PieceNameSt4pairIKS0_cESt10_Select1stIS3_ESt4lessIS0_ESaIS3_EEC2ERKS9_
FNDA:0,_ZNSt8_Rb_treeI9PieceNameSt4pairIKS0_cESt10_Select1stIS3_ESt4lessIS0_ESaIS3_EEC2ERKS9_
FN:946,_ZNSt8_Rb_treeINSt7__cxx1112basic_stringIcSt11char_traitsIcESaIcEEESt4pairIKS5_8PositionESt10_Select1stIS9_ESt4lessIS5_ESaIS9_EEC2ERKSF_
FNDA:0,_ZNSt8_Rb_treeINSt7__cxx1112basic_stringIcSt11char_traitsIcESaIcEEESt4pairIKS5_8PositionESt10_Select1stIS9_ESt4lessIS5_ESaIS9_EEC2ERKSF_
FN:994,_ZNSt8_Rb_treeINSt7__cxx1112basic_stringIcSt11char_traitsIcESaIcEEESt4pairIKS5_8PositionESt10_Select1stIS9_ESt4lessIS5_ESaIS9_EED2Ev
FNDA:0,_ZNSt8_Rb_treeINSt7__cxx1112basic_stringIcSt11char_traitsIcESaIcEEESt4pairIKS5_8PositionESt10_Select1stIS9_ESt4lessIS5_ESaIS9_EED2Ev
FN:994,_ZNSt8_Rb_treeI9PieceNameSt4pairIKS0_cESt10_Select1stIS3_ESt4lessIS0_ESaIS3_EED2Ev
FNDA:0,_ZNSt8_Rb_treeI9PieceNameSt4pairIKS0_cESt10_Select1stIS3_ESt4lessIS0_ESaIS3_EED2Ev
FN:1871,_ZNSt8_Rb_treeI9PieceNameSt4pairIKS0_cESt10_Select1stIS3_ESt4lessIS0_ESaIS3_EE7_M_copyINS9_11_Alloc_nodeEEEPSt13_Rb_tree_nodeIS3_EPKSD_PSt18_Rb_tree_node_baseRT_
FNDA:0,_ZNSt8_Rb_treeI9PieceNameSt4pairIKS0_cESt10_Select1stIS3_ESt4lessIS0_ESaIS3_EE7_M_copyINS9_11_Alloc_nodeEEEPSt13_Rb_tree_nodeIS3_EPKSD_PSt18_Rb_tree_node_baseRT_
FN:1871,_ZNSt8_Rb_treeINSt7__cxx1112basic_stringIcSt11char_traitsIcESaIcEEESt4pairIKS5_8PositionESt10_Select1stIS9_ESt4lessIS5_ESaIS9_EE7_M_copyINSF_11_Alloc_nodeEEEPSt13_Rb_tree_nodeIS9_EPKSJ_PSt18_Rb_tree_node_baseRT_
FNDA:0,_ZNSt8_Rb_treeINSt7__cxx1112basic_stringIcSt11char_traitsIcESaIcEEESt4pairIKS5_8PositionESt10_Select1stIS9_ESt4lessIS5_ESaIS9_EE7_M_copyINSF_11_Alloc_nodeEEEPSt13_Rb_tree_nodeIS9_EPKSJ_PSt18_Rb_tree_node_baseRT_
FN:1907,_ZNSt8_Rb_treeINSt7__cxx1112basic_stringIcSt11char_traitsIcESaIcEEESt4pairIKS5_8PositionESt10_Select1stIS9_ESt4lessIS5_ESaIS9_EE8_M_eraseEPSt13_Rb_tree_nodeIS9_E
FNDA:0,_ZNSt8_Rb_treeINSt7__cxx1112basic_stringIcSt11char_traitsIcESaIcEEESt4pairIKS5_8PositionESt10_Select1stIS9_ESt4lessIS5_ESaIS9_EE8_M_eraseEPSt13_Rb_tree_nodeIS9_E
FN:1907,_ZNSt8_Rb_treeI9PieceNameSt4pairIKS0_cESt10_Select1stIS3_ESt4lessIS0_ESaIS3_EE8_M_eraseEPSt13_Rb_tree_nodeIS3_E
FNDA:0,_ZNSt8_Rb_treeI9PieceNameSt4pairIKS0_cESt10_Select1stIS3_ESt4lessIS0_ESaIS3_EE8_M_eraseEPSt13_Rb_tree_nodeIS3_E
DA:112,0
DA:114,0
DA:115,0
DA:126,0
DA:128,0
DA:129,0
DA:152,0
DA:154,0
DA:152,0
DA:154,0
DA:173,0
DA:174,0
DA:175,0
DA:176,0
DA:177,0
DA:206,0
DA:208,0
DA:209,0
DA:210,0
DA:211,0
DA:212,0
DA:234,0
DA:235,0
DA:234,0
DA:235,0
DA:238,0
DA:239,0
DA:238,0
DA:239,0
DA:538,0
DA:539,0
DA:538,0
DA:539,0
DA:546,0
DA:548,0
DA:546,0
DA:548,0
DA:566,0
DA:567,0
DA:566,0
DA:567,0
DA:579,0
DA:580,0
DA:579,0
DA:580,0
DA:583,0
DA:584,0
DA:583,0
DA:584,0
DA:609,0
DA:613,0
DA:614,0
DA:618,0
DA:620,0
DA:621,0
DA:622,0
DA:624,0
DA:609,0
DA:613,0
DA:614,0
DA:624,0
DA:628,0
DA:630,0
DA:631,0
DA:632,0
DA:628,0
DA:630,0
DA:631,0
DA:632,0
DA:637,0
DA:642,0
DA:643,0
DA:645,0
DA:637,0
DA:642,0
DA:643,0
DA:645,0
DA:648,0
DA:650,0
DA:651,0
DA:652,0
DA:648,0
DA:650,0
DA:651,0
DA:652,0
DA:656,0
DA:658,0
DA:659,0
DA:660,0
DA:661,0
DA:662,0
DA:656,0
DA:658,0
DA:659,0
DA:660,0
DA:661,0
DA:662,0
DA:687,0
DA:689,0
DA:690,0
DA:687,0
DA:689,0
DA:690,0
DA:720,0
DA:721,0
DA:720,0
DA:721,0
DA:724,0
DA:725,0
DA:724,0
DA:725,0
DA:728,0
DA:729,0
DA:728,0
DA:729,0
DA:736,0
DA:737,0
DA:736,0
DA:737,0
DA:744,0
DA:745,0
DA:744,0
DA:745,0
DA:748,0
DA:751,0
DA:748,0
DA:751,0
DA:755,0
DA:756,0
DA:755,0
DA:756,0
DA:789,0
DA:790,0
DA:789,0
DA:790,0
DA:793,0
DA:794,0
DA:793,0
DA:794,0
DA:797,0
DA:798,0
DA:797,0
DA:798,0
DA:801,0
DA:802,0
DA:801,0
DA:802,0
DA:813,0
DA:814,0
DA:813,0
DA:814,0
DA:821,0
DA:822,0
DA:821,0
DA:822,0
DA:899,0
DA:901,0
DA:902,0
DA:903,0
DA:904,0
DA:905,0
DA:899,0
DA:901,0
DA:902,0
DA:903,0
DA:904,0
DA:905,0
DA:909,0
DA:911,0
DA:912,0
DA:909,0
DA:911,0
DA:912,0
DA:946,0
DA:947,0
DA:949,0
DA:950,0
DA:951,0
DA:946,0
DA:947,0
DA:949,0
DA:950,0
DA:951,0
DA:994,0
DA:995,0
DA:994,0
DA:995,0
DA:1871,0
DA:1875,0
DA:1876,0
DA:1880,0
DA:1881,0
DA:1882,0
DA:1883,0
DA:1885,0
DA:1887,0
DA:1888,0
DA:1889,0
DA:1890,0
DA:1891,0
DA:1892,0
DA:1893,0
DA:1896,0
DA:1898,0
DA:1899,0
DA:1901,0
DA:1871,0
DA:1875,0
DA:1876,0
DA:1880,0
DA:1881,0
DA:1882,0
DA:1883,0
DA:1885,0
DA:1887,0
DA:1888,0
DA:1889,0
DA:1890,0
DA:1891,0
DA:1892,0
DA:1893,0
DA:1896,0
DA:1898,0
DA:1899,0
DA:1901,0
DA:1907,0
DA:1911,0
DA:1913,0
DA:1914,0
DA:1915,0
DA:1916,0
DA:1918,0
DA:1907,0
DA:1911,0
DA:1913,0
DA:1914,0
DA:1915,0
DA:1916,0
DA:1918,0
end_of_record
SF:/usr/include/c++/9/bits/stl_iterator.h
FN:806,_ZN9__gnu_cxx17__normal_iteratorIPK4MoveSt6vectorIS1_SaIS1_EEEC2ERKS3_
FNDA:0,_ZN9__gnu_cxx17__normal_iteratorIPK4MoveSt6vectorIS1_SaIS1_EEEC2ERKS3_
FN:806,_ZN9__gnu_cxx17__normal_iteratorIP8PositionSt6vectorIS1_SaIS1_EEEC2ERKS2_
FNDA:11942,_ZN9__gnu_cxx17__normal_iteratorIP8PositionSt6vectorIS1_SaIS1_EEEC2ERKS2_
FN:806,_ZN9__gnu_cxx17__normal_iteratorIPKSt10shared_ptrI5PieceESt6vectorIS3_SaIS3_EEEC2ERKS5_
FNDA:0,_ZN9__gnu_cxx17__normal_iteratorIPKSt10shared_ptrI5PieceESt6vectorIS3_SaIS3_EEEC2ERKS5_
FN:806,_ZN9__gnu_cxx17__normal_iteratorIPK8PositionSt6vectorIS1_SaIS1_EEEC2ERKS3_
FNDA:0,_ZN9__gnu_cxx17__normal_iteratorIPK8PositionSt6vectorIS1_SaIS1_EEEC2ERKS3_
FN:806,_ZN9__gnu_cxx17__normal_iteratorIP4MoveSt6vectorIS1_SaIS1_EEEC2ERKS2_
FNDA:13682,_ZN9__gnu_cxx17__normal_iteratorIP4MoveSt6vectorIS1_SaIS1_EEEC2ERKS2_
FN:806,_ZN9__gnu_cxx17__normal_iteratorIPKSt6vectorI4MoveSaIS2_EES1_IS4_SaIS4_EEEC2ERKS6_
FNDA:0,_ZN9__gnu_cxx17__normal_iteratorIPKSt6vectorI4MoveSaIS2_EES1_IS4_SaIS4_EEEC2ERKS6_
FN:819,_ZNK9__gnu_cxx17__normal_iteratorIPK4MoveSt6vectorIS1_SaIS1_EEEdeEv
FNDA:0,_ZNK9__gnu_cxx17__normal_iteratorIPK4MoveSt6vectorIS1_SaIS1_EEEdeEv
FN:819,_ZNK9__gnu_cxx17__normal_iteratorIPK8PositionSt6vectorIS1_SaIS1_EEEdeEv
FNDA:0,_ZNK9__gnu_cxx17__normal_iteratorIPK8PositionSt6vectorIS1_SaIS1_EEEdeEv
FN:819,_ZNK9__gnu_cxx17__normal_iteratorIP4MoveSt6vectorIS1_SaIS1_EEEdeEv
FNDA:3002,_ZNK9__gnu_cxx17__normal_iteratorIP4MoveSt6vectorIS1_SaIS1_EEEdeEv
FN:827,_ZN9__gnu_cxx17__normal_iteratorIPK4MoveSt6vectorIS1_SaIS1_EEEppEv
FNDA:0,_ZN9__gnu_cxx17__normal_iteratorIPK4MoveSt6vectorIS1_SaIS1_EEEppEv
FN:827,_ZN9__gnu_cxx17__normal_iteratorIP4MoveSt6vectorIS1_SaIS1_EEEppEv
FNDA:2261,_ZN9__gnu_cxx17__normal_iteratorIP4MoveSt6vectorIS1_SaIS1_EEEppEv
FN:827,_ZN9__gnu_cxx17__normal_iteratorIPK8PositionSt6vectorIS1_SaIS1_EEEppEv
FNDA:0,_ZN9__gnu_cxx17__normal_iteratorIPK8PositionSt6vectorIS1_SaIS1_EEEppEv
FN:859,_ZNK9__gnu_cxx17__normal_iteratorIP4MoveSt6vectorIS1_SaIS1_EEEplEl
FNDA:828,_ZNK9__gnu_cxx17__normal_iteratorIP4MoveSt6vectorIS1_SaIS1_EEEplEl
FN:859,_ZNK9__gnu_cxx17__normal_iteratorIP8PositionSt6vectorIS1_SaIS1_EEEplEl
FNDA:1286,_ZNK9__gnu_cxx17__normal_iteratorIP8PositionSt6vectorIS1_SaIS1_EEEplEl
FN:871,_ZNK9__gnu_cxx17__normal_iteratorIPKSt6vectorI4MoveSaIS2_EES1_IS4_SaIS4_EEE4baseEv
FNDA:0,_ZNK9__gnu_cxx17__normal_iteratorIPKSt6vectorI4MoveSaIS2_EES1_IS4_SaIS4_EEE4baseEv
FN:871,_ZNK9__gnu_cxx17__normal_iteratorIPKSt10shared_ptrI5PieceESt6vectorIS3_SaIS3_EEE4baseEv
FNDA:0,_ZNK9__gnu_cxx17__normal_iteratorIPKSt10shared_ptrI5PieceESt6vectorIS3_SaIS3_EEE4baseEv
FN:871,_ZNK9__gnu_cxx17__normal_iteratorIPK8PositionSt6vectorIS1_SaIS1_EEE4baseEv
FNDA:0,_ZNK9__gnu_cxx17__normal_iteratorIPK8PositionSt6vectorIS1_SaIS1_EEE4baseEv
FN:871,_ZNK9__gnu_cxx17__normal_iteratorIP8PositionSt6vectorIS1_SaIS1_EEE4baseEv
FNDA:13708,_ZNK9__gnu_cxx17__normal_iteratorIP8PositionSt6vectorIS1_SaIS1_EEE4baseEv
FN:871,_ZNK9__gnu_cxx17__normal_iteratorIPK4MoveSt6vectorIS1_SaIS1_EEE4baseEv
FNDA:0,_ZNK9__gnu_cxx17__normal_iteratorIPK4MoveSt6vectorIS1_SaIS1_EEE4baseEv
FN:871,_ZNK9__gnu_cxx17__normal_iteratorIP4MoveSt6vectorIS1_SaIS1_EEE4baseEv
FNDA:27948,_ZNK9__gnu_cxx17__normal_iteratorIP4MoveSt6vectorIS1_SaIS1_EEE4baseEv
FN:893,_ZN9__gnu_cxxeqIPKSt6vectorI4MoveSaIS2_EES1_IS4_SaIS4_EEEEbRKNS_17__normal_iteratorIT_T0_EESE_
FNDA:0,_ZN9__gnu_cxxeqIPKSt6vectorI4MoveSaIS2_EES1_IS4_SaIS4_EEEEbRKNS_17__normal_iteratorIT_T0_EESE_
FN:893,_ZN9__gnu_cxxeqIPKSt10shared_ptrI5PieceESt6vectorIS3_SaIS3_EEEEbRKNS_17__normal_iteratorIT_T0_EESE_
FNDA:0,_ZN9__gnu_cxxeqIPKSt10shared_ptrI5PieceESt6vectorIS3_SaIS3_EEEEbRKNS_17__normal_iteratorIT_T0_EESE_
FN:893,_ZN9__gnu_cxxeqIPK8PositionSt6vectorIS1_SaIS1_EEEEbRKNS_17__normal_iteratorIT_T0_EESC_
FNDA:0,_ZN9__gnu_cxxeqIPK8PositionSt6vectorIS1_SaIS1_EEEEbRKNS_17__normal_iteratorIT_T0_EESC_
FN:907,_ZN9__gnu_cxxneIP4MoveSt6vectorIS1_SaIS1_EEEEbRKNS_17__normal_iteratorIT_T0_EESB_
FNDA:4230,_ZN9__gnu_cxxneIP4MoveSt6vectorIS1_SaIS1_EEEEbRKNS_17__normal_iteratorIT_T0_EESB_
FN:907,_ZN9__gnu_cxxneIPK8PositionSt6vectorIS1_SaIS1_EEEEbRKNS_17__normal_iteratorIT_T0_EESC_
FNDA:0,_ZN9__gnu_cxxneIPK8PositionSt6vectorIS1_SaIS1_EEEEbRKNS_17__normal_iteratorIT_T0_EESC_
FN:907,_ZN9__gnu_cxxneIPK4MoveSt6vectorIS1_SaIS1_EEEEbRKNS_17__normal_iteratorIT_T0_EESC_
FNDA:0,_ZN9__gnu_cxxneIPK4MoveSt6vectorIS1_SaIS1_EEEEbRKNS_17__normal_iteratorIT_T0_EESC_
FN:1010,_ZSt12__niter_baseIPK8PositionSt6vectorIS0_SaIS0_EEET_N9__gnu_cxx17__normal_iteratorIS6_T0_EE
FNDA:8266,_ZSt12__niter_baseIPK8PositionSt6vectorIS0_SaIS0_EEET_N9__gnu_cxx17__normal_iteratorIS6_T0_EE
FN:1010,_ZSt12__niter_baseIP8PositionSt6vectorIS0_SaIS0_EEET_N9__gnu_cxx17__normal_iteratorIS5_T0_EE
FNDA:2572,_ZSt12__niter_baseIP8PositionSt6vectorIS0_SaIS0_EEET_N9__gnu_cxx17__normal_iteratorIS5_T0_EE
FN:1010,_ZSt12__niter_baseIPK4MoveSt6vectorIS0_SaIS0_EEET_N9__gnu_cxx17__normal_iteratorIS6_T0_EE
FNDA:7350,_ZSt12__niter_baseIPK4MoveSt6vectorIS0_SaIS0_EEET_N9__gnu_cxx17__normal_iteratorIS6_T0_EE
FN:1010,_ZSt12__niter_baseIP4MoveSt6vectorIS0_SaIS0_EEET_N9__gnu_cxx17__normal_iteratorIS5_T0_EE
FNDA:1656,_ZSt12__niter_baseIP4MoveSt6vectorIS0_SaIS0_EEET_N9__gnu_cxx17__normal_iteratorIS5_T0_EE
DA:806,0
DA:807,0
DA:806,0
DA:807,0
DA:806,13682
DA:807,13682
DA:806,0
DA:807,0
DA:806,11942
DA:807,11942
DA:806,0
DA:807,0
DA:819,0
DA:820,0
DA:819,0
DA:820,0
DA:819,3002
DA:820,3002
DA:827,0
DA:829,0
DA:830,0
DA:827,0
DA:829,0
DA:830,0
DA:827,2261
DA:829,2261
DA:830,2261
DA:859,828
DA:860,828
DA:859,1286
DA:860,1286
DA:871,27948
DA:872,27948
DA:871,0
DA:872,0
DA:871,13708
DA:872,13708
DA:871,0
DA:872,0
DA:871,0
DA:872,0
DA:871,0
DA:872,0
DA:893,0
DA:896,0
DA:893,0
DA:896,0
DA:893,0
DA:896,0
DA:907,0
DA:910,0
DA:907,0
DA:910,0
DA:907,4230
DA:910,4230
DA:1010,1656
DA:1012,1656
DA:1010,7350
DA:1012,7350
DA:1010,2572
DA:1012,2572
DA:1010,8266
DA:1012,8266
end_of_record
SF:/usr/include/c++/9/bits/move.h
FN:47,_ZSt11__addressofISt6vectorI4MoveSaIS1_EEEPT_RS4_
FNDA:0,_ZSt11__addressofISt6vectorI4MoveSaIS1_EEEPT_RS4_
FN:47,_ZSt11__addressofI8PositionEPT_RS1_
FNDA:0,_ZSt11__addressofI8PositionEPT_RS1_
FN:47,_ZSt11__addressofISt10shared_ptrI5PieceEEPT_RS3_
FNDA:0,_ZSt11__addressofISt10shared_ptrI5PieceEEPT_RS3_
FN:47,_ZSt11__addressofI4MoveEPT_RS1_
FNDA:0,_ZSt11__addressofI4MoveEPT_RS1_
FN:74,_ZSt7forwardIRKSt4pairIKNSt7__cxx1112basic_stringIcSt11char_traitsIcESaIcEEE8PositionEEOT_RNSt16remove_referenceISC_E4typeE
FNDA:0,_ZSt7forwardIRKSt4pairIKNSt7__cxx1112basic_stringIcSt11char_traitsIcESaIcEEE8PositionEEOT_RNSt16remove_referenceISC_E4typeE
FN:74,_ZSt7forwardIRK4MoveEOT_RNSt16remove_referenceIS3_E4typeE
FNDA:0,_ZSt7forwardIRK4MoveEOT_RNSt16remove_referenceIS3_E4typeE
FN:74,_ZSt7forwardIRK8PositionEOT_RNSt16remove_referenceIS3_E4typeE
FNDA:0,_ZSt7forwardIRK8PositionEOT_RNSt16remove_referenceIS3_E4typeE
FN:74,_ZSt7forwardIR4MoveEOT_RNSt16remove_referenceIS2_E4typeE
FNDA:134,_ZSt7forwardIR4MoveEOT_RNSt16remove_referenceIS2_E4typeE
FN:74,_ZSt7forwardIR8PositionEOT_RNSt16remove_referenceIS2_E4typeE
FNDA:551,_ZSt7forwardIR8PositionEOT_RNSt16remove_referenceIS2_E4typeE
FN:74,_ZSt7forwardIRKSt4pairIK9PieceNamecEEOT_RNSt16remove_referenceIS6_E4typeE
FNDA:0,_ZSt7forwardIRKSt4pairIK9PieceNamecEEOT_RNSt16remove_referenceIS6_E4typeE
FN:99,_ZSt4moveIRSaIcEEONSt16remove_referenceIT_E4typeEOS3_
FNDA:0,_ZSt4moveIRSaIcEEONSt16remove_referenceIT_E4typeEOS3_
DA:47,0
DA:48,0
DA:47,0
DA:48,0
DA:47,0
DA:48,0
DA:47,0
DA:48,0
DA:74,0
DA:75,0
DA:74,0
DA:75,0
DA:74,0
DA:75,0
DA:74,134
DA:75,134
DA:74,551
DA:75,551
DA:74,0
DA:75,0
DA:99,0
DA:100,0
end_of_record
SF:/usr/include/c++/9/ext/alloc_traits.h
FN:97,_ZN9__gnu_cxx14__alloc_traitsISaISt13_Rb_tree_nodeISt4pairIK9PieceNamecEEES6_E17_S_select_on_copyERKS7_
FNDA:0,_ZN9__gnu_cxx14__alloc_traitsISaISt13_Rb_tree_nodeISt4pairIK9PieceNamecEEES6_E17_S_select_on_copyERKS7_
FN:97,_ZN9__gnu_cxx14__alloc_traitsISaISt13_Rb_tree_nodeISt4pairIKNSt7__cxx1112basic_stringIcSt11char_traitsIcESaIcEEE8PositionEEESC_E17_S_select_on_copyERKSD_
FNDA:0,_ZN9__gnu_cxx14__alloc_traitsISaISt13_Rb_tree_nodeISt4pairIKNSt7__cxx1112basic_stringIcSt11char_traitsIcESaIcEEE8PositionEEESC_E17_S_select_on_copyERKSD_
FN:97,_ZN9__gnu_cxx14__alloc_traitsISaI4MoveES1_E17_S_select_on_copyERKS2_
FNDA:0,_ZN9__gnu_cxx14__alloc_traitsISaI4MoveES1_E17_S_select_on_copyERKS2_
FN:97,_ZN9__gnu_cxx14__alloc_traitsISaI8PositionES1_E17_S_select_on_copyERKS2_
FNDA:0,_ZN9__gnu_cxx14__alloc_traitsISaI8PositionES1_E17_S_select_on_copyERKS2_
FN:97,_ZN9__gnu_cxx14__alloc_traitsISaIcEcE17_S_select_on_copyERKS1_
FNDA:0,_ZN9__gnu_cxx14__alloc_traitsISaIcEcE17_S_select_on_copyERKS1_
FN:103,_ZN9__gnu_cxx14__alloc_traitsISaI4MoveES1_E27_S_propagate_on_copy_assignEv
FNDA:832,_ZN9__gnu_cxx14__alloc_traitsISaI4MoveES1_E27_S_propagate_on_copy_assignEv
FN:103,_ZN9__gnu_cxx14__alloc_traitsISaI8PositionES1_E27_S_propagate_on_copy_assignEv
FNDA:1677,_ZN9__gnu_cxx14__alloc_traitsISaI8PositionES1_E27_S_propagate_on_copy_assignEv
FN:112,_ZN9__gnu_cxx14__alloc_traitsISaI4MoveES1_E15_S_always_equalEv
FNDA:0,_ZN9__gnu_cxx14__alloc_traitsISaI4MoveES1_E15_S_always_equalEv
FN:112,_ZN9__gnu_cxx14__alloc_traitsISaI8PositionES1_E15_S_always_equalEv
FNDA:0,_ZN9__gnu_cxx14__alloc_traitsISaI8PositionES1_E15_S_always_equalEv
DA:97,0
DA:98,0
DA:97,0
DA:98,0
DA:97,0
DA:98,0
DA:97,0
DA:98,0
DA:97,0
DA:98,0
DA:103,832
DA:104,832
DA:103,1677
DA:104,1677
DA:112,0
DA:113,0
DA:112,0
DA:113,0
end_of_record
SF:/usr/include/c++/9/bits/shared_ptr.h
end_of_record
SF:/usr/include/c++/9/bits/stl_construct.h
FN:74,_ZSt10_ConstructI4MoveJRKS0_EEvPT_DpOT0_
FNDA:0,_ZSt10_ConstructI4MoveJRKS0_EEvPT_DpOT0_
FN:74,_ZSt10_ConstructI8PositionJRKS0_EEvPT_DpOT0_
FNDA:0,_ZSt10_ConstructI8PositionJRKS0_EEvPT_DpOT0_
FN:74,_ZSt10_ConstructI4MoveJRS0_EEvPT_DpOT0_
FNDA:0,_ZSt10_ConstructI4MoveJRS0_EEvPT_DpOT0_
FN:74,_ZSt10_ConstructI8PositionJRS0_EEvPT_DpOT0_
FNDA:143,_ZSt10_ConstructI8PositionJRS0_EEvPT_DpOT0_
FN:97,_ZSt8_DestroyISt10shared_ptrI5PieceEEvPT_
FNDA:0,_ZSt8_DestroyISt10shared_ptrI5PieceEEvPT_
FN:97,_ZSt8_DestroyI4MoveEvPT_
FNDA:0,_ZSt8_DestroyI4MoveEvPT_
FN:97,_ZSt8_DestroyISt6vectorI4MoveSaIS1_EEEvPT_
FNDA:0,_ZSt8_DestroyISt6vectorI4MoveSaIS1_EEEvPT_
FN:105,_ZNSt12_Destroy_auxILb0EE9__destroyIPSt6vectorI4MoveSaIS3_EEEEvT_S7_
FNDA:0,_ZNSt12_Destroy_auxILb0EE9__destroyIPSt6vectorI4MoveSaIS3_EEEEvT_S7_
FN:105,_ZNSt12_Destroy_auxILb0EE9__destroyIN9__gnu_cxx17__normal_iteratorIP4MoveSt6vectorIS4_SaIS4_EEEEEEvT_SA_
FNDA:828,_ZNSt12_Destroy_auxILb0EE9__destroyIN9__gnu_cxx17__normal_iteratorIP4MoveSt6vectorIS4_SaIS4_EEEEEEvT_SA_
FN:105,_ZNSt12_Destroy_auxILb0EE9__destroyIPSt10shared_ptrI5PieceEEEvT_S6_
FNDA:0,_ZNSt12_Destroy_auxILb0EE9__destroyIPSt10shared_ptrI5PieceEEEvT_S6_
FN:105,_ZNSt12_Destroy_auxILb0EE9__destroyIP4MoveEEvT_S4_
FNDA:0,_ZNSt12_Destroy_auxILb0EE9__destroyIP4MoveEEvT_S4_
FN:117,_ZNSt12_Destroy_auxILb1EE9__destroyIP8PositionEEvT_S4_
FNDA:0,_ZNSt12_Destroy_auxILb1EE9__destroyIP8PositionEEvT_S4_
FN:117,_ZNSt12_Destroy_auxILb1EE9__destroyIN9__gnu_cxx17__normal_iteratorIP8PositionSt6vectorIS4_SaIS4_EEEEEEvT_SA_
FNDA:1286,_ZNSt12_Destroy_auxILb1EE9__destroyIN9__gnu_cxx17__normal_iteratorIP8PositionSt6vectorIS4_SaIS4_EEEEEEvT_SA_
FN:127,_ZSt8_DestroyIPSt6vectorI4MoveSaIS1_EEEvT_S5_
FNDA:0,_ZSt8_DestroyIPSt6vectorI4MoveSaIS1_EEEvT_S5_
FN:127,_ZSt8_DestroyIN9__gnu_cxx17__normal_iteratorIP4MoveSt6vectorIS2_SaIS2_EEEEEvT_S8_
FNDA:828,_ZSt8_DestroyIN9__gnu_cxx17__normal_iteratorIP4MoveSt6vectorIS2_SaIS2_EEEEEvT_S8_
FN:127,_ZSt8_DestroyIN9__gnu_cxx17__normal_iteratorIP8PositionSt6vectorIS2_SaIS2_EEEEEvT_S8_
FNDA:1286,_ZSt8_DestroyIN9__gnu_cxx17__normal_iteratorIP8PositionSt6vectorIS2_SaIS2_EEEEEvT_S8_
FN:127,_ZSt8_DestroyIPSt10shared_ptrI5PieceEEvT_S4_
FNDA:0,_ZSt8_DestroyIPSt10shared_ptrI5PieceEEvT_S4_
FN:127,_ZSt8_DestroyIP4MoveEvT_S2_
FNDA:0,_ZSt8_DestroyIP4MoveEvT_S2_
FN:127,_ZSt8_DestroyIP8PositionEvT_S2_
FNDA:0,_ZSt8_DestroyIP8PositionEvT_S2_
FN:203,_ZSt8_DestroyIPSt6vectorI4MoveSaIS1_EES3_EvT_S5_RSaIT0_E
FNDA:0,_ZSt8_DestroyIPSt6vectorI4MoveSaIS1_EES3_EvT_S5_RSaIT0_E
FN:203,_ZSt8_DestroyIN9__gnu_cxx17__normal_iteratorIP4MoveSt6vectorIS2_SaIS2_EEEES2_EvT_S8_RSaIT0_E
FNDA:828,_ZSt8_DestroyIN9__gnu_cxx17__normal_iteratorIP4MoveSt6vectorIS2_SaIS2_EEEES2_EvT_S8_RSaIT0_E
FN:203,_ZSt8_DestroyIN9__gnu_cxx17__normal_iteratorIP8PositionSt6vectorIS2_SaIS2_EEEES2_EvT_S8_RSaIT0_E
FNDA:1286,_ZSt8_DestroyIN9__gnu_cxx17__normal_iteratorIP8PositionSt6vectorIS2_SaIS2_EEEES2_EvT_S8_RSaIT0_E
FN:203,_ZSt8_DestroyIPSt10shared_ptrI5PieceES2_EvT_S4_RSaIT0_E
FNDA:0,_ZSt8_DestroyIPSt10shared_ptrI5PieceES2_EvT_S4_RSaIT0_E
FN:203,_ZSt8_DestroyIP4MoveS0_EvT_S2_RSaIT0_E
FNDA:0,_ZSt8_DestroyIP4MoveS0_EvT_S2_RSaIT0_E
FN:203,_ZSt8_DestroyIP8PositionS0_EvT_S2_RSaIT0_E
FNDA:0,_ZSt8_DestroyIP8PositionS0_EvT_S2_RSaIT0_E
DA:74,0
DA:75,0
DA:74,0
DA:75,0
DA:74,0
DA:75,0
DA:74,143
DA:75,143
DA:97,0
DA:98,0
DA:97,0
DA:98,0
DA:97,0
DA:98,0
DA:105,0
DA:107,0
DA:108,0
DA:109,0
DA:105,907
DA:107,907
DA:108,79
DA:109,828
DA:105,0
DA:107,0
DA:108,0
DA:109,0
DA:105,0
DA:107,0
DA:108,0
DA:109,0
DA:117,1286
DA:117,0
DA:127,0
DA:137,0
DA:138,0
DA:127,828
DA:137,828
DA:138,828
DA:127,1286
DA:137,1286
DA:138,1286
DA:127,0
DA:137,0
DA:138,0
DA:127,0
DA:137,0
DA:138,0
DA:127,0
DA:137,0
DA:138,0
DA:203,0
DA:206,0
DA:207,0
DA:203,828
DA:206,828
DA:207,828
DA:203,1286
DA:206,1286
DA:207,1286
DA:203,0
DA:206,0
DA:207,0
DA:203,0
DA:206,0
DA:207,0
DA:203,0
DA:206,0
DA:207,0
end_of_record
SF:/usr/include/c++/9/bits/alloc_traits.h
FN:443,_ZNSt16allocator_traitsISaISt13_Rb_tree_nodeISt4pairIKNSt7__cxx1112basic_stringIcSt11char_traitsIcESaIcEEE8PositionEEEE8allocateERSC_m
FNDA:0,_ZNSt16allocator_traitsISaISt13_Rb_tree_nodeISt4pairIKNSt7__cxx1112basic_stringIcSt11char_traitsIcESaIcEEE8PositionEEEE8allocateERSC_m
FN:443,_ZNSt16allocator_traitsISaISt13_Rb_tree_nodeISt4pairIK9PieceNamecEEEE8allocateERS6_m
FNDA:0,_ZNSt16allocator_traitsISaISt13_Rb_tree_nodeISt4pairIK9PieceNamecEEEE8allocateERS6_m
FN:443,_ZNSt16allocator_traitsISaI4MoveEE8allocateERS1_m
FNDA:0,_ZNSt16allocator_traitsISaI4MoveEE8allocateERS1_m
FN:443,_ZNSt16allocator_traitsISaI8PositionEE8allocateERS1_m
FNDA:0,_ZNSt16allocator_traitsISaI8PositionEE8allocateERS1_m
FN:469,_ZNSt16allocator_traitsISaISt13_Rb_tree_nodeISt4pairIKNSt7__cxx1112basic_stringIcSt11char_traitsIcESaIcEEE8PositionEEEE10deallocateERSC_PSB_m
FNDA:0,_ZNSt16allocator_traitsISaISt13_Rb_tree_nodeISt4pairIKNSt7__cxx1112basic_stringIcSt11char_traitsIcESaIcEEE8PositionEEEE10deallocateERSC_PSB_m
FN:469,_ZNSt16allocator_traitsISaISt13_Rb_tree_nodeISt4pairIK9PieceNamecEEEE10deallocateERS6_PS5_m
FNDA:0,_ZNSt16allocator_traitsISaISt13_Rb_tree_nodeISt4pairIK9PieceNamecEEEE10deallocateERS6_PS5_m
FN:469,_ZNSt16allocator_traitsISaISt6vectorI4MoveSaIS1_EEEE10deallocateERS4_PS3_m
FNDA:0,_ZNSt16allocator_traitsISaISt6vectorI4MoveSaIS1_EEEE10deallocateERS4_PS3_m
FN:469,_ZNSt16allocator_traitsISaI8PositionEE10deallocateERS1_PS0_m
FNDA:0,_ZNSt16allocator_traitsISaI8PositionEE10deallocateERS1_PS0_m
FN:469,_ZNSt16allocator_traitsISaI4MoveEE10deallocateERS1_PS0_m
FNDA:0,_ZNSt16allocator_traitsISaI4MoveEE10deallocateERS1_PS0_m
FN:469,_ZNSt16allocator_traitsISaISt10shared_ptrI5PieceEEE10deallocateERS3_PS2_m
FNDA:0,_ZNSt16allocator_traitsISaISt10shared_ptrI5PieceEEE10deallocateERS3_PS2_m
FN:482,_ZNSt16allocator_traitsISaISt13_Rb_tree_nodeISt4pairIK9PieceNamecEEEE9constructIS4_JRKS4_EEEvRS6_PT_DpOT0_
FNDA:0,_ZNSt16allocator_traitsISaISt13_Rb_tree_nodeISt4pairIK9PieceNamecEEEE9constructIS4_JRKS4_EEEvRS6_PT_DpOT0_
FN:482,_ZNSt16allocator_traitsISaISt13_Rb_tree_nodeISt4pairIKNSt7__cxx1112basic_stringIcSt11char_traitsIcESaIcEEE8PositionEEEE9constructISA_JRKSA_EEEvRSC_PT_DpOT0_
FNDA:0,_ZNSt16allocator_traitsISaISt13_Rb_tree_nodeISt4pairIKNSt7__cxx1112basic_stringIcSt11char_traitsIcESaIcEEE8PositionEEEE9constructISA_JRKSA_EEEvRSC_PT_DpOT0_
FN:495,_ZNSt16allocator_traitsISaISt13_Rb_tree_nodeISt4pairIKNSt7__cxx1112basic_stringIcSt11char_traitsIcESaIcEEE8PositionEEEE7destroyISA_EEvRSC_PT_
FNDA:0,_ZNSt16allocator_traitsISaISt13_Rb_tree_nodeISt4pairIKNSt7__cxx1112basic_stringIcSt11char_traitsIcESaIcEEE8PositionEEEE7destroyISA_EEvRSC_PT_
FN:495,_ZNSt16allocator_traitsISaISt13_Rb_tree_nodeISt4pairIK9PieceNamecEEEE7destroyIS4_EEvRS6_PT_
FNDA:0,_ZNSt16allocator_traitsISaISt13_Rb_tree_nodeISt4pairIK9PieceNamecEEEE7destroyIS4_EEvRS6_PT_
FN:514,_ZNSt16allocator_traitsISaISt13_Rb_tree_nodeISt4pairIK9PieceNamecEEEE37select_on_container_copy_constructionERKS6_
FNDA:0,_ZNSt16allocator_traitsISaISt13_Rb_tree_nodeISt4pairIK9PieceNamecEEEE37select_on_container_copy_constructionERKS6_
FN:514,_ZNSt16allocator_traitsISaIcEE37select_on_container_copy_constructionERKS0_
FNDA:0,_ZNSt16allocator_traitsISaIcEE37select_on_container_copy_constructionERKS0_
FN:514,_ZNSt16allocator_traitsISaI8PositionEE37select_on_container_copy_constructionERKS1_
FNDA:0,_ZNSt16allocator_traitsISaI8PositionEE37select_on_container_copy_constructionERKS1_
FN:514,_ZNSt16allocator_traitsISaI4MoveEE37select_on_container_copy_constructionERKS1_
FNDA:0,_ZNSt16allocator_traitsISaI4MoveEE37select_on_container_copy_constructionERKS1_
FN:514,_ZNSt16allocator_traitsISaISt13_Rb_tree_nodeISt4pairIKNSt7__cxx1112basic_stringIcSt11char_traitsIcESaIcEEE8PositionEEEE37select_on_container_copy_constructionERKSC_
FNDA:0,_ZNSt16allocator_traitsISaISt13_Rb_tree_nodeISt4pairIKNSt7__cxx1112basic_stringIcSt11char_traitsIcESaIcEEE8PositionEEEE37select_on_container_copy_constructionERKSC_
FN:526,_ZSt18__do_alloc_on_copyISaI8PositionEEvRT_RKS2_St17integral_constantIbLb0EE
FNDA:0,_ZSt18__do_alloc_on_copyISaI8PositionEEvRT_RKS2_St17integral_constantIbLb0EE
FN:526,_ZSt18__do_alloc_on_copyISaI4MoveEEvRT_RKS2_St17integral_constantIbLb0EE
FNDA:0,_ZSt18__do_alloc_on_copyISaI4MoveEEvRT_RKS2_St17integral_constantIbLb0EE
FN:530,_ZSt15__alloc_on_copyISaI4MoveEEvRT_RKS2_
FNDA:0,_ZSt15__alloc_on_copyISaI4MoveEEvRT_RKS2_
FN:530,_ZSt15__alloc_on_copyISaI8PositionEEvRT_RKS2_
FNDA:0,_ZSt15__alloc_on_copyISaI8PositionEEvRT_RKS2_
DA:443,0
DA:444,0
DA:443,0
DA:444,0
DA:443,0
DA:444,0
DA:443,0
DA:444,0
DA:469,0
DA:470,0
DA:469,0
DA:470,0
DA:469,0
DA:470,0
DA:469,0
DA:470,0
DA:469,0
DA:470,0
DA:469,0
DA:470,0
DA:482,0
DA:484,0
DA:482,0
DA:484,0
DA:495,0
DA:497,0
DA:495,0
DA:497,0
DA:514,0
DA:515,0
DA:514,0
DA:515,0
DA:514,0
DA:515,0
DA:514,0
DA:515,0
DA:514,0
DA:515,0
DA:526,0
DA:527,0
DA:526,0
DA:527,0
DA:530,0
DA:534,0
DA:535,0
DA:530,0
DA:534,0
DA:535,0
end_of_record
SF:/home/napiad/studia/eiti/mgr/sem1/zpr/checkers-webapp/checkers/src/Player.h
FN:29,_ZN6PlayerD0Ev
FNDA:0,_ZN6PlayerD0Ev
FN:29,_ZN6PlayerD2Ev
FNDA:0,_ZN6PlayerD2Ev
DA:29,0
DA:29,0
end_of_record
SF:/usr/include/x86_64-linux-gnu/c++/9/bits/gthr-default.h
FN:248,_ZL18__gthread_active_pv
FNDA:0,_ZL18__gthread_active_pv
DA:248,0
DA:252,0
end_of_record
SF:/home/napiad/studia/eiti/mgr/sem1/zpr/checkers-webapp/checkers/src/Move.h
FN:22,_ZN4MoveC2Ev
FNDA:4032,_ZN4MoveC2Ev
DA:22,4032
end_of_record
SF:/home/napiad/studia/eiti/mgr/sem1/zpr/checkers-webapp/checkers/src/Checkers.h
end_of_record
SF:/usr/include/c++/9/bits/stl_pair.h
FN:303,_ZNSt4pairIKNSt7__cxx1112basic_stringIcSt11char_traitsIcESaIcEEE8PositionEC2ERKS8_
FNDA:0,_ZNSt4pairIKNSt7__cxx1112basic_stringIcSt11char_traitsIcESaIcEEE8PositionEC2ERKS8_
DA:303,0
end_of_record
SF:/usr/include/c++/9/bits/stl_map.h
FN:205,_ZNSt3mapI9PieceNamecSt4lessIS0_ESaISt4pairIKS0_cEEEC2ERKS7_
FNDA:0,_ZNSt3mapI9PieceNamecSt4lessIS0_ESaISt4pairIKS0_cEEEC2ERKS7_
FN:205,_ZNSt3mapINSt7__cxx1112basic_stringIcSt11char_traitsIcESaIcEEE8PositionSt4lessIS5_ESaISt4pairIKS5_S6_EEEC2ERKSD_
FNDA:0,_ZNSt3mapINSt7__cxx1112basic_stringIcSt11char_traitsIcESaIcEEE8PositionSt4lessIS5_ESaISt4pairIKS5_S6_EEEC2ERKSD_
FN:300,_ZNSt3mapINSt7__cxx1112basic_stringIcSt11char_traitsIcESaIcEEE8PositionSt4lessIS5_ESaISt4pairIKS5_S6_EEED2Ev
FNDA:0,_ZNSt3mapINSt7__cxx1112basic_stringIcSt11char_traitsIcESaIcEEE8PositionSt4lessIS5_ESaISt4pairIKS5_S6_EEED2Ev
FN:300,_ZNSt3mapI9PieceNamecSt4lessIS0_ESaISt4pairIKS0_cEEED2Ev
FNDA:0,_ZNSt3mapI9PieceNamecSt4lessIS0_ESaISt4pairIKS0_cEEED2Ev
DA:205,0
DA:205,0
DA:300,0
DA:300,0
end_of_record
SF:/home/napiad/studia/eiti/mgr/sem1/zpr/checkers-webapp/checkers/src/UserPlayer.h
end_of_record
SF:/usr/include/c++/9/bits/vector.tcc
FN:198,_ZNSt6vectorI4MoveSaIS0_EEaSERKS2_
FNDA:832,_ZNSt6vectorI4MoveSaIS0_EEaSERKS2_
FN:198,_ZNSt6vectorI8PositionSaIS0_EEaSERKS2_
FNDA:1677,_ZNSt6vectorI8PositionSaIS0_EEaSERKS2_
DA:198,832
DA:201,832
DA:205,832
DA:207,0
DA:208,0
DA:211,0
DA:212,0
DA:213,0
DA:214,0
DA:215,0
DA:216,0
DA:217,0
DA:219,0
DA:223,832
DA:224,832
DA:226,4
DA:228,4
DA:229,4
DA:230,4
DA:231,4
DA:232,4
DA:233,4
DA:234,4
DA:236,828
DA:238,828
DA:239,828
DA:243,0
DA:245,0
DA:246,0
DA:248,0
DA:250,832
DA:252,832
DA:198,1677
DA:201,1677
DA:205,1677
DA:207,0
DA:208,0
DA:211,0
DA:212,0
DA:213,0
DA:214,0
DA:215,0
DA:216,0
DA:217,0
DA:219,0
DA:223,1677
DA:224,1677
DA:226,248
DA:228,248
DA:229,248
DA:230,248
DA:231,248
DA:232,248
DA:233,248
DA:234,248
DA:236,1429
DA:238,1286
DA:239,1286
DA:243,143
DA:245,143
DA:246,143
DA:248,143
DA:250,1677
DA:252,1677
end_of_record
SF:/usr/include/c++/9/bits/stl_iterator_base_funcs.h
FN:98,_ZSt10__distanceIPcENSt15iterator_traitsIT_E15difference_typeES2_S2_St26random_access_iterator_tag
FNDA:0,_ZSt10__distanceIPcENSt15iterator_traitsIT_E15difference_typeES2_S2_St26random_access_iterator_tag
FN:138,_ZSt8distanceIPcENSt15iterator_traitsIT_E15difference_typeES2_S2_
FNDA:0,_ZSt8distanceIPcENSt15iterator_traitsIT_E15difference_typeES2_S2_
DA:98,0
DA:104,0
DA:138,0
DA:141,0
DA:142,0
end_of_record
SF:/usr/include/c++/9/bits/basic_string.tcc
FN:206,_ZNSt7__cxx1112basic_stringIcSt11char_traitsIcESaIcEE12_M_constructIPcEEvT_S7_St20forward_iterator_tag
FNDA:0,_ZNSt7__cxx1112basic_stringIcSt11char_traitsIcESaIcEE12_M_constructIPcEEvT_S7_St20forward_iterator_tag
DA:206,0
DA:211,0
DA:212,0
DA:215,0
DA:217,0
DA:219,0
DA:220,0
DA:225,0
DA:226,0
DA:228,0
DA:229,0
DA:232,0
DA:233,0
end_of_record
SF:/usr/include/c++/9/iostream
end_of_record
SF:/usr/include/c++/9/ext/atomicity.h
FN:48,_ZN9__gnu_cxxL18__exchange_and_addEPVii
FNDA:0,_ZN9__gnu_cxxL18__exchange_and_addEPVii
FN:65,_ZN9__gnu_cxxL25__exchange_and_add_singleEPii
FNDA:0,_ZN9__gnu_cxxL25__exchange_and_add_singleEPii
FN:78,_ZN9__gnu_cxxL27__exchange_and_add_dispatchEPii
FNDA:0,_ZN9__gnu_cxxL27__exchange_and_add_dispatchEPii
DA:48,0
DA:49,0
DA:65,0
DA:67,0
DA:68,0
DA:69,0
DA:78,0
DA:81,0
DA:82,0
DA:84,0
end_of_record
SF:/usr/include/c++/9/bits/basic_string.h
FN:243,_ZNSt7__cxx1112basic_stringIcSt11char_traitsIcESaIcEE16_M_construct_auxIPcEEvT_S7_St12__false_type
FNDA:0,_ZNSt7__cxx1112basic_stringIcSt11char_traitsIcESaIcEE16_M_construct_auxIPcEEvT_S7_St12__false_type
FN:263,_ZNSt7__cxx1112basic_stringIcSt11char_traitsIcESaIcEE12_M_constructIPcEEvT_S7_
FNDA:0,_ZNSt7__cxx1112basic_stringIcSt11char_traitsIcESaIcEE12_M_constructIPcEEvT_S7_
DA:243,0
DA:247,0
DA:248,0
DA:263,0
DA:266,0
DA:267,0
end_of_record
SF:/usr/include/c++/9/ext/aligned_buffer.h
FN:64,_ZN9__gnu_cxx16__aligned_membufISt4pairIKNSt7__cxx1112basic_stringIcSt11char_traitsIcESaIcEEE8PositionEE7_M_addrEv
FNDA:0,_ZN9__gnu_cxx16__aligned_membufISt4pairIKNSt7__cxx1112basic_stringIcSt11char_traitsIcESaIcEEE8PositionEE7_M_addrEv
FN:64,_ZN9__gnu_cxx16__aligned_membufISt4pairIK9PieceNamecEE7_M_addrEv
FNDA:0,_ZN9__gnu_cxx16__aligned_membufISt4pairIK9PieceNamecEE7_M_addrEv
FN:68,_ZNK9__gnu_cxx16__aligned_membufISt4pairIK9PieceNamecEE7_M_addrEv
FNDA:0,_ZNK9__gnu_cxx16__aligned_membufISt4pairIK9PieceNamecEE7_M_addrEv
FN:68,_ZNK9__gnu_cxx16__aligned_membufISt4pairIKNSt7__cxx1112basic_stringIcSt11char_traitsIcESaIcEEE8PositionEE7_M_addrEv
FNDA:0,_ZNK9__gnu_cxx16__aligned_membufISt4pairIKNSt7__cxx1112basic_stringIcSt11char_traitsIcESaIcEEE8PositionEE7_M_addrEv
FN:72,_ZN9__gnu_cxx16__aligned_membufISt4pairIKNSt7__cxx1112basic_stringIcSt11char_traitsIcESaIcEEE8PositionEE6_M_ptrEv
FNDA:0,_ZN9__gnu_cxx16__aligned_membufISt4pairIKNSt7__cxx1112basic_stringIcSt11char_traitsIcESaIcEEE8PositionEE6_M_ptrEv
FN:72,_ZN9__gnu_cxx16__aligned_membufISt4pairIK9PieceNamecEE6_M_ptrEv
FNDA:0,_ZN9__gnu_cxx16__aligned_membufISt4pairIK9PieceNamecEE6_M_ptrEv
FN:76,_ZNK9__gnu_cxx16__aligned_membufISt4pairIK9PieceNamecEE6_M_ptrEv
FNDA:0,_ZNK9__gnu_cxx16__aligned_membufISt4pairIK9PieceNamecEE6_M_ptrEv
FN:76,_ZNK9__gnu_cxx16__aligned_membufISt4pairIKNSt7__cxx1112basic_stringIcSt11char_traitsIcESaIcEEE8PositionEE6_M_ptrEv
FNDA:0,_ZNK9__gnu_cxx16__aligned_membufISt4pairIKNSt7__cxx1112basic_stringIcSt11char_traitsIcESaIcEEE8PositionEE6_M_ptrEv
DA:64,0
DA:65,0
DA:64,0
DA:65,0
DA:68,0
DA:69,0
DA:68,0
DA:69,0
DA:72,0
DA:73,0
DA:72,0
DA:73,0
DA:76,0
DA:77,0
DA:76,0
DA:77,0
end_of_record
SF:/usr/include/c++/9/ext/type_traits.h
FN:152,_ZN9__gnu_cxx17__is_null_pointerIcEEbPT_
FNDA:0,_ZN9__gnu_cxx17__is_null_pointerIcEEbPT_
DA:152,0
DA:153,0
end_of_record
SF:/usr/include/c++/9/bits/stl_uninitialized.h
FN:76,_ZNSt20__uninitialized_copyILb0EE13__uninit_copyIN9__gnu_cxx17__normal_iteratorIPK4MoveSt6vectorIS4_SaIS4_EEEEPS4_EET0_T_SD_SC_
FNDA:0,_ZNSt20__uninitialized_copyILb0EE13__uninit_copyIN9__gnu_cxx17__normal_iteratorIPK4MoveSt6vectorIS4_SaIS4_EEEEPS4_EET0_T_SD_SC_
FN:76,_ZNSt20__uninitialized_copyILb0EE13__uninit_copyIN9__gnu_cxx17__normal_iteratorIPK8PositionSt6vectorIS4_SaIS4_EEEEPS4_EET0_T_SD_SC_
FNDA:0,_ZNSt20__uninitialized_copyILb0EE13__uninit_copyIN9__gnu_cxx17__normal_iteratorIPK8PositionSt6vectorIS4_SaIS4_EEEEPS4_EET0_T_SD_SC_
FN:76,_ZNSt20__uninitialized_copyILb0EE13__uninit_copyIP4MoveS3_EET0_T_S5_S4_
FNDA:0,_ZNSt20__uninitialized_copyILb0EE13__uninit_copyIP4MoveS3_EET0_T_S5_S4_
FN:76,_ZNSt20__uninitialized_copyILb0EE13__uninit_copyIP8PositionS3_EET0_T_S5_S4_
FNDA:143,_ZNSt20__uninitialized_copyILb0EE13__uninit_copyIP8PositionS3_EET0_T_S5_S4_
FN:115,_ZSt18uninitialized_copyIN9__gnu_cxx17__normal_iteratorIPK4MoveSt6vectorIS2_SaIS2_EEEEPS2_ET0_T_SB_SA_
FNDA:0,_ZSt18uninitialized_copyIN9__gnu_cxx17__normal_iteratorIPK4MoveSt6vectorIS2_SaIS2_EEEEPS2_ET0_T_SB_SA_
FN:115,_ZSt18uninitialized_copyIN9__gnu_cxx17__normal_iteratorIPK8PositionSt6vectorIS2_SaIS2_EEEEPS2_ET0_T_SB_SA_
FNDA:0,_ZSt18uninitialized_copyIN9__gnu_cxx17__normal_iteratorIPK8PositionSt6vectorIS2_SaIS2_EEEEPS2_ET0_T_SB_SA_
FN:115,_ZSt18uninitialized_copyIP4MoveS1_ET0_T_S3_S2_
FNDA:0,_ZSt18uninitialized_copyIP4MoveS1_ET0_T_S3_S2_
FN:115,_ZSt18uninitialized_copyIP8PositionS1_ET0_T_S3_S2_
FNDA:143,_ZSt18uninitialized_copyIP8PositionS1_ET0_T_S3_S2_
FN:305,_ZSt22__uninitialized_copy_aIN9__gnu_cxx17__normal_iteratorIPK4MoveSt6vectorIS2_SaIS2_EEEEPS2_S2_ET0_T_SB_SA_RSaIT1_E
FNDA:0,_ZSt22__uninitialized_copy_aIN9__gnu_cxx17__normal_iteratorIPK4MoveSt6vectorIS2_SaIS2_EEEEPS2_S2_ET0_T_SB_SA_RSaIT1_E
FN:305,_ZSt22__uninitialized_copy_aIN9__gnu_cxx17__normal_iteratorIPK8PositionSt6vectorIS2_SaIS2_EEEEPS2_S2_ET0_T_SB_SA_RSaIT1_E
FNDA:0,_ZSt22__uninitialized_copy_aIN9__gnu_cxx17__normal_iteratorIPK8PositionSt6vectorIS2_SaIS2_EEEEPS2_S2_ET0_T_SB_SA_RSaIT1_E
FN:305,_ZSt22__uninitialized_copy_aIP4MoveS1_S0_ET0_T_S3_S2_RSaIT1_E
FNDA:0,_ZSt22__uninitialized_copy_aIP4MoveS1_S0_ET0_T_S3_S2_RSaIT1_E
FN:305,_ZSt22__uninitialized_copy_aIP8PositionS1_S0_ET0_T_S3_S2_RSaIT1_E
FNDA:143,_ZSt22__uninitialized_copy_aIP8PositionS1_S0_ET0_T_S3_S2_RSaIT1_E
DA:76,0
DA:79,0
DA:82,0
DA:83,0
DA:84,0
DA:86,0
DA:88,0
DA:89,0
DA:76,0
DA:79,0
DA:82,0
DA:83,0
DA:84,0
DA:76,0
DA:79,0
DA:82,0
DA:83,0
DA:84,0
DA:86,0
DA:88,0
DA:89,0
DA:76,143
DA:79,143
DA:82,286
DA:83,143
DA:84,143
DA:115,0
DA:134,0
DA:140,0
DA:115,0
DA:134,0
DA:140,0
DA:115,0
DA:134,0
DA:140,0
DA:115,143
DA:134,143
DA:140,143
DA:305,0
DA:307,0
DA:305,0
DA:307,0
DA:305,0
DA:307,0
DA:305,143
DA:307,143
end_of_record
SF:/usr/include/c++/9/ext/new_allocator.h
FN:80,_ZN9__gnu_cxx13new_allocatorIcEC2Ev
FNDA:0,_ZN9__gnu_cxx13new_allocatorIcEC2Ev
FN:80,_ZN9__gnu_cxx13new_allocatorI8PositionEC2Ev
FNDA:23778,_ZN9__gnu_cxx13new_allocatorI8PositionEC2Ev
FN:80,_ZN9__gnu_cxx13new_allocatorI4MoveEC2Ev
FNDA:0,_ZN9__gnu_cxx13new_allocatorI4MoveEC2Ev
FN:83,_ZN9__gnu_cxx13new_allocatorIcEC2ERKS1_
FNDA:0,_ZN9__gnu_cxx13new_allocatorIcEC2ERKS1_
FN:83,_ZN9__gnu_cxx13new_allocatorI8PositionEC2ERKS2_
FNDA:0,_ZN9__gnu_cxx13new_allocatorI8PositionEC2ERKS2_
FN:83,_ZN9__gnu_cxx13new_allocatorI4MoveEC2ERKS2_
FNDA:0,_ZN9__gnu_cxx13new_allocatorI4MoveEC2ERKS2_
FN:83,_ZN9__gnu_cxx13new_allocatorISt13_Rb_tree_nodeISt4pairIKNSt7__cxx1112basic_stringIcSt11char_traitsIcESaIcEEE8PositionEEEC2ERKSD_
FNDA:0,_ZN9__gnu_cxx13new_allocatorISt13_Rb_tree_nodeISt4pairIKNSt7__cxx1112basic_stringIcSt11char_traitsIcESaIcEEE8PositionEEEC2ERKSD_
FN:83,_ZN9__gnu_cxx13new_allocatorISt13_Rb_tree_nodeISt4pairIK9PieceNamecEEEC2ERKS7_
FNDA:0,_ZN9__gnu_cxx13new_allocatorISt13_Rb_tree_nodeISt4pairIK9PieceNamecEEEC2ERKS7_
FN:89,_ZN9__gnu_cxx13new_allocatorI8PositionED2Ev
FNDA:0,_ZN9__gnu_cxx13new_allocatorI8PositionED2Ev
FN:89,_ZN9__gnu_cxx13new_allocatorI4MoveED2Ev
FNDA:0,_ZN9__gnu_cxx13new_allocatorI4MoveED2Ev
FN:89,_ZN9__gnu_cxx13new_allocatorIcED2Ev
FNDA:0,_ZN9__gnu_cxx13new_allocatorIcED2Ev
FN:89,_ZN9__gnu_cxx13new_allocatorISt10shared_ptrI5PieceEED2Ev
FNDA:0,_ZN9__gnu_cxx13new_allocatorISt10shared_ptrI5PieceEED2Ev
FN:89,_ZN9__gnu_cxx13new_allocatorISt13_Rb_tree_nodeISt4pairIK9PieceNamecEEED2Ev
FNDA:0,_ZN9__gnu_cxx13new_allocatorISt13_Rb_tree_nodeISt4pairIK9PieceNamecEEED2Ev
FN:89,_ZN9__gnu_cxx13new_allocatorISt13_Rb_tree_nodeISt4pairIKNSt7__cxx1112basic_stringIcSt11char_traitsIcESaIcEEE8PositionEEED2Ev
FNDA:0,_ZN9__gnu_cxx13new_allocatorISt13_Rb_tree_nodeISt4pairIKNSt7__cxx1112basic_stringIcSt11char_traitsIcESaIcEEE8PositionEEED2Ev
FN:89,_ZN9__gnu_cxx13new_allocatorISt6vectorI4MoveSaIS2_EEED2Ev
FNDA:0,_ZN9__gnu_cxx13new_allocatorISt6vectorI4MoveSaIS2_EEED2Ev
FN:102,_ZN9__gnu_cxx13new_allocatorI4MoveE8allocateEmPKv
FNDA:0,_ZN9__gnu_cxx13new_allocatorI4MoveE8allocateEmPKv
FN:102,_ZN9__gnu_cxx13new_allocatorISt13_Rb_tree_nodeISt4pairIKNSt7__cxx1112basic_stringIcSt11char_traitsIcESaIcEEE8PositionEEE8allocateEmPKv
FNDA:0,_ZN9__gnu_cxx13new_allocatorISt13_Rb_tree_nodeISt4pairIKNSt7__cxx1112basic_stringIcSt11char_traitsIcESaIcEEE8PositionEEE8allocateEmPKv
FN:102,_ZN9__gnu_cxx13new_allocatorISt13_Rb_tree_nodeISt4pairIK9PieceNamecEEE8allocateEmPKv
FNDA:0,_ZN9__gnu_cxx13new_allocatorISt13_Rb_tree_nodeISt4pairIK9PieceNamecEEE8allocateEmPKv
FN:102,_ZN9__gnu_cxx13new_allocatorI8PositionE8allocateEmPKv
FNDA:0,_ZN9__gnu_cxx13new_allocatorI8PositionE8allocateEmPKv
FN:119,_ZN9__gnu_cxx13new_allocatorISt13_Rb_tree_nodeISt4pairIKNSt7__cxx1112basic_stringIcSt11char_traitsIcESaIcEEE8PositionEEE10deallocateEPSC_m
FNDA:0,_ZN9__gnu_cxx13new_allocatorISt13_Rb_tree_nodeISt4pairIKNSt7__cxx1112basic_stringIcSt11char_traitsIcESaIcEEE8PositionEEE10deallocateEPSC_m
FN:119,_ZN9__gnu_cxx13new_allocatorISt13_Rb_tree_nodeISt4pairIK9PieceNamecEEE10deallocateEPS6_m
FNDA:0,_ZN9__gnu_cxx13new_allocatorISt13_Rb_tree_nodeISt4pairIK9PieceNamecEEE10deallocateEPS6_m
FN:119,_ZN9__gnu_cxx13new_allocatorI8PositionE10deallocateEPS1_m
FNDA:0,_ZN9__gnu_cxx13new_allocatorI8PositionE10deallocateEPS1_m
FN:119,_ZN9__gnu_cxx13new_allocatorI4MoveE10deallocateEPS1_m
FNDA:0,_ZN9__gnu_cxx13new_allocatorI4MoveE10deallocateEPS1_m
FN:119,_ZN9__gnu_cxx13new_allocatorISt10shared_ptrI5PieceEE10deallocateEPS3_m
FNDA:0,_ZN9__gnu_cxx13new_allocatorISt10shared_ptrI5PieceEE10deallocateEPS3_m
FN:119,_ZN9__gnu_cxx13new_allocatorISt6vectorI4MoveSaIS2_EEE10deallocateEPS4_m
FNDA:0,_ZN9__gnu_cxx13new_allocatorISt6vectorI4MoveSaIS2_EEE10deallocateEPS4_m
FN:132,_ZNK9__gnu_cxx13new_allocatorI8PositionE8max_sizeEv
FNDA:0,_ZNK9__gnu_cxx13new_allocatorI8PositionE8max_sizeEv
FN:132,_ZNK9__gnu_cxx13new_allocatorI4MoveE8max_sizeEv
FNDA:0,_ZNK9__gnu_cxx13new_allocatorI4MoveE8max_sizeEv
FN:132,_ZNK9__gnu_cxx13new_allocatorISt13_Rb_tree_nodeISt4pairIK9PieceNamecEEE8max_sizeEv
FNDA:0,_ZNK9__gnu_cxx13new_allocatorISt13_Rb_tree_nodeISt4pairIK9PieceNamecEEE8max_sizeEv
FN:132,_ZNK9__gnu_cxx13new_allocatorISt13_Rb_tree_nodeISt4pairIKNSt7__cxx1112basic_stringIcSt11char_traitsIcESaIcEEE8PositionEEE8max_sizeEv
FNDA:0,_ZNK9__gnu_cxx13new_allocatorISt13_Rb_tree_nodeISt4pairIKNSt7__cxx1112basic_stringIcSt11char_traitsIcESaIcEEE8PositionEEE8max_sizeEv
FN:144,_ZN9__gnu_cxx13new_allocatorISt13_Rb_tree_nodeISt4pairIK9PieceNamecEEE9constructIS5_JRKS5_EEEvPT_DpOT0_
FNDA:0,_ZN9__gnu_cxx13new_allocatorISt13_Rb_tree_nodeISt4pairIK9PieceNamecEEE9constructIS5_JRKS5_EEEvPT_DpOT0_
FN:144,_ZN9__gnu_cxx13new_allocatorISt13_Rb_tree_nodeISt4pairIKNSt7__cxx1112basic_stringIcSt11char_traitsIcESaIcEEE8PositionEEE9constructISB_JRKSB_EEEvPT_DpOT0_
FNDA:0,_ZN9__gnu_cxx13new_allocatorISt13_Rb_tree_nodeISt4pairIKNSt7__cxx1112basic_stringIcSt11char_traitsIcESaIcEEE8PositionEEE9constructISB_JRKSB_EEEvPT_DpOT0_
FN:151,_ZN9__gnu_cxx13new_allocatorISt13_Rb_tree_nodeISt4pairIK9PieceNamecEEE7destroyIS5_EEvPT_
FNDA:0,_ZN9__gnu_cxx13new_allocatorISt13_Rb_tree_nodeISt4pairIK9PieceNamecEEE7destroyIS5_EEvPT_
FN:151,_ZN9__gnu_cxx13new_allocatorISt13_Rb_tree_nodeISt4pairIKNSt7__cxx1112basic_stringIcSt11char_traitsIcESaIcEEE8PositionEEE7destroyISB_EEvPT_
FNDA:0,_ZN9__gnu_cxx13new_allocatorISt13_Rb_tree_nodeISt4pairIKNSt7__cxx1112basic_stringIcSt11char_traitsIcESaIcEEE8PositionEEE7destroyISB_EEvPT_
DA:80,0
DA:80,23778
DA:80,0
DA:83,0
DA:83,0
DA:83,0
DA:83,0
DA:83,0
DA:89,0
DA:89,0
DA:89,0
DA:89,0
DA:89,0
DA:89,0
DA:89,0
DA:102,0
DA:104,0
DA:105,0
DA:114,0
DA:102,0
DA:104,0
DA:105,0
DA:114,0
DA:102,0
DA:104,0
DA:105,0
DA:114,0
DA:102,0
DA:104,0
DA:105,0
DA:114,0
DA:119,0
DA:128,0
DA:129,0
DA:119,0
DA:128,0
DA:129,0
DA:119,0
DA:128,0
DA:129,0
DA:119,0
DA:128,0
DA:129,0
DA:119,0
DA:128,0
DA:129,0
DA:119,0
DA:128,0
DA:129,0
DA:132,0
DA:135,0
DA:132,0
DA:135,0
DA:132,0
DA:135,0
DA:132,0
DA:135,0
DA:144,0
DA:147,0
DA:144,0
DA:147,0
DA:151,0
DA:153,0
DA:151,0
DA:153,0
end_of_record
SF:/usr/include/c++/9/bits/cpp_type_traits.h
FN:428,_ZSt12__miter_baseIP4MoveET_S2_
FNDA:0,_ZSt12__miter_baseIP4MoveET_S2_
FN:428,_ZSt12__miter_baseIN9__gnu_cxx17__normal_iteratorIPK4MoveSt6vectorIS2_SaIS2_EEEEET_S9_
FNDA:1656,_ZSt12__miter_baseIN9__gnu_cxx17__normal_iteratorIPK4MoveSt6vectorIS2_SaIS2_EEEEET_S9_
FN:428,_ZSt12__miter_baseIP8PositionET_S2_
FNDA:286,_ZSt12__miter_baseIP8PositionET_S2_
FN:428,_ZSt12__miter_baseIN9__gnu_cxx17__normal_iteratorIPK8PositionSt6vectorIS2_SaIS2_EEEEET_S9_
FNDA:2572,_ZSt12__miter_baseIN9__gnu_cxx17__normal_iteratorIPK8PositionSt6vectorIS2_SaIS2_EEEEET_S9_
DA:428,0
DA:429,0
DA:428,1656
DA:429,1656
DA:428,286
DA:429,286
DA:428,2572
DA:429,2572
end_of_record
SF:/usr/include/c++/9/bits/stl_algobase.h
FN:280,_ZSt12__niter_baseIP8PositionET_S2_
FNDA:3621,_ZSt12__niter_baseIP8PositionET_S2_
FN:280,_ZSt12__niter_baseIP4MoveET_S2_
FNDA:26748,_ZSt12__niter_baseIP4MoveET_S2_
FN:289,_ZSt12__niter_wrapIN9__gnu_cxx17__normal_iteratorIP8PositionSt6vectorIS2_SaIS2_EEEES3_ET_S8_T0_
FNDA:1286,_ZSt12__niter_wrapIN9__gnu_cxx17__normal_iteratorIP8PositionSt6vectorIS2_SaIS2_EEEES3_ET_S8_T0_
FN:289,_ZSt12__niter_wrapIN9__gnu_cxx17__normal_iteratorIP4MoveSt6vectorIS2_SaIS2_EEEES3_ET_S8_T0_
FNDA:828,_ZSt12__niter_wrapIN9__gnu_cxx17__normal_iteratorIP4MoveSt6vectorIS2_SaIS2_EEEES3_ET_S8_T0_
FN:295,_ZSt12__niter_wrapIP4MoveET_RKS2_S2_
FNDA:0,_ZSt12__niter_wrapIP4MoveET_RKS2_S2_
FN:295,_ZSt12__niter_wrapIP8PositionET_RKS2_S2_
FNDA:143,_ZSt12__niter_wrapIP8PositionET_RKS2_S2_
FN:337,_ZNSt11__copy_moveILb0ELb0ESt26random_access_iterator_tagE8__copy_mIPK4MovePS3_EET0_T_S8_S7_
FNDA:828,_ZNSt11__copy_moveILb0ELb0ESt26random_access_iterator_tagE8__copy_mIPK4MovePS3_EET0_T_S8_S7_
FN:337,_ZNSt11__copy_moveILb0ELb0ESt26random_access_iterator_tagE8__copy_mIP4MoveS4_EET0_T_S6_S5_
FNDA:0,_ZNSt11__copy_moveILb0ELb0ESt26random_access_iterator_tagE8__copy_mIP4MoveS4_EET0_T_S6_S5_
FN:375,_ZNSt11__copy_moveILb0ELb1ESt26random_access_iterator_tagE8__copy_mI8PositionEEPT_PKS4_S7_S5_
FNDA:1429,_ZNSt11__copy_moveILb0ELb1ESt26random_access_iterator_tagE8__copy_mI8PositionEEPT_PKS4_S7_S5_
FN:393,_ZSt13__copy_move_aILb0EPK4MovePS0_ET1_T0_S5_S4_
FNDA:828,_ZSt13__copy_move_aILb0EPK4MovePS0_ET1_T0_S5_S4_
FN:393,_ZSt13__copy_move_aILb0EP4MoveS1_ET1_T0_S3_S2_
FNDA:0,_ZSt13__copy_move_aILb0EP4MoveS1_ET1_T0_S3_S2_
FN:393,_ZSt13__copy_move_aILb0EP8PositionS1_ET1_T0_S3_S2_
FNDA:143,_ZSt13__copy_move_aILb0EP8PositionS1_ET1_T0_S3_S2_
FN:393,_ZSt13__copy_move_aILb0EPK8PositionPS0_ET1_T0_S5_S4_
FNDA:1286,_ZSt13__copy_move_aILb0EPK8PositionPS0_ET1_T0_S5_S4_
FN:438,_ZSt14__copy_move_a2ILb0EP4MoveS1_ET1_T0_S3_S2_
FNDA:0,_ZSt14__copy_move_a2ILb0EP4MoveS1_ET1_T0_S3_S2_
FN:438,_ZSt14__copy_move_a2ILb0EN9__gnu_cxx17__normal_iteratorIPK4MoveSt6vectorIS2_SaIS2_EEEENS1_IPS2_S7_EEET1_T0_SC_SB_
FNDA:828,_ZSt14__copy_move_a2ILb0EN9__gnu_cxx17__normal_iteratorIPK4MoveSt6vectorIS2_SaIS2_EEEENS1_IPS2_S7_EEET1_T0_SC_SB_
FN:438,_ZSt14__copy_move_a2ILb0EP8PositionS1_ET1_T0_S3_S2_
FNDA:143,_ZSt14__copy_move_a2ILb0EP8PositionS1_ET1_T0_S3_S2_
FN:438,_ZSt14__copy_move_a2ILb0EN9__gnu_cxx17__normal_iteratorIPK8PositionSt6vectorIS2_SaIS2_EEEENS1_IPS2_S7_EEET1_T0_SC_SB_
FNDA:1286,_ZSt14__copy_move_a2ILb0EN9__gnu_cxx17__normal_iteratorIPK8PositionSt6vectorIS2_SaIS2_EEEENS1_IPS2_S7_EEET1_T0_SC_SB_
FN:465,_ZSt4copyIP4MoveS1_ET0_T_S3_S2_
FNDA:0,_ZSt4copyIP4MoveS1_ET0_T_S3_S2_
FN:465,_ZSt4copyIN9__gnu_cxx17__normal_iteratorIPK4MoveSt6vectorIS2_SaIS2_EEEENS1_IPS2_S7_EEET0_T_SC_SB_
FNDA:828,_ZSt4copyIN9__gnu_cxx17__normal_iteratorIPK4MoveSt6vectorIS2_SaIS2_EEEENS1_IPS2_S7_EEET0_T_SC_SB_
FN:465,_ZSt4copyIP8PositionS1_ET0_T_S3_S2_
FNDA:143,_ZSt4copyIP8PositionS1_ET0_T_S3_S2_
FN:465,_ZSt4copyIN9__gnu_cxx17__normal_iteratorIPK8PositionSt6vectorIS2_SaIS2_EEEENS1_IPS2_S7_EEET0_T_SC_SB_
FNDA:1286,_ZSt4copyIN9__gnu_cxx17__normal_iteratorIPK8PositionSt6vectorIS2_SaIS2_EEEENS1_IPS2_S7_EEET0_T_SC_SB_
DA:280,26748
DA:282,26748
DA:280,3621
DA:282,3621
DA:289,828
DA:290,828
DA:289,1286
DA:290,1286
DA:295,0
DA:296,0
DA:295,143
DA:296,143
DA:337,0
DA:340,0
DA:342,0
DA:343,0
DA:344,0
DA:346,0
DA:337,828
DA:340,838
DA:342,10
DA:343,10
DA:344,10
DA:346,828
DA:375,1429
DA:384,1429
DA:385,1429
DA:386,70
DA:387,1429
DA:393,0
DA:398,0
DA:404,0
DA:393,828
DA:398,828
DA:404,828
DA:393,143
DA:398,143
DA:404,143
DA:393,1286
DA:398,1286
DA:404,1286
DA:438,0
DA:440,0
DA:443,0
DA:438,828
DA:440,828
DA:443,828
DA:438,143
DA:440,143
DA:443,143
DA:438,1286
DA:440,1286
DA:443,1286
DA:465,0
DA:474,0
DA:465,828
DA:474,828
DA:465,143
DA:474,143
DA:465,1286
DA:474,1286
end_of_record
SF:/usr/include/c++/9/bits/shared_ptr_base.h
FN:148,_ZNSt16_Sp_counted_baseILN9__gnu_cxx12_Lock_policyE2EE10_M_releaseEv
FNDA:0,_ZNSt16_Sp_counted_baseILN9__gnu_cxx12_Lock_policyE2EE10_M_releaseEv
FN:727,_ZNSt14__shared_countILN9__gnu_cxx12_Lock_policyE2EED2Ev
FNDA:0,_ZNSt14__shared_countILN9__gnu_cxx12_Lock_policyE2EED2Ev
FN:1169,_ZNSt12__shared_ptrI5PieceLN9__gnu_cxx12_Lock_policyE2EED2Ev
FNDA:0,_ZNSt12__shared_ptrI5PieceLN9__gnu_cxx12_Lock_policyE2EED2Ev
DA:148,0
DA:152,0
DA:155,0
DA:167,0
DA:168,0
DA:171,0
DA:174,0
DA:727,0
DA:729,0
DA:730,0
DA:731,0
DA:1169,0
end_of_record
SF:/usr/include/c++/9/bits/stl_iterator_base_types.h
FN:205,_ZSt19__iterator_categoryIPcENSt15iterator_traitsIT_E17iterator_categoryERKS2_
FNDA:0,_ZSt19__iterator_categoryIPcENSt15iterator_traitsIT_E17iterator_categoryERKS2_
DA:205,0
DA:206,0
end_of_record
SF:/usr/include/c++/9/new
FN:173,_ZnwmPv
FNDA:0,_ZnwmPv
FN:179,_ZdlPvS_
FNDA:0,_ZdlPvS_
DA:173,0
DA:174,0
DA:179,0
end_of_record
SF:/home/napiad/studia/eiti/mgr/sem1/zpr/checkers-webapp/checkers/src/Board.h
end_of_record
TN:
SF:/usr/include/c++/9/tuple
FN:125,_ZNSt10_Head_baseILm0ERK9PieceNameLb0EEC2ES2_
FNDA:0,_ZNSt10_Head_baseILm0ERK9PieceNameLb0EEC2ES2_
FN:160,_ZNSt10_Head_baseILm0ERK9PieceNameLb0EE7_M_headERS3_
FNDA:0,_ZNSt10_Head_baseILm0ERK9PieceNameLb0EE7_M_headERS3_
FN:334,_ZNSt11_Tuple_implILm0EJRK9PieceNameEE7_M_headERS3_
FNDA:0,_ZNSt11_Tuple_implILm0EJRK9PieceNameEE7_M_headERS3_
FN:343,_ZNSt11_Tuple_implILm0EJRK9PieceNameEEC2ES2_
FNDA:0,_ZNSt11_Tuple_implILm0EJRK9PieceNameEEC2ES2_
FN:358,_ZNSt11_Tuple_implILm0EJRK9PieceNameEEC2EOS3_
FNDA:0,_ZNSt11_Tuple_implILm0EJRK9PieceNameEEC2EOS3_
FN:588,_ZNSt5tupleIJRK9PieceNameEEC2IvLb1EEES2_
FNDA:0,_ZNSt5tupleIJRK9PieceNameEEC2IvLb1EEES2_
FN:642,_ZNSt5tupleIJRK9PieceNameEEC2EOS3_
FNDA:0,_ZNSt5tupleIJRK9PieceNameEEC2EOS3_
FN:1309,_ZSt12__get_helperILm0ERK9PieceNameJEERT0_RSt11_Tuple_implIXT_EJS3_DpT1_EE
FNDA:0,_ZSt12__get_helperILm0ERK9PieceNameJEERT0_RSt11_Tuple_implIXT_EJS3_DpT1_EE
FN:1320,_ZSt3getILm0EJRK9PieceNameEERNSt13tuple_elementIXT_ESt5tupleIJDpT0_EEE4typeERS7_
FNDA:0,_ZSt3getILm0EJRK9PieceNameEERNSt13tuple_elementIXT_ESt5tupleIJDpT0_EEE4typeERS7_
FN:1658,_ZNSt4pairIK9PieceNamecEC2IJRS1_EJEEESt21piecewise_construct_tSt5tupleIJDpT_EES6_IJDpT0_EE
FNDA:0,_ZNSt4pairIK9PieceNamecEC2IJRS1_EJEEESt21piecewise_construct_tSt5tupleIJDpT_EES6_IJDpT0_EE
FN:1670,_ZNSt4pairIK9PieceNamecEC2IJRS1_EJLm0EEJEJEEERSt5tupleIJDpT_EERS5_IJDpT1_EESt12_Index_tupleIJXspT0_EEESE_IJXspT2_EEE
FNDA:0,_ZNSt4pairIK9PieceNamecEC2IJRS1_EJLm0EEJEJEEERSt5tupleIJDpT_EERS5_IJDpT1_EESt12_Index_tupleIJXspT0_EEESE_IJXspT2_EEE
DA:125,0
DA:126,0
DA:160,0
DA:334,0
DA:343,0
DA:344,0
DA:358,0
DA:360,0
DA:588,0
DA:589,0
DA:642,0
DA:1309,0
DA:1310,0
DA:1320,0
DA:1321,0
DA:1658,0
DA:1663,0
DA:1664,0
DA:1670,0
DA:1673,0
DA:1674,0
DA:1675,0
end_of_record
SF:/usr/include/c++/9/bits/char_traits.h
FN:329,_ZNSt11char_traitsIcE6lengthEPKc
FNDA:0,_ZNSt11char_traitsIcE6lengthEPKc
FN:361,_ZNSt11char_traitsIcE4copyEPcPKcm
FNDA:0,_ZNSt11char_traitsIcE4copyEPcPKcm
DA:329,0
DA:335,0
DA:361,0
DA:363,0
DA:364,0
DA:365,0
end_of_record
SF:/usr/include/c++/9/initializer_list
FN:71,_ZNKSt16initializer_listISt4pairIK9PieceNamecEE4sizeEv
FNDA:81,_ZNKSt16initializer_listISt4pairIK9PieceNamecEE4sizeEv
FN:75,_ZNKSt16initializer_listISt4pairIK9PieceNamecEE5beginEv
FNDA:162,_ZNKSt16initializer_listISt4pairIK9PieceNamecEE5beginEv
FN:79,_ZNKSt16initializer_listISt4pairIK9PieceNamecEE3endEv
FNDA:81,_ZNKSt16initializer_listISt4pairIK9PieceNamecEE3endEv
DA:71,81
DA:75,162
DA:79,81
end_of_record
SF:/usr/include/c++/9/ext/type_traits.h
FN:152,_ZN9__gnu_cxx17__is_null_pointerIcEEbPT_
FNDA:809710,_ZN9__gnu_cxx17__is_null_pointerIcEEbPT_
FN:152,_ZN9__gnu_cxx17__is_null_pointerIKcEEbPT_
FNDA:0,_ZN9__gnu_cxx17__is_null_pointerIKcEEbPT_
DA:152,809710
DA:153,809710
DA:152,0
DA:153,0
end_of_record
SF:/usr/include/c++/9/bits/predefined_ops.h
FN:276,_ZN9__gnu_cxx5__ops10_Iter_predIZN5BoardC4ENSt7__cxx1112basic_stringIcSt11char_traitsIcESaIcEEEEUlRKSt4pairI9PieceNamecEE_EC2ESE_
FNDA:33,_ZN9__gnu_cxx5__ops10_Iter_predIZN5BoardC4ENSt7__cxx1112basic_stringIcSt11char_traitsIcESaIcEEEEUlRKSt4pairI9PieceNamecEE_EC2ESE_
FN:282,_ZN9__gnu_cxx5__ops10_Iter_predIZN5BoardC4ENSt7__cxx1112basic_stringIcSt11char_traitsIcESaIcEEEEUlRKSt4pairI9PieceNamecEE_EclISt23_Rb_tree_const_iteratorIS9_IKSA_cEEEEbT_
FNDA:125,_ZN9__gnu_cxx5__ops10_Iter_predIZN5BoardC4ENSt7__cxx1112basic_stringIcSt11char_traitsIcESaIcEEEEUlRKSt4pairI9PieceNamecEE_EclISt23_Rb_tree_const_iteratorIS9_IKSA_cEEEEbT_
FN:288,_ZN9__gnu_cxx5__ops11__pred_iterIZN5BoardC4ENSt7__cxx1112basic_stringIcSt11char_traitsIcESaIcEEEEUlRKSt4pairI9PieceNamecEE_EENS0_10_Iter_predIT_EESG_
FNDA:33,_ZN9__gnu_cxx5__ops11__pred_iterIZN5BoardC4ENSt7__cxx1112basic_stringIcSt11char_traitsIcESaIcEEEEUlRKSt4pairI9PieceNamecEE_EENS0_10_Iter_predIT_EESG_
DA:276,33
DA:277,33
DA:278,33
DA:282,125
DA:283,125
DA:288,33
DA:289,33
end_of_record
SF:/usr/include/c++/9/ext/aligned_buffer.h
FN:64,_ZN9__gnu_cxx16__aligned_membufISt4pairIKNSt7__cxx1112basic_stringIcSt11char_traitsIcESaIcEEE8PositionEE7_M_addrEv
FNDA:0,_ZN9__gnu_cxx16__aligned_membufISt4pairIKNSt7__cxx1112basic_stringIcSt11char_traitsIcESaIcEEE8PositionEE7_M_addrEv
FN:64,_ZN9__gnu_cxx16__aligned_membufISt4pairIK9PieceNamecEE7_M_addrEv
FNDA:0,_ZN9__gnu_cxx16__aligned_membufISt4pairIK9PieceNamecEE7_M_addrEv
FN:68,_ZNK9__gnu_cxx16__aligned_membufISt4pairIKNSt7__cxx1112basic_stringIcSt11char_traitsIcESaIcEEE8PositionEE7_M_addrEv
FNDA:0,_ZNK9__gnu_cxx16__aligned_membufISt4pairIKNSt7__cxx1112basic_stringIcSt11char_traitsIcESaIcEEE8PositionEE7_M_addrEv
FN:68,_ZNK9__gnu_cxx16__aligned_membufISt4pairIK9PieceNamecEE7_M_addrEv
FNDA:0,_ZNK9__gnu_cxx16__aligned_membufISt4pairIK9PieceNamecEE7_M_addrEv
FN:72,_ZN9__gnu_cxx16__aligned_membufISt4pairIKNSt7__cxx1112basic_stringIcSt11char_traitsIcESaIcEEE8PositionEE6_M_ptrEv
FNDA:0,_ZN9__gnu_cxx16__aligned_membufISt4pairIKNSt7__cxx1112basic_stringIcSt11char_traitsIcESaIcEEE8PositionEE6_M_ptrEv
FN:72,_ZN9__gnu_cxx16__aligned_membufISt4pairIK9PieceNamecEE6_M_ptrEv
FNDA:0,_ZN9__gnu_cxx16__aligned_membufISt4pairIK9PieceNamecEE6_M_ptrEv
FN:76,_ZNK9__gnu_cxx16__aligned_membufISt4pairIKNSt7__cxx1112basic_stringIcSt11char_traitsIcESaIcEEE8PositionEE6_M_ptrEv
FNDA:0,_ZNK9__gnu_cxx16__aligned_membufISt4pairIKNSt7__cxx1112basic_stringIcSt11char_traitsIcESaIcEEE8PositionEE6_M_ptrEv
FN:76,_ZNK9__gnu_cxx16__aligned_membufISt4pairIK9PieceNamecEE6_M_ptrEv
FNDA:0,_ZNK9__gnu_cxx16__aligned_membufISt4pairIK9PieceNamecEE6_M_ptrEv
DA:64,0
DA:65,0
DA:64,0
DA:65,0
DA:68,0
DA:69,0
DA:68,0
DA:69,0
DA:72,0
DA:73,0
DA:72,0
DA:73,0
DA:76,0
DA:77,0
DA:76,0
DA:77,0
end_of_record
SF:/usr/include/c++/9/bits/basic_string.h
FN:243,_ZNSt7__cxx1112basic_stringIcSt11char_traitsIcESaIcEE16_M_construct_auxIPcEEvT_S7_St12__false_type
FNDA:687,_ZNSt7__cxx1112basic_stringIcSt11char_traitsIcESaIcEE16_M_construct_auxIPcEEvT_S7_St12__false_type
FN:243,_ZNSt7__cxx1112basic_stringIcSt11char_traitsIcESaIcEE16_M_construct_auxIPKcEEvT_S8_St12__false_type
FNDA:0,_ZNSt7__cxx1112basic_stringIcSt11char_traitsIcESaIcEE16_M_construct_auxIPKcEEvT_S8_St12__false_type
FN:263,_ZNSt7__cxx1112basic_stringIcSt11char_traitsIcESaIcEE12_M_constructIPcEEvT_S7_
FNDA:687,_ZNSt7__cxx1112basic_stringIcSt11char_traitsIcESaIcEE12_M_constructIPcEEvT_S7_
FN:263,_ZNSt7__cxx1112basic_stringIcSt11char_traitsIcESaIcEE12_M_constructIPKcEEvT_S8_
FNDA:0,_ZNSt7__cxx1112basic_stringIcSt11char_traitsIcESaIcEE12_M_constructIPKcEEvT_S8_
FN:625,_ZNSt7__cxx1112basic_stringIcSt11char_traitsIcESaIcEEC2IPcvEET_S7_RKS3_
FNDA:687,_ZNSt7__cxx1112basic_stringIcSt11char_traitsIcESaIcEEC2IPcvEET_S7_RKS3_
FN:6073,_ZStplIcSt11char_traitsIcESaIcEENSt7__cxx1112basic_stringIT_T0_T1_EERKS8_S5_
FNDA:10,_ZStplIcSt11char_traitsIcESaIcEENSt7__cxx1112basic_stringIT_T0_T1_EERKS8_S5_
FN:6097,_ZStplIcSt11char_traitsIcESaIcEENSt7__cxx1112basic_stringIT_T0_T1_EEOS8_S9_
FNDA:896,_ZStplIcSt11char_traitsIcESaIcEENSt7__cxx1112basic_stringIT_T0_T1_EEOS8_S9_
FN:6226,_ZStltIcSt11char_traitsIcESaIcEEbRKNSt7__cxx1112basic_stringIT_T0_T1_EESA_
FNDA:8301,_ZStltIcSt11char_traitsIcESaIcEEbRKNSt7__cxx1112basic_stringIT_T0_T1_EESA_
FN:6503,_ZNSt7__cxx114stoiERKNS_12basic_stringIcSt11char_traitsIcESaIcEEEPmi
FNDA:110,_ZNSt7__cxx114stoiERKNS_12basic_stringIcSt11char_traitsIcESaIcEEEPmi
FN:6562,_ZNSt7__cxx119to_stringEm
FNDA:687,_ZNSt7__cxx119to_stringEm
DA:243,687
DA:247,687
DA:248,687
DA:243,0
DA:247,0
DA:248,0
DA:263,687
DA:266,687
DA:267,687
DA:263,0
DA:266,0
DA:267,0
DA:625,687
DA:627,687
DA:628,687
DA:6073,10
DA:6077,10
DA:6078,10
DA:6079,10
DA:6097,896
DA:6100,896
DA:6101,896
DA:6102,896
DA:6103,0
DA:6104,896
DA:6226,8301
DA:6229,8301
DA:6503,110
DA:6504,110
DA:6505,110
DA:6562,687
DA:6565,687
end_of_record
SF:/usr/include/c++/9/bits/stl_algobase.h
FN:123,_ZSt9iter_swapIP9PieceNameS1_EvT_T0_
FNDA:156288,_ZSt9iter_swapIP9PieceNameS1_EvT_T0_
FN:123,_ZSt9iter_swapIPSt5arrayI9PieceNameLm8EES3_EvT_T0_
FNDA:19536,_ZSt9iter_swapIPSt5arrayI9PieceNameLm8EES3_EvT_T0_
FN:169,_ZSt11swap_rangesIP9PieceNameS1_ET0_T_S3_S2_
FNDA:19536,_ZSt11swap_rangesIP9PieceNameS1_ET0_T_S3_S2_
FN:169,_ZSt11swap_rangesIPSt5arrayI9PieceNameLm8EES3_ET0_T_S5_S4_
FNDA:2442,_ZSt11swap_rangesIPSt5arrayI9PieceNameLm8EES3_ET0_T_S5_S4_
DA:123,156288
DA:151,156288
DA:153,156288
DA:123,19536
DA:151,19536
DA:153,19536
DA:169,175824
DA:179,175824
DA:180,156288
DA:181,19536
DA:169,21978
DA:179,21978
DA:180,19536
DA:181,2442
end_of_record
SF:/usr/include/c++/9/ext/new_allocator.h
FN:80,_ZN9__gnu_cxx13new_allocatorIcEC2Ev
FNDA:0,_ZN9__gnu_cxx13new_allocatorIcEC2Ev
FN:80,_ZN9__gnu_cxx13new_allocatorISt4pairIK9PieceNamecEEC2Ev
FNDA:81,_ZN9__gnu_cxx13new_allocatorISt4pairIK9PieceNamecEEC2Ev
FN:80,_ZN9__gnu_cxx13new_allocatorISt13_Rb_tree_nodeISt4pairIKNSt7__cxx1112basic_stringIcSt11char_traitsIcESaIcEEE8PositionEEEC2Ev
FNDA:24,_ZN9__gnu_cxx13new_allocatorISt13_Rb_tree_nodeISt4pairIKNSt7__cxx1112basic_stringIcSt11char_traitsIcESaIcEEE8PositionEEEC2Ev
FN:80,_ZN9__gnu_cxx13new_allocatorISt13_Rb_tree_nodeISt4pairIK9PieceNamecEEEC2Ev
FNDA:81,_ZN9__gnu_cxx13new_allocatorISt13_Rb_tree_nodeISt4pairIK9PieceNamecEEEC2Ev
FN:80,_ZN9__gnu_cxx13new_allocatorI8PositionEC2Ev
FNDA:0,_ZN9__gnu_cxx13new_allocatorI8PositionEC2Ev
FN:80,_ZN9__gnu_cxx13new_allocatorI4MoveEC2Ev
FNDA:0,_ZN9__gnu_cxx13new_allocatorI4MoveEC2Ev
FN:83,_ZN9__gnu_cxx13new_allocatorI4MoveEC2ERKS2_
FNDA:0,_ZN9__gnu_cxx13new_allocatorI4MoveEC2ERKS2_
FN:83,_ZN9__gnu_cxx13new_allocatorIcEC2ERKS1_
FNDA:0,_ZN9__gnu_cxx13new_allocatorIcEC2ERKS1_
FN:83,_ZN9__gnu_cxx13new_allocatorI8PositionEC2ERKS2_
FNDA:0,_ZN9__gnu_cxx13new_allocatorI8PositionEC2ERKS2_
FN:83,_ZN9__gnu_cxx13new_allocatorISt13_Rb_tree_nodeISt4pairIK9PieceNamecEEEC2ERKS7_
FNDA:0,_ZN9__gnu_cxx13new_allocatorISt13_Rb_tree_nodeISt4pairIK9PieceNamecEEEC2ERKS7_
FN:83,_ZN9__gnu_cxx13new_allocatorISt4pairIK9PieceNamecEEC2ERKS5_
FNDA:81,_ZN9__gnu_cxx13new_allocatorISt4pairIK9PieceNamecEEC2ERKS5_
FN:89,_ZN9__gnu_cxx13new_allocatorISt13_Rb_tree_nodeISt4pairIK9PieceNamecEEED2Ev
FNDA:0,_ZN9__gnu_cxx13new_allocatorISt13_Rb_tree_nodeISt4pairIK9PieceNamecEEED2Ev
FN:89,_ZN9__gnu_cxx13new_allocatorISt13_Rb_tree_nodeISt4pairIKNSt7__cxx1112basic_stringIcSt11char_traitsIcESaIcEEE8PositionEEED2Ev
FNDA:0,_ZN9__gnu_cxx13new_allocatorISt13_Rb_tree_nodeISt4pairIKNSt7__cxx1112basic_stringIcSt11char_traitsIcESaIcEEE8PositionEEED2Ev
FN:89,_ZN9__gnu_cxx13new_allocatorISt4pairIK9PieceNamecEED2Ev
FNDA:162,_ZN9__gnu_cxx13new_allocatorISt4pairIK9PieceNamecEED2Ev
FN:89,_ZN9__gnu_cxx13new_allocatorIcED2Ev
FNDA:0,_ZN9__gnu_cxx13new_allocatorIcED2Ev
FN:89,_ZN9__gnu_cxx13new_allocatorI4MoveED2Ev
FNDA:0,_ZN9__gnu_cxx13new_allocatorI4MoveED2Ev
FN:89,_ZN9__gnu_cxx13new_allocatorI8PositionED2Ev
FNDA:0,_ZN9__gnu_cxx13new_allocatorI8PositionED2Ev
FN:102,_ZN9__gnu_cxx13new_allocatorISt13_Rb_tree_nodeISt4pairIK9PieceNamecEEE8allocateEmPKv
FNDA:0,_ZN9__gnu_cxx13new_allocatorISt13_Rb_tree_nodeISt4pairIK9PieceNamecEEE8allocateEmPKv
FN:102,_ZN9__gnu_cxx13new_allocatorISt13_Rb_tree_nodeISt4pairIKNSt7__cxx1112basic_stringIcSt11char_traitsIcESaIcEEE8PositionEEE8allocateEmPKv
FNDA:0,_ZN9__gnu_cxx13new_allocatorISt13_Rb_tree_nodeISt4pairIKNSt7__cxx1112basic_stringIcSt11char_traitsIcESaIcEEE8PositionEEE8allocateEmPKv
FN:119,_ZN9__gnu_cxx13new_allocatorI8PositionE10deallocateEPS1_m
FNDA:0,_ZN9__gnu_cxx13new_allocatorI8PositionE10deallocateEPS1_m
FN:119,_ZN9__gnu_cxx13new_allocatorI4MoveE10deallocateEPS1_m
FNDA:0,_ZN9__gnu_cxx13new_allocatorI4MoveE10deallocateEPS1_m
FN:119,_ZN9__gnu_cxx13new_allocatorISt13_Rb_tree_nodeISt4pairIK9PieceNamecEEE10deallocateEPS6_m
FNDA:0,_ZN9__gnu_cxx13new_allocatorISt13_Rb_tree_nodeISt4pairIK9PieceNamecEEE10deallocateEPS6_m
FN:119,_ZN9__gnu_cxx13new_allocatorISt13_Rb_tree_nodeISt4pairIKNSt7__cxx1112basic_stringIcSt11char_traitsIcESaIcEEE8PositionEEE10deallocateEPSC_m
FNDA:0,_ZN9__gnu_cxx13new_allocatorISt13_Rb_tree_nodeISt4pairIKNSt7__cxx1112basic_stringIcSt11char_traitsIcESaIcEEE8PositionEEE10deallocateEPSC_m
FN:132,_ZNK9__gnu_cxx13new_allocatorISt13_Rb_tree_nodeISt4pairIK9PieceNamecEEE8max_sizeEv
FNDA:0,_ZNK9__gnu_cxx13new_allocatorISt13_Rb_tree_nodeISt4pairIK9PieceNamecEEE8max_sizeEv
FN:132,_ZNK9__gnu_cxx13new_allocatorISt13_Rb_tree_nodeISt4pairIKNSt7__cxx1112basic_stringIcSt11char_traitsIcESaIcEEE8PositionEEE8max_sizeEv
FNDA:0,_ZNK9__gnu_cxx13new_allocatorISt13_Rb_tree_nodeISt4pairIKNSt7__cxx1112basic_stringIcSt11char_traitsIcESaIcEEE8PositionEEE8max_sizeEv
FN:144,_ZN9__gnu_cxx13new_allocatorISt13_Rb_tree_nodeISt4pairIK9PieceNamecEEE9constructIS5_JRKSt21piecewise_construct_tSt5tupleIJRS4_EESC_IJEEEEEvPT_DpOT0_
FNDA:0,_ZN9__gnu_cxx13new_allocatorISt13_Rb_tree_nodeISt4pairIK9PieceNamecEEE9constructIS5_JRKSt21piecewise_construct_tSt5tupleIJRS4_EESC_IJEEEEEvPT_DpOT0_
FN:144,_ZN9__gnu_cxx13new_allocatorISt13_Rb_tree_nodeISt4pairIKNSt7__cxx1112basic_stringIcSt11char_traitsIcESaIcEEE8PositionEEE9constructISB_JSB_EEEvPT_DpOT0_
FNDA:896,_ZN9__gnu_cxx13new_allocatorISt13_Rb_tree_nodeISt4pairIKNSt7__cxx1112basic_stringIcSt11char_traitsIcESaIcEEE8PositionEEE9constructISB_JSB_EEEvPT_DpOT0_
FN:144,_ZN9__gnu_cxx13new_allocatorISt13_Rb_tree_nodeISt4pairIK9PieceNamecEEE9constructIS5_JRKS5_EEEvPT_DpOT0_
FNDA:0,_ZN9__gnu_cxx13new_allocatorISt13_Rb_tree_nodeISt4pairIK9PieceNamecEEE9constructIS5_JRKS5_EEEvPT_DpOT0_
FN:151,_ZN9__gnu_cxx13new_allocatorISt13_Rb_tree_nodeISt4pairIK9PieceNamecEEE7destroyIS5_EEvPT_
FNDA:0,_ZN9__gnu_cxx13new_allocatorISt13_Rb_tree_nodeISt4pairIK9PieceNamecEEE7destroyIS5_EEvPT_
FN:151,_ZN9__gnu_cxx13new_allocatorISt13_Rb_tree_nodeISt4pairIKNSt7__cxx1112basic_stringIcSt11char_traitsIcESaIcEEE8PositionEEE7destroyISB_EEvPT_
FNDA:0,_ZN9__gnu_cxx13new_allocatorISt13_Rb_tree_nodeISt4pairIKNSt7__cxx1112basic_stringIcSt11char_traitsIcESaIcEEE8PositionEEE7destroyISB_EEvPT_
DA:80,81
DA:80,24
DA:80,0
DA:80,0
DA:80,81
DA:80,0
DA:83,0
DA:83,0
DA:83,0
DA:83,0
DA:83,81
DA:89,0
DA:89,0
DA:89,162
DA:89,0
DA:89,0
DA:89,0
DA:102,0
DA:104,0
DA:105,0
DA:114,0
DA:102,0
DA:104,0
DA:105,0
DA:114,0
DA:119,0
DA:128,0
DA:129,0
DA:119,0
DA:128,0
DA:129,0
DA:119,0
DA:128,0
DA:129,0
DA:119,0
DA:128,0
DA:129,0
DA:132,0
DA:135,0
DA:132,0
DA:135,0
DA:144,0
DA:147,0
DA:144,896
DA:147,896
DA:144,0
DA:147,0
DA:151,0
DA:153,0
DA:151,0
DA:153,0
end_of_record
SF:/usr/include/c++/9/new
FN:173,_ZnwmPv
FNDA:0,_ZnwmPv
FN:179,_ZdlPvS_
FNDA:0,_ZdlPvS_
DA:173,0
DA:174,0
DA:179,0
end_of_record
SF:/usr/include/c++/9/bits/stl_iterator_base_types.h
FN:205,_ZSt19__iterator_categoryIPcENSt15iterator_traitsIT_E17iterator_categoryERKS2_
FNDA:809710,_ZSt19__iterator_categoryIPcENSt15iterator_traitsIT_E17iterator_categoryERKS2_
FN:205,_ZSt19__iterator_categoryIPKcENSt15iterator_traitsIT_E17iterator_categoryERKS3_
FNDA:0,_ZSt19__iterator_categoryIPKcENSt15iterator_traitsIT_E17iterator_categoryERKS3_
FN:205,_ZSt19__iterator_categoryISt23_Rb_tree_const_iteratorISt4pairIK9PieceNamecEEENSt15iterator_traitsIT_E17iterator_categoryERKS7_
FNDA:33,_ZSt19__iterator_categoryISt23_Rb_tree_const_iteratorISt4pairIK9PieceNamecEEENSt15iterator_traitsIT_E17iterator_categoryERKS7_
DA:205,809710
DA:206,809710
DA:205,0
DA:206,0
DA:205,33
DA:206,33
end_of_record
SF:/home/napiad/studia/eiti/mgr/sem1/zpr/checkers-webapp/checkers/src/Board.cc
FN:13,_ZlsRSoRK9PieceName
FNDA:0,_ZlsRSoRK9PieceName
FN:25,_ZN5BoardC2Ev
FNDA:14,_ZN5BoardC2Ev
FN:34,_ZN5BoardC2ENSt7__cxx1112basic_stringIcSt11char_traitsIcESaIcEEE
FNDA:10,_ZN5BoardC2ENSt7__cxx1112basic_stringIcSt11char_traitsIcESaIcEEE
FN:49,_ZZN5BoardC4ENSt7__cxx1112basic_stringIcSt11char_traitsIcESaIcEEEENKUlRKSt4pairI9PieceNamecEE_clESA_
FNDA:125,_ZZN5BoardC4ENSt7__cxx1112basic_stringIcSt11char_traitsIcESaIcEEEENKUlRKSt4pairI9PieceNamecEE_clESA_
FN:60,_ZN5Board5clearEv
FNDA:17,_ZN5Board5clearEv
FN:68,_ZN5Board23initializePositionNamesEv
FNDA:14,_ZN5Board23initializePositionNamesEv
FN:76,_ZNK5Board17getPositionByNameENSt7__cxx1112basic_stringIcSt11char_traitsIcESaIcEEE
FNDA:48,_ZNK5Board17getPositionByNameENSt7__cxx1112basic_stringIcSt11char_traitsIcESaIcEEE
FN:86,_ZlsRSoRK5Board
FNDA:0,_ZlsRSoRK5Board
FN:97,_ZNK5Board8getBoardEv
FNDA:0,_ZNK5Board8getBoardEv
FN:102,_ZN5Board13clearPositionERK8Position
FNDA:3848,_ZN5Board13clearPositionERK8Position
FN:115,_ZN5Board10placePieceERK8Position9PieceName
FNDA:3808,_ZN5Board10placePieceERK8Position9PieceName
FN:123,_ZNK5Board12getPieceNameERK8Position
FNDA:490073,_ZNK5Board12getPieceNameERK8Position
FN:127,_ZN5Board18arePiecesSameColorE9PieceNameS0_
FNDA:0,_ZN5Board18arePiecesSameColorE9PieceNameS0_
FN:141,_ZN5Board23arePiecesDifferentColorE9PieceNameS0_
FNDA:7,_ZN5Board23arePiecesDifferentColorE9PieceNameS0_
FN:158,_ZN5Board8makeMoveERK4Move
FNDA:3193,_ZN5Board8makeMoveERK4Move
FN:176,_ZN5Board12findUserMoveERK8PositionS2_
FNDA:24,_ZN5Board12findUserMoveERK8PositionS2_
FN:197,_ZN5BoardaSES_
FNDA:2442,_ZN5BoardaSES_
FN:206,_ZNK5Board6getFENB5cxx11Ev
FNDA:57,_ZNK5Board6getFENB5cxx11Ev
FN:234,_Z4swapR5BoardS0_
FNDA:2442,_Z4swapR5BoardS0_
DA:13,0
DA:14,0
DA:15,0
DA:16,0
DA:17,0
DA:18,0
DA:19,0
DA:20,0
DA:22,0
DA:25,14
DA:26,14
DA:27,14
DA:28,14
DA:34,10
DA:35,20
DA:36,10
DA:37,90
DA:38,80
DA:39,80
DA:40,223
DA:41,143
DA:42,110
DA:43,717
DA:44,607
DA:46,110
DA:49,125
DA:50,125
DA:51,33
DA:52,33
DA:54,143
DA:56,80
DA:58,10
DA:60,17
DA:61,153
DA:62,1224
DA:63,1088
DA:66,17
DA:68,14
DA:69,126
DA:70,1008
DA:71,896
DA:74,14
DA:76,48
DA:77,48
DA:78,48
DA:79,48
DA:82,0
DA:86,0
DA:88,0
DA:89,0
DA:90,0
DA:92,0
DA:94,0
DA:97,0
DA:98,0
DA:102,3848
DA:103,3848
DA:104,0
DA:107,3848
DA:115,3808
DA:116,3808
DA:117,0
DA:120,3808
DA:123,490073
DA:124,490073
DA:127,0
DA:128,0
DA:129,0
DA:130,0
DA:133,0
DA:134,0
DA:135,0
DA:138,0
DA:141,7
DA:142,7
DA:143,0
DA:144,0
DA:147,7
DA:148,5
DA:149,5
DA:152,2
DA:158,3193
DA:159,3193
DA:160,3193
DA:161,0
DA:164,3193
DA:165,3193
DA:166,3848
DA:167,3193
DA:176,24
DA:177,24
DA:178,23
DA:179,23
DA:180,23
DA:182,46
DA:183,23
DA:184,2
DA:186,25
DA:187,7
DA:188,5
DA:190,5
DA:192,2
DA:194,18
DA:197,2442
DA:198,2442
DA:199,2442
DA:206,57
DA:209,114
DA:210,57
DA:211,513
DA:212,4104
DA:213,3648
DA:215,456
DA:217,57
DA:218,57
DA:220,5364
DA:221,5307
DA:222,3368
DA:224,1939
DA:225,630
DA:226,630
DA:227,630
DA:230,57
DA:231,114
DA:234,2442
DA:235,2442
DA:236,2442
end_of_record
SF:/usr/include/c++/9/bits/stl_construct.h
FN:97,_ZSt8_DestroyI4MoveEvPT_
FNDA:0,_ZSt8_DestroyI4MoveEvPT_
FN:105,_ZNSt12_Destroy_auxILb0EE9__destroyIP4MoveEEvT_S4_
FNDA:0,_ZNSt12_Destroy_auxILb0EE9__destroyIP4MoveEEvT_S4_
FN:117,_ZNSt12_Destroy_auxILb1EE9__destroyIP8PositionEEvT_S4_
FNDA:0,_ZNSt12_Destroy_auxILb1EE9__destroyIP8PositionEEvT_S4_
FN:127,_ZSt8_DestroyIP4MoveEvT_S2_
FNDA:0,_ZSt8_DestroyIP4MoveEvT_S2_
FN:127,_ZSt8_DestroyIP8PositionEvT_S2_
FNDA:0,_ZSt8_DestroyIP8PositionEvT_S2_
FN:203,_ZSt8_DestroyIP4MoveS0_EvT_S2_RSaIT0_E
FNDA:0,_ZSt8_DestroyIP4MoveS0_EvT_S2_RSaIT0_E
FN:203,_ZSt8_DestroyIP8PositionS0_EvT_S2_RSaIT0_E
FNDA:0,_ZSt8_DestroyIP8PositionS0_EvT_S2_RSaIT0_E
DA:97,0
DA:98,0
DA:105,0
DA:107,0
DA:108,0
DA:109,0
DA:117,0
DA:127,0
DA:137,0
DA:138,0
DA:127,0
DA:137,0
DA:138,0
DA:203,0
DA:206,0
DA:207,0
DA:203,0
DA:206,0
DA:207,0
end_of_record
SF:/usr/include/c++/9/bits/move.h
FN:47,_ZSt11__addressofI4MoveEPT_RS1_
FNDA:0,_ZSt11__addressofI4MoveEPT_RS1_
FN:74,_ZSt7forwardIRK9PieceNameEOT_RNSt16remove_referenceIS3_E4typeE
FNDA:0,_ZSt7forwardIRK9PieceNameEOT_RNSt16remove_referenceIS3_E4typeE
FN:74,_ZSt7forwardIRPSt13_Rb_tree_nodeISt4pairIK9PieceNamecEEEOT_RNSt16remove_referenceIS8_E4typeE
FNDA:243,_ZSt7forwardIRPSt13_Rb_tree_nodeISt4pairIK9PieceNamecEEEOT_RNSt16remove_referenceIS8_E4typeE
FN:74,_ZSt7forwardIRPSt18_Rb_tree_node_baseEOT_RNSt16remove_referenceIS3_E4typeE
FNDA:1301,_ZSt7forwardIRPSt18_Rb_tree_node_baseEOT_RNSt16remove_referenceIS3_E4typeE
FN:74,_ZSt7forwardIRPSt13_Rb_tree_nodeISt4pairIKNSt7__cxx1112basic_stringIcSt11char_traitsIcESaIcEEE8PositionEEEOT_RNSt16remove_referenceISE_E4typeE
FNDA:896,_ZSt7forwardIRPSt13_Rb_tree_nodeISt4pairIKNSt7__cxx1112basic_stringIcSt11char_traitsIcESaIcEEE8PositionEEEOT_RNSt16remove_referenceISE_E4typeE
FN:74,_ZSt7forwardIbEOT_RNSt16remove_referenceIS0_E4typeE
FNDA:0,_ZSt7forwardIbEOT_RNSt16remove_referenceIS0_E4typeE
FN:74,_ZSt7forwardISt17_Rb_tree_iteratorISt4pairIKNSt7__cxx1112basic_stringIcSt11char_traitsIcESaIcEEE8PositionEEEOT_RNSt16remove_referenceISC_E4typeE
FNDA:896,_ZSt7forwardISt17_Rb_tree_iteratorISt4pairIKNSt7__cxx1112basic_stringIcSt11char_traitsIcESaIcEEE8PositionEEEOT_RNSt16remove_referenceISC_E4typeE
FN:74,_ZSt7forwardIRKSt4pairIK9PieceNamecEEOT_RNSt16remove_referenceIS6_E4typeE
FNDA:0,_ZSt7forwardIRKSt4pairIK9PieceNamecEEOT_RNSt16remove_referenceIS6_E4typeE
FN:74,_ZSt7forwardINSt7__cxx1112basic_stringIcSt11char_traitsIcESaIcEEEEOT_RNSt16remove_referenceIS6_E4typeE
FNDA:896,_ZSt7forwardINSt7__cxx1112basic_stringIcSt11char_traitsIcESaIcEEEEOT_RNSt16remove_referenceIS6_E4typeE
FN:74,_ZSt7forwardISt5tupleIJEEEOT_RNSt16remove_referenceIS2_E4typeE
FNDA:0,_ZSt7forwardISt5tupleIJEEEOT_RNSt16remove_referenceIS2_E4typeE
FN:74,_ZSt7forwardISt5tupleIJRK9PieceNameEEEOT_RNSt16remove_referenceIS5_E4typeE
FNDA:0,_ZSt7forwardISt5tupleIJRK9PieceNameEEEOT_RNSt16remove_referenceIS5_E4typeE
FN:74,_ZSt7forwardIRKSt21piecewise_construct_tEOT_RNSt16remove_referenceIS3_E4typeE
FNDA:0,_ZSt7forwardIRKSt21piecewise_construct_tEOT_RNSt16remove_referenceIS3_E4typeE
FN:74,_ZSt7forwardISt4pairIKNSt7__cxx1112basic_stringIcSt11char_traitsIcESaIcEEE8PositionEEOT_RNSt16remove_referenceISA_E4typeE
FNDA:6272,_ZSt7forwardISt4pairIKNSt7__cxx1112basic_stringIcSt11char_traitsIcESaIcEEE8PositionEEOT_RNSt16remove_referenceISA_E4typeE
FN:74,_ZSt7forwardI8PositionEOT_RNSt16remove_referenceIS1_E4typeE
FNDA:0,_ZSt7forwardI8PositionEOT_RNSt16remove_referenceIS1_E4typeE
FN:99,_ZSt4moveIRSt4pairIKNSt7__cxx1112basic_stringIcSt11char_traitsIcESaIcEEE8PositionEEONSt16remove_referenceIT_E4typeEOSC_
FNDA:896,_ZSt4moveIRSt4pairIKNSt7__cxx1112basic_stringIcSt11char_traitsIcESaIcEEE8PositionEEONSt16remove_referenceIT_E4typeEOSC_
FN:99,_ZSt4moveIRSaIcEEONSt16remove_referenceIT_E4typeEOS3_
FNDA:0,_ZSt4moveIRSaIcEEONSt16remove_referenceIT_E4typeEOS3_
FN:99,_ZSt4moveIRNSt7__cxx1112basic_stringIcSt11char_traitsIcESaIcEEEEONSt16remove_referenceIT_E4typeEOS8_
FNDA:896,_ZSt4moveIRNSt7__cxx1112basic_stringIcSt11char_traitsIcESaIcEEEEONSt16remove_referenceIT_E4typeEOS8_
FN:99,_ZSt4moveIRNSt12_Vector_baseI8PositionSaIS1_EE12_Vector_implEEONSt16remove_referenceIT_E4typeEOS7_
FNDA:0,_ZSt4moveIRNSt12_Vector_baseI8PositionSaIS1_EE12_Vector_implEEONSt16remove_referenceIT_E4typeEOS7_
FN:99,_ZSt4moveIRNSt12_Vector_baseI4MoveSaIS1_EE12_Vector_implEEONSt16remove_referenceIT_E4typeEOS7_
FNDA:0,_ZSt4moveIRNSt12_Vector_baseI4MoveSaIS1_EE12_Vector_implEEONSt16remove_referenceIT_E4typeEOS7_
FN:99,_ZSt4moveIRZN5BoardC4ENSt7__cxx1112basic_stringIcSt11char_traitsIcESaIcEEEEUlRKSt4pairI9PieceNamecEE_EONSt16remove_referenceIT_E4typeEOSF_
FNDA:66,_ZSt4moveIRZN5BoardC4ENSt7__cxx1112basic_stringIcSt11char_traitsIcESaIcEEEEUlRKSt4pairI9PieceNamecEE_EONSt16remove_referenceIT_E4typeEOSF_
FN:99,_ZSt4moveIRSaISt13_Rb_tree_nodeISt4pairIK9PieceNamecEEEEONSt16remove_referenceIT_E4typeEOS9_
FNDA:81,_ZSt4moveIRSaISt13_Rb_tree_nodeISt4pairIK9PieceNamecEEEEONSt16remove_referenceIT_E4typeEOS9_
FN:99,_ZSt4moveIR9PieceNameEONSt16remove_referenceIT_E4typeEOS3_
FNDA:468864,_ZSt4moveIR9PieceNameEONSt16remove_referenceIT_E4typeEOS3_
FN:182,_ZSt4swapI9PieceNameENSt9enable_ifIXsrSt6__and_IJSt6__not_ISt15__is_tuple_likeIT_EESt21is_move_constructibleIS5_ESt18is_move_assignableIS5_EEE5valueEvE4typeERS5_SF_
FNDA:156288,_ZSt4swapI9PieceNameENSt9enable_ifIXsrSt6__and_IJSt6__not_ISt15__is_tuple_likeIT_EESt21is_move_constructibleIS5_ESt18is_move_assignableIS5_EEE5valueEvE4typeERS5_SF_
DA:47,0
DA:48,0
DA:74,0
DA:75,0
DA:74,243
DA:75,243
DA:74,1301
DA:75,1301
DA:74,896
DA:75,896
DA:74,0
DA:75,0
DA:74,896
DA:75,896
DA:74,0
DA:75,0
DA:74,0
DA:75,0
DA:74,0
DA:75,0
DA:74,0
DA:75,0
DA:74,6272
DA:75,6272
DA:74,0
DA:75,0
DA:74,896
DA:75,896
DA:99,468864
DA:100,468864
DA:99,81
DA:100,81
DA:99,66
DA:100,66
DA:99,0
DA:100,0
DA:99,0
DA:100,0
DA:99,896
DA:100,896
DA:99,896
DA:100,896
DA:99,0
DA:100,0
DA:182,156288
DA:193,156288
DA:194,156288
DA:195,156288
DA:196,156288
end_of_record
SF:/usr/include/c++/9/ext/alloc_traits.h
FN:97,_ZN9__gnu_cxx14__alloc_traitsISaIcEcE17_S_select_on_copyERKS1_
FNDA:0,_ZN9__gnu_cxx14__alloc_traitsISaIcEcE17_S_select_on_copyERKS1_
DA:97,0
DA:98,0
end_of_record
SF:/usr/include/c++/9/bits/allocator.h
FN:138,_ZNSaISt13_Rb_tree_nodeISt4pairIKNSt7__cxx1112basic_stringIcSt11char_traitsIcESaIcEEE8PositionEEEC2Ev
FNDA:24,_ZNSaISt13_Rb_tree_nodeISt4pairIKNSt7__cxx1112basic_stringIcSt11char_traitsIcESaIcEEE8PositionEEEC2Ev
FN:138,_ZNSaI4MoveEC2Ev
FNDA:0,_ZNSaI4MoveEC2Ev
FN:138,_ZNSaI8PositionEC2Ev
FNDA:0,_ZNSaI8PositionEC2Ev
FN:138,_ZNSaISt4pairIK9PieceNamecEEC2Ev
FNDA:81,_ZNSaISt4pairIK9PieceNamecEEC2Ev
FN:141,_ZNSaISt13_Rb_tree_nodeISt4pairIK9PieceNamecEEEC2ERKS5_
FNDA:0,_ZNSaISt13_Rb_tree_nodeISt4pairIK9PieceNamecEEEC2ERKS5_
FN:141,_ZNSaI4MoveEC2ERKS0_
FNDA:0,_ZNSaI4MoveEC2ERKS0_
FN:141,_ZNSaI8PositionEC2ERKS0_
FNDA:0,_ZNSaI8PositionEC2ERKS0_
FN:141,_ZNSaISt4pairIK9PieceNamecEEC2ERKS3_
FNDA:81,_ZNSaISt4pairIK9PieceNamecEEC2ERKS3_
FN:151,_ZNSaISt13_Rb_tree_nodeISt4pairIK9PieceNamecEEEC2IS3_EERKSaIT_E
FNDA:81,_ZNSaISt13_Rb_tree_nodeISt4pairIK9PieceNamecEEEC2IS3_EERKSaIT_E
FN:153,_ZNSaISt13_Rb_tree_nodeISt4pairIK9PieceNamecEEED2Ev
FNDA:0,_ZNSaISt13_Rb_tree_nodeISt4pairIK9PieceNamecEEED2Ev
FN:153,_ZNSaISt13_Rb_tree_nodeISt4pairIKNSt7__cxx1112basic_stringIcSt11char_traitsIcESaIcEEE8PositionEEED2Ev
FNDA:0,_ZNSaISt13_Rb_tree_nodeISt4pairIKNSt7__cxx1112basic_stringIcSt11char_traitsIcESaIcEEE8PositionEEED2Ev
FN:153,_ZNSaISt4pairIK9PieceNamecEED2Ev
FNDA:162,_ZNSaISt4pairIK9PieceNamecEED2Ev
FN:153,_ZNSaI4MoveED2Ev
FNDA:0,_ZNSaI4MoveED2Ev
FN:153,_ZNSaI8PositionED2Ev
FNDA:0,_ZNSaI8PositionED2Ev
DA:138,24
DA:138,0
DA:138,0
DA:138,81
DA:141,0
DA:142,0
DA:141,0
DA:142,0
DA:141,0
DA:142,0
DA:141,81
DA:142,81
DA:151,81
DA:153,0
DA:153,0
DA:153,162
DA:153,0
DA:153,0
end_of_record
SF:/usr/include/c++/9/bits/stl_tree.h
FN:146,_ZNSt20_Rb_tree_key_compareISt4lessINSt7__cxx1112basic_stringIcSt11char_traitsIcESaIcEEEEEC2Ev
FNDA:24,_ZNSt20_Rb_tree_key_compareISt4lessINSt7__cxx1112basic_stringIcSt11char_traitsIcESaIcEEEEEC2Ev
FN:152,_ZNSt20_Rb_tree_key_compareISt4lessI9PieceNameEEC2ERKS2_
FNDA:0,_ZNSt20_Rb_tree_key_compareISt4lessI9PieceNameEEC2ERKS2_
FN:173,_ZNSt15_Rb_tree_headerC2Ev
FNDA:0,_ZNSt15_Rb_tree_headerC2Ev
FN:206,_ZNSt15_Rb_tree_header8_M_resetEv
FNDA:0,_ZNSt15_Rb_tree_header8_M_resetEv
FN:234,_ZNSt13_Rb_tree_nodeISt4pairIKNSt7__cxx1112basic_stringIcSt11char_traitsIcESaIcEEE8PositionEE9_M_valptrEv
FNDA:0,_ZNSt13_Rb_tree_nodeISt4pairIKNSt7__cxx1112basic_stringIcSt11char_traitsIcESaIcEEE8PositionEE9_M_valptrEv
FN:234,_ZNSt13_Rb_tree_nodeISt4pairIK9PieceNamecEE9_M_valptrEv
FNDA:0,_ZNSt13_Rb_tree_nodeISt4pairIK9PieceNamecEE9_M_valptrEv
FN:238,_ZNKSt13_Rb_tree_nodeISt4pairIK9PieceNamecEE9_M_valptrEv
FNDA:0,_ZNKSt13_Rb_tree_nodeISt4pairIK9PieceNamecEE9_M_valptrEv
FN:238,_ZNKSt13_Rb_tree_nodeISt4pairIKNSt7__cxx1112basic_stringIcSt11char_traitsIcESaIcEEE8PositionEE9_M_valptrEv
FNDA:0,_ZNKSt13_Rb_tree_nodeISt4pairIKNSt7__cxx1112basic_stringIcSt11char_traitsIcESaIcEEE8PositionEE9_M_valptrEv
FN:273,_ZNSt17_Rb_tree_iteratorISt4pairIK9PieceNamecEEC2EPSt18_Rb_tree_node_base
FNDA:8997,_ZNSt17_Rb_tree_iteratorISt4pairIK9PieceNamecEEC2EPSt18_Rb_tree_node_base
FN:273,_ZNSt17_Rb_tree_iteratorISt4pairIKNSt7__cxx1112basic_stringIcSt11char_traitsIcESaIcEEE8PositionEEC2EPSt18_Rb_tree_node_base
FNDA:1806,_ZNSt17_Rb_tree_iteratorISt4pairIKNSt7__cxx1112basic_stringIcSt11char_traitsIcESaIcEEE8PositionEEC2EPSt18_Rb_tree_node_base
FN:277,_ZNKSt17_Rb_tree_iteratorISt4pairIK9PieceNamecEEdeEv
FNDA:7296,_ZNKSt17_Rb_tree_iteratorISt4pairIK9PieceNamecEEdeEv
FN:285,_ZNSt17_Rb_tree_iteratorISt4pairIK9PieceNamecEEppEv
FNDA:0,_ZNSt17_Rb_tree_iteratorISt4pairIK9PieceNamecEEppEv
FN:300,_ZNSt17_Rb_tree_iteratorISt4pairIKNSt7__cxx1112basic_stringIcSt11char_traitsIcESaIcEEE8PositionEEmmEv
FNDA:0,_ZNSt17_Rb_tree_iteratorISt4pairIKNSt7__cxx1112basic_stringIcSt11char_traitsIcESaIcEEE8PositionEEmmEv
FN:300,_ZNSt17_Rb_tree_iteratorISt4pairIK9PieceNamecEEmmEv
FNDA:162,_ZNSt17_Rb_tree_iteratorISt4pairIK9PieceNamecEEmmEv
FN:315,_ZSteqRKSt17_Rb_tree_iteratorISt4pairIK9PieceNamecEES6_
FNDA:3891,_ZSteqRKSt17_Rb_tree_iteratorISt4pairIK9PieceNamecEES6_
FN:315,_ZSteqRKSt17_Rb_tree_iteratorISt4pairIKNSt7__cxx1112basic_stringIcSt11char_traitsIcESaIcEEE8PositionEESC_
FNDA:14,_ZSteqRKSt17_Rb_tree_iteratorISt4pairIKNSt7__cxx1112basic_stringIcSt11char_traitsIcESaIcEEE8PositionEESC_
FN:345,_ZNSt23_Rb_tree_const_iteratorISt4pairIK9PieceNamecEEC2EPKSt18_Rb_tree_node_base
FNDA:66,_ZNSt23_Rb_tree_const_iteratorISt4pairIK9PieceNamecEEC2EPKSt18_Rb_tree_node_base
FN:345,_ZNSt23_Rb_tree_const_iteratorISt4pairIKNSt7__cxx1112basic_stringIcSt11char_traitsIcESaIcEEE8PositionEEC2EPKSt18_Rb_tree_node_base
FNDA:144,_ZNSt23_Rb_tree_const_iteratorISt4pairIKNSt7__cxx1112basic_stringIcSt11char_traitsIcESaIcEEE8PositionEEC2EPKSt18_Rb_tree_node_base
FN:348,_ZNSt23_Rb_tree_const_iteratorISt4pairIK9PieceNamecEEC2ERKSt17_Rb_tree_iteratorIS3_E
FNDA:405,_ZNSt23_Rb_tree_const_iteratorISt4pairIK9PieceNamecEEC2ERKSt17_Rb_tree_iteratorIS3_E
FN:352,_ZNKSt23_Rb_tree_const_iteratorISt4pairIK9PieceNamecEE13_M_const_castEv
FNDA:405,_ZNKSt23_Rb_tree_const_iteratorISt4pairIK9PieceNamecEE13_M_const_castEv
FN:356,_ZNKSt23_Rb_tree_const_iteratorISt4pairIK9PieceNamecEEdeEv
FNDA:125,_ZNKSt23_Rb_tree_const_iteratorISt4pairIK9PieceNamecEEdeEv
FN:360,_ZNKSt23_Rb_tree_const_iteratorISt4pairIK9PieceNamecEEptEv
FNDA:33,_ZNKSt23_Rb_tree_const_iteratorISt4pairIK9PieceNamecEEptEv
FN:360,_ZNKSt23_Rb_tree_const_iteratorISt4pairIKNSt7__cxx1112basic_stringIcSt11char_traitsIcESaIcEEE8PositionEEptEv
FNDA:48,_ZNKSt23_Rb_tree_const_iteratorISt4pairIKNSt7__cxx1112basic_stringIcSt11char_traitsIcESaIcEEE8PositionEEptEv
FN:364,_ZNSt23_Rb_tree_const_iteratorISt4pairIK9PieceNamecEEppEv
FNDA:92,_ZNSt23_Rb_tree_const_iteratorISt4pairIK9PieceNamecEEppEv
FN:394,_ZSteqRKSt23_Rb_tree_const_iteratorISt4pairIKNSt7__cxx1112basic_stringIcSt11char_traitsIcESaIcEEE8PositionEESC_
FNDA:48,_ZSteqRKSt23_Rb_tree_const_iteratorISt4pairIKNSt7__cxx1112basic_stringIcSt11char_traitsIcESaIcEEE8PositionEESC_
FN:398,_ZStneRKSt23_Rb_tree_const_iteratorISt4pairIK9PieceNamecEES6_
FNDA:125,_ZStneRKSt23_Rb_tree_const_iteratorISt4pairIK9PieceNamecEES6_
FN:398,_ZStneRKSt23_Rb_tree_const_iteratorISt4pairIKNSt7__cxx1112basic_stringIcSt11char_traitsIcESaIcEEE8PositionEESC_
FNDA:48,_ZStneRKSt23_Rb_tree_const_iteratorISt4pairIKNSt7__cxx1112basic_stringIcSt11char_traitsIcESaIcEEE8PositionEESC_
FN:538,_ZNSt8_Rb_treeINSt7__cxx1112basic_stringIcSt11char_traitsIcESaIcEEESt4pairIKS5_8PositionESt10_Select1stIS9_ESt4lessIS5_ESaIS9_EE11_Alloc_nodeC2ERSF_
FNDA:0,_ZNSt8_Rb_treeINSt7__cxx1112basic_stringIcSt11char_traitsIcESaIcEEESt4pairIKS5_8PositionESt10_Select1stIS9_ESt4lessIS5_ESaIS9_EE11_Alloc_nodeC2ERSF_
FN:538,_ZNSt8_Rb_treeI9PieceNameSt4pairIKS0_cESt10_Select1stIS3_ESt4lessIS0_ESaIS3_EE11_Alloc_nodeC2ERS9_
FNDA:0,_ZNSt8_Rb_treeI9PieceNameSt4pairIKS0_cESt10_Select1stIS3_ESt4lessIS0_ESaIS3_EE11_Alloc_nodeC2ERS9_
FN:546,_ZNKSt8_Rb_treeI9PieceNameSt4pairIKS0_cESt10_Select1stIS3_ESt4lessIS0_ESaIS3_EE11_Alloc_nodeclIRKS3_EEPSt13_Rb_tree_nodeIS3_EOT_
FNDA:0,_ZNKSt8_Rb_treeI9PieceNameSt4pairIKS0_cESt10_Select1stIS3_ESt4lessIS0_ESaIS3_EE11_Alloc_nodeclIRKS3_EEPSt13_Rb_tree_nodeIS3_EOT_
FN:546,_ZNKSt8_Rb_treeINSt7__cxx1112basic_stringIcSt11char_traitsIcESaIcEEESt4pairIKS5_8PositionESt10_Select1stIS9_ESt4lessIS5_ESaIS9_EE11_Alloc_nodeclIS9_EEPSt13_Rb_tree_nodeIS9_EOT_
FNDA:896,_ZNKSt8_Rb_treeINSt7__cxx1112basic_stringIcSt11char_traitsIcESaIcEEESt4pairIKS5_8PositionESt10_Select1stIS9_ESt4lessIS5_ESaIS9_EE11_Alloc_nodeclIS9_EEPSt13_Rb_tree_nodeIS9_EOT_
FN:566,_ZNSt8_Rb_treeINSt7__cxx1112basic_stringIcSt11char_traitsIcESaIcEEESt4pairIKS5_8PositionESt10_Select1stIS9_ESt4lessIS5_ESaIS9_EE21_M_get_Node_allocatorEv
FNDA:0,_ZNSt8_Rb_treeINSt7__cxx1112basic_stringIcSt11char_traitsIcESaIcEEESt4pairIKS5_8PositionESt10_Select1stIS9_ESt4lessIS5_ESaIS9_EE21_M_get_Node_allocatorEv
FN:566,_ZNSt8_Rb_treeI9PieceNameSt4pairIKS0_cESt10_Select1stIS3_ESt4lessIS0_ESaIS3_EE21_M_get_Node_allocatorEv
FNDA:0,_ZNSt8_Rb_treeI9PieceNameSt4pairIKS0_cESt10_Select1stIS3_ESt4lessIS0_ESaIS3_EE21_M_get_Node_allocatorEv
FN:579,_ZNSt8_Rb_treeINSt7__cxx1112basic_stringIcSt11char_traitsIcESaIcEEESt4pairIKS5_8PositionESt10_Select1stIS9_ESt4lessIS5_ESaIS9_EE11_M_get_nodeEv
FNDA:0,_ZNSt8_Rb_treeINSt7__cxx1112basic_stringIcSt11char_traitsIcESaIcEEESt4pairIKS5_8PositionESt10_Select1stIS9_ESt4lessIS5_ESaIS9_EE11_M_get_nodeEv
FN:579,_ZNSt8_Rb_treeI9PieceNameSt4pairIKS0_cESt10_Select1stIS3_ESt4lessIS0_ESaIS3_EE11_M_get_nodeEv
FNDA:0,_ZNSt8_Rb_treeI9PieceNameSt4pairIKS0_cESt10_Select1stIS3_ESt4lessIS0_ESaIS3_EE11_M_get_nodeEv
FN:583,_ZNSt8_Rb_treeINSt7__cxx1112basic_stringIcSt11char_traitsIcESaIcEEESt4pairIKS5_8PositionESt10_Select1stIS9_ESt4lessIS5_ESaIS9_EE11_M_put_nodeEPSt13_Rb_tree_nodeIS9_E
FNDA:0,_ZNSt8_Rb_treeINSt7__cxx1112basic_stringIcSt11char_traitsIcESaIcEEESt4pairIKS5_8PositionESt10_Select1stIS9_ESt4lessIS5_ESaIS9_EE11_M_put_nodeEPSt13_Rb_tree_nodeIS9_E
FN:583,_ZNSt8_Rb_treeI9PieceNameSt4pairIKS0_cESt10_Select1stIS3_ESt4lessIS0_ESaIS3_EE11_M_put_nodeEPSt13_Rb_tree_nodeIS3_E
FNDA:0,_ZNSt8_Rb_treeI9PieceNameSt4pairIKS0_cESt10_Select1stIS3_ESt4lessIS0_ESaIS3_EE11_M_put_nodeEPSt13_Rb_tree_nodeIS3_E
FN:609,_ZNSt8_Rb_treeI9PieceNameSt4pairIKS0_cESt10_Select1stIS3_ESt4lessIS0_ESaIS3_EE17_M_construct_nodeIJRKS3_EEEvPSt13_Rb_tree_nodeIS3_EDpOT_
FNDA:0,_ZNSt8_Rb_treeI9PieceNameSt4pairIKS0_cESt10_Select1stIS3_ESt4lessIS0_ESaIS3_EE17_M_construct_nodeIJRKS3_EEEvPSt13_Rb_tree_nodeIS3_EDpOT_
FN:609,_ZNSt8_Rb_treeI9PieceNameSt4pairIKS0_cESt10_Select1stIS3_ESt4lessIS0_ESaIS3_EE17_M_construct_nodeIJRKSt21piecewise_construct_tSt5tupleIJRS2_EESE_IJEEEEEvPSt13_Rb_tree_nodeIS3_EDpOT_
FNDA:0,_ZNSt8_Rb_treeI9PieceNameSt4pairIKS0_cESt10_Select1stIS3_ESt4lessIS0_ESaIS3_EE17_M_construct_nodeIJRKSt21piecewise_construct_tSt5tupleIJRS2_EESE_IJEEEEEvPSt13_Rb_tree_nodeIS3_EDpOT_
FN:609,_ZNSt8_Rb_treeINSt7__cxx1112basic_stringIcSt11char_traitsIcESaIcEEESt4pairIKS5_8PositionESt10_Select1stIS9_ESt4lessIS5_ESaIS9_EE17_M_construct_nodeIJS9_EEEvPSt13_Rb_tree_nodeIS9_EDpOT_
FNDA:896,_ZNSt8_Rb_treeINSt7__cxx1112basic_stringIcSt11char_traitsIcESaIcEEESt4pairIKS5_8PositionESt10_Select1stIS9_ESt4lessIS5_ESaIS9_EE17_M_construct_nodeIJS9_EEEvPSt13_Rb_tree_nodeIS9_EDpOT_
FN:628,_ZNSt8_Rb_treeI9PieceNameSt4pairIKS0_cESt10_Select1stIS3_ESt4lessIS0_ESaIS3_EE14_M_create_nodeIJRKSt21piecewise_construct_tSt5tupleIJRS2_EESE_IJEEEEEPSt13_Rb_tree_nodeIS3_EDpOT_
FNDA:0,_ZNSt8_Rb_treeI9PieceNameSt4pairIKS0_cESt10_Select1stIS3_ESt4lessIS0_ESaIS3_EE14_M_create_nodeIJRKSt21piecewise_construct_tSt5tupleIJRS2_EESE_IJEEEEEPSt13_Rb_tree_nodeIS3_EDpOT_
FN:628,_ZNSt8_Rb_treeI9PieceNameSt4pairIKS0_cESt10_Select1stIS3_ESt4lessIS0_ESaIS3_EE14_M_create_nodeIJRKS3_EEEPSt13_Rb_tree_nodeIS3_EDpOT_
FNDA:0,_ZNSt8_Rb_treeI9PieceNameSt4pairIKS0_cESt10_Select1stIS3_ESt4lessIS0_ESaIS3_EE14_M_create_nodeIJRKS3_EEEPSt13_Rb_tree_nodeIS3_EDpOT_
FN:628,_ZNSt8_Rb_treeINSt7__cxx1112basic_stringIcSt11char_traitsIcESaIcEEESt4pairIKS5_8PositionESt10_Select1stIS9_ESt4lessIS5_ESaIS9_EE14_M_create_nodeIJS9_EEEPSt13_Rb_tree_nodeIS9_EDpOT_
FNDA:896,_ZNSt8_Rb_treeINSt7__cxx1112basic_stringIcSt11char_traitsIcESaIcEEESt4pairIKS5_8PositionESt10_Select1stIS9_ESt4lessIS5_ESaIS9_EE14_M_create_nodeIJS9_EEEPSt13_Rb_tree_nodeIS9_EDpOT_
FN:637,_ZNSt8_Rb_treeINSt7__cxx1112basic_stringIcSt11char_traitsIcESaIcEEESt4pairIKS5_8PositionESt10_Select1stIS9_ESt4lessIS5_ESaIS9_EE15_M_destroy_nodeEPSt13_Rb_tree_nodeIS9_E
FNDA:0,_ZNSt8_Rb_treeINSt7__cxx1112basic_stringIcSt11char_traitsIcESaIcEEESt4pairIKS5_8PositionESt10_Select1stIS9_ESt4lessIS5_ESaIS9_EE15_M_destroy_nodeEPSt13_Rb_tree_nodeIS9_E
FN:637,_ZNSt8_Rb_treeI9PieceNameSt4pairIKS0_cESt10_Select1stIS3_ESt4lessIS0_ESaIS3_EE15_M_destroy_nodeEPSt13_Rb_tree_nodeIS3_E
FNDA:0,_ZNSt8_Rb_treeI9PieceNameSt4pairIKS0_cESt10_Select1stIS3_ESt4lessIS0_ESaIS3_EE15_M_destroy_nodeEPSt13_Rb_tree_nodeIS3_E
FN:648,_ZNSt8_Rb_treeINSt7__cxx1112basic_stringIcSt11char_traitsIcESaIcEEESt4pairIKS5_8PositionESt10_Select1stIS9_ESt4lessIS5_ESaIS9_EE12_M_drop_nodeEPSt13_Rb_tree_nodeIS9_E
FNDA:0,_ZNSt8_Rb_treeINSt7__cxx1112basic_stringIcSt11char_traitsIcESaIcEEESt4pairIKS5_8PositionESt10_Select1stIS9_ESt4lessIS5_ESaIS9_EE12_M_drop_nodeEPSt13_Rb_tree_nodeIS9_E
FN:648,_ZNSt8_Rb_treeI9PieceNameSt4pairIKS0_cESt10_Select1stIS3_ESt4lessIS0_ESaIS3_EE12_M_drop_nodeEPSt13_Rb_tree_nodeIS3_E
FNDA:0,_ZNSt8_Rb_treeI9PieceNameSt4pairIKS0_cESt10_Select1stIS3_ESt4lessIS0_ESaIS3_EE12_M_drop_nodeEPSt13_Rb_tree_nodeIS3_E
FN:680,_ZNSt8_Rb_treeINSt7__cxx1112basic_stringIcSt11char_traitsIcESaIcEEESt4pairIKS5_8PositionESt10_Select1stIS9_ESt4lessIS5_ESaIS9_EE13_Rb_tree_implISD_Lb1EEC2Ev
FNDA:24,_ZNSt8_Rb_treeINSt7__cxx1112basic_stringIcSt11char_traitsIcESaIcEEESt4pairIKS5_8PositionESt10_Select1stIS9_ESt4lessIS5_ESaIS9_EE13_Rb_tree_implISD_Lb1EEC2Ev
FN:710,_ZNSt8_Rb_treeI9PieceNameSt4pairIKS0_cESt10_Select1stIS3_ESt4lessIS0_ESaIS3_EE13_Rb_tree_implIS7_Lb1EEC2ERKS7_OSaISt13_Rb_tree_nodeIS3_EE
FNDA:81,_ZNSt8_Rb_treeI9PieceNameSt4pairIKS0_cESt10_Select1stIS3_ESt4lessIS0_ESaIS3_EE13_Rb_tree_implIS7_Lb1EEC2ERKS7_OSaISt13_Rb_tree_nodeIS3_EE
FN:728,_ZNSt8_Rb_treeI9PieceNameSt4pairIKS0_cESt10_Select1stIS3_ESt4lessIS0_ESaIS3_EE11_M_leftmostEv
FNDA:0,_ZNSt8_Rb_treeI9PieceNameSt4pairIKS0_cESt10_Select1stIS3_ESt4lessIS0_ESaIS3_EE11_M_leftmostEv
FN:736,_ZNSt8_Rb_treeI9PieceNameSt4pairIKS0_cESt10_Select1stIS3_ESt4lessIS0_ESaIS3_EE12_M_rightmostEv
FNDA:0,_ZNSt8_Rb_treeI9PieceNameSt4pairIKS0_cESt10_Select1stIS3_ESt4lessIS0_ESaIS3_EE12_M_rightmostEv
FN:744,_ZNSt8_Rb_treeINSt7__cxx1112basic_stringIcSt11char_traitsIcESaIcEEESt4pairIKS5_8PositionESt10_Select1stIS9_ESt4lessIS5_ESaIS9_EE8_M_beginEv
FNDA:0,_ZNSt8_Rb_treeINSt7__cxx1112basic_stringIcSt11char_traitsIcESaIcEEESt4pairIKS5_8PositionESt10_Select1stIS9_ESt4lessIS5_ESaIS9_EE8_M_beginEv
FN:744,_ZNSt8_Rb_treeI9PieceNameSt4pairIKS0_cESt10_Select1stIS3_ESt4lessIS0_ESaIS3_EE8_M_beginEv
FNDA:0,_ZNSt8_Rb_treeI9PieceNameSt4pairIKS0_cESt10_Select1stIS3_ESt4lessIS0_ESaIS3_EE8_M_beginEv
FN:748,_ZNKSt8_Rb_treeINSt7__cxx1112basic_stringIcSt11char_traitsIcESaIcEEESt4pairIKS5_8PositionESt10_Select1stIS9_ESt4lessIS5_ESaIS9_EE8_M_beginEv
FNDA:0,_ZNKSt8_Rb_treeINSt7__cxx1112basic_stringIcSt11char_traitsIcESaIcEEESt4pairIKS5_8PositionESt10_Select1stIS9_ESt4lessIS5_ESaIS9_EE8_M_beginEv
FN:755,_ZNSt8_Rb_treeINSt7__cxx1112basic_stringIcSt11char_traitsIcESaIcEEESt4pairIKS5_8PositionESt10_Select1stIS9_ESt4lessIS5_ESaIS9_EE6_M_endEv
FNDA:0,_ZNSt8_Rb_treeINSt7__cxx1112basic_stringIcSt11char_traitsIcESaIcEEESt4pairIKS5_8PositionESt10_Select1stIS9_ESt4lessIS5_ESaIS9_EE6_M_endEv
FN:755,_ZNSt8_Rb_treeI9PieceNameSt4pairIKS0_cESt10_Select1stIS3_ESt4lessIS0_ESaIS3_EE6_M_endEv
FNDA:0,_ZNSt8_Rb_treeI9PieceNameSt4pairIKS0_cESt10_Select1stIS3_ESt4lessIS0_ESaIS3_EE6_M_endEv
FN:759,_ZNKSt8_Rb_treeINSt7__cxx1112basic_stringIcSt11char_traitsIcESaIcEEESt4pairIKS5_8PositionESt10_Select1stIS9_ESt4lessIS5_ESaIS9_EE6_M_endEv
FNDA:48,_ZNKSt8_Rb_treeINSt7__cxx1112basic_stringIcSt11char_traitsIcESaIcEEESt4pairIKS5_8PositionESt10_Select1stIS9_ESt4lessIS5_ESaIS9_EE6_M_endEv
FN:767,_ZNSt8_Rb_treeINSt7__cxx1112basic_stringIcSt11char_traitsIcESaIcEEESt4pairIKS5_8PositionESt10_Select1stIS9_ESt4lessIS5_ESaIS9_EE6_S_keyEPKSt13_Rb_tree_nodeIS9_E
FNDA:8301,_ZNSt8_Rb_treeINSt7__cxx1112basic_stringIcSt11char_traitsIcESaIcEEESt4pairIKS5_8PositionESt10_Select1stIS9_ESt4lessIS5_ESaIS9_EE6_S_keyEPKSt13_Rb_tree_nodeIS9_E
FN:767,_ZNSt8_Rb_treeI9PieceNameSt4pairIKS0_cESt10_Select1stIS3_ESt4lessIS0_ESaIS3_EE6_S_keyEPKSt13_Rb_tree_nodeIS3_E
FNDA:8744,_ZNSt8_Rb_treeI9PieceNameSt4pairIKS0_cESt10_Select1stIS3_ESt4lessIS0_ESaIS3_EE6_S_keyEPKSt13_Rb_tree_nodeIS3_E
FN:789,_ZNSt8_Rb_treeINSt7__cxx1112basic_stringIcSt11char_traitsIcESaIcEEESt4pairIKS5_8PositionESt10_Select1stIS9_ESt4lessIS5_ESaIS9_EE7_S_leftEPSt18_Rb_tree_node_base
FNDA:0,_ZNSt8_Rb_treeINSt7__cxx1112basic_stringIcSt11char_traitsIcESaIcEEESt4pairIKS5_8PositionESt10_Select1stIS9_ESt4lessIS5_ESaIS9_EE7_S_leftEPSt18_Rb_tree_node_base
FN:789,_ZNSt8_Rb_treeI9PieceNameSt4pairIKS0_cESt10_Select1stIS3_ESt4lessIS0_ESaIS3_EE7_S_leftEPSt18_Rb_tree_node_base
FNDA:0,_ZNSt8_Rb_treeI9PieceNameSt4pairIKS0_cESt10_Select1stIS3_ESt4lessIS0_ESaIS3_EE7_S_leftEPSt18_Rb_tree_node_base
FN:793,_ZNSt8_Rb_treeINSt7__cxx1112basic_stringIcSt11char_traitsIcESaIcEEESt4pairIKS5_8PositionESt10_Select1stIS9_ESt4lessIS5_ESaIS9_EE7_S_leftEPKSt18_Rb_tree_node_base
FNDA:0,_ZNSt8_Rb_treeINSt7__cxx1112basic_stringIcSt11char_traitsIcESaIcEEESt4pairIKS5_8PositionESt10_Select1stIS9_ESt4lessIS5_ESaIS9_EE7_S_leftEPKSt18_Rb_tree_node_base
FN:797,_ZNSt8_Rb_treeINSt7__cxx1112basic_stringIcSt11char_traitsIcESaIcEEESt4pairIKS5_8PositionESt10_Select1stIS9_ESt4lessIS5_ESaIS9_EE8_S_rightEPSt18_Rb_tree_node_base
FNDA:0,_ZNSt8_Rb_treeINSt7__cxx1112basic_stringIcSt11char_traitsIcESaIcEEESt4pairIKS5_8PositionESt10_Select1stIS9_ESt4lessIS5_ESaIS9_EE8_S_rightEPSt18_Rb_tree_node_base
FN:797,_ZNSt8_Rb_treeI9PieceNameSt4pairIKS0_cESt10_Select1stIS3_ESt4lessIS0_ESaIS3_EE8_S_rightEPSt18_Rb_tree_node_base
FNDA:0,_ZNSt8_Rb_treeI9PieceNameSt4pairIKS0_cESt10_Select1stIS3_ESt4lessIS0_ESaIS3_EE8_S_rightEPSt18_Rb_tree_node_base
FN:801,_ZNSt8_Rb_treeINSt7__cxx1112basic_stringIcSt11char_traitsIcESaIcEEESt4pairIKS5_8PositionESt10_Select1stIS9_ESt4lessIS5_ESaIS9_EE8_S_rightEPKSt18_Rb_tree_node_base
FNDA:0,_ZNSt8_Rb_treeINSt7__cxx1112basic_stringIcSt11char_traitsIcESaIcEEESt4pairIKS5_8PositionESt10_Select1stIS9_ESt4lessIS5_ESaIS9_EE8_S_rightEPKSt18_Rb_tree_node_base
FN:809,_ZNSt8_Rb_treeI9PieceNameSt4pairIKS0_cESt10_Select1stIS3_ESt4lessIS0_ESaIS3_EE6_S_keyEPKSt18_Rb_tree_node_base
FNDA:810,_ZNSt8_Rb_treeI9PieceNameSt4pairIKS0_cESt10_Select1stIS3_ESt4lessIS0_ESaIS3_EE6_S_keyEPKSt18_Rb_tree_node_base
FN:809,_ZNSt8_Rb_treeINSt7__cxx1112basic_stringIcSt11char_traitsIcESaIcEEESt4pairIKS5_8PositionESt10_Select1stIS9_ESt4lessIS5_ESaIS9_EE6_S_keyEPKSt18_Rb_tree_node_base
FNDA:1812,_ZNSt8_Rb_treeINSt7__cxx1112basic_stringIcSt11char_traitsIcESaIcEEESt4pairIKS5_8PositionESt10_Select1stIS9_ESt4lessIS5_ESaIS9_EE6_S_keyEPKSt18_Rb_tree_node_base
FN:939,_ZNSt8_Rb_treeINSt7__cxx1112basic_stringIcSt11char_traitsIcESaIcEEESt4pairIKS5_8PositionESt10_Select1stIS9_ESt4lessIS5_ESaIS9_EEC2Ev
FNDA:24,_ZNSt8_Rb_treeINSt7__cxx1112basic_stringIcSt11char_traitsIcESaIcEEESt4pairIKS5_8PositionESt10_Select1stIS9_ESt4lessIS5_ESaIS9_EEC2Ev
FN:942,_ZNSt8_Rb_treeI9PieceNameSt4pairIKS0_cESt10_Select1stIS3_ESt4lessIS0_ESaIS3_EEC2ERKS7_RKS8_
FNDA:81,_ZNSt8_Rb_treeI9PieceNameSt4pairIKS0_cESt10_Select1stIS3_ESt4lessIS0_ESaIS3_EEC2ERKS7_RKS8_
FN:994,_ZNSt8_Rb_treeI9PieceNameSt4pairIKS0_cESt10_Select1stIS3_ESt4lessIS0_ESaIS3_EED2Ev
FNDA:0,_ZNSt8_Rb_treeI9PieceNameSt4pairIKS0_cESt10_Select1stIS3_ESt4lessIS0_ESaIS3_EED2Ev
FN:994,_ZNSt8_Rb_treeINSt7__cxx1112basic_stringIcSt11char_traitsIcESaIcEEESt4pairIKS5_8PositionESt10_Select1stIS9_ESt4lessIS5_ESaIS9_EED2Ev
FNDA:0,_ZNSt8_Rb_treeINSt7__cxx1112basic_stringIcSt11char_traitsIcESaIcEEESt4pairIKS5_8PositionESt10_Select1stIS9_ESt4lessIS5_ESaIS9_EED2Ev
FN:1002,_ZNKSt8_Rb_treeI9PieceNameSt4pairIKS0_cESt10_Select1stIS3_ESt4lessIS0_ESaIS3_EE8key_compEv
FNDA:3648,_ZNKSt8_Rb_treeI9PieceNameSt4pairIKS0_cESt10_Select1stIS3_ESt4lessIS0_ESaIS3_EE8key_compEv
FN:1006,_ZNSt8_Rb_treeINSt7__cxx1112basic_stringIcSt11char_traitsIcESaIcEEESt4pairIKS5_8PositionESt10_Select1stIS9_ESt4lessIS5_ESaIS9_EE5beginEv
FNDA:14,_ZNSt8_Rb_treeINSt7__cxx1112basic_stringIcSt11char_traitsIcESaIcEEESt4pairIKS5_8PositionESt10_Select1stIS9_ESt4lessIS5_ESaIS9_EE5beginEv
FN:1006,_ZNSt8_Rb_treeI9PieceNameSt4pairIKS0_cESt10_Select1stIS3_ESt4lessIS0_ESaIS3_EE5beginEv
FNDA:243,_ZNSt8_Rb_treeI9PieceNameSt4pairIKS0_cESt10_Select1stIS3_ESt4lessIS0_ESaIS3_EE5beginEv
FN:1010,_ZNKSt8_Rb_treeI9PieceNameSt4pairIKS0_cESt10_Select1stIS3_ESt4lessIS0_ESaIS3_EE5beginEv
FNDA:33,_ZNKSt8_Rb_treeI9PieceNameSt4pairIKS0_cESt10_Select1stIS3_ESt4lessIS0_ESaIS3_EE5beginEv
FN:1014,_ZNSt8_Rb_treeI9PieceNameSt4pairIKS0_cESt10_Select1stIS3_ESt4lessIS0_ESaIS3_EE3endEv
FNDA:4053,_ZNSt8_Rb_treeI9PieceNameSt4pairIKS0_cESt10_Select1stIS3_ESt4lessIS0_ESaIS3_EE3endEv
FN:1018,_ZNKSt8_Rb_treeI9PieceNameSt4pairIKS0_cESt10_Select1stIS3_ESt4lessIS0_ESaIS3_EE3endEv
FNDA:33,_ZNKSt8_Rb_treeI9PieceNameSt4pairIKS0_cESt10_Select1stIS3_ESt4lessIS0_ESaIS3_EE3endEv
FN:1018,_ZNKSt8_Rb_treeINSt7__cxx1112basic_stringIcSt11char_traitsIcESaIcEEESt4pairIKS5_8PositionESt10_Select1stIS9_ESt4lessIS5_ESaIS9_EE3endEv
FNDA:96,_ZNKSt8_Rb_treeINSt7__cxx1112basic_stringIcSt11char_traitsIcESaIcEEESt4pairIKS5_8PositionESt10_Select1stIS9_ESt4lessIS5_ESaIS9_EE3endEv
FN:1042,_ZNKSt8_Rb_treeI9PieceNameSt4pairIKS0_cESt10_Select1stIS3_ESt4lessIS0_ESaIS3_EE4sizeEv
FNDA:405,_ZNKSt8_Rb_treeI9PieceNameSt4pairIKS0_cESt10_Select1stIS3_ESt4lessIS0_ESaIS3_EE4sizeEv
FN:1109,_ZNSt8_Rb_treeI9PieceNameSt4pairIKS0_cESt10_Select1stIS3_ESt4lessIS0_ESaIS3_EE22_M_insert_range_uniqueIPKS3_EENSt9enable_ifIXsrSt7is_sameIS3_NSt15iterator_traitsIT_E10value_typeEE5valueEvE4typeESG_SG_
FNDA:81,_ZNSt8_Rb_treeI9PieceNameSt4pairIKS0_cESt10_Select1stIS3_ESt4lessIS0_ESaIS3_EE22_M_insert_range_uniqueIPKS3_EENSt9enable_ifIXsrSt7is_sameIS3_NSt15iterator_traitsIT_E10value_typeEE5valueEvE4typeESG_SG_
FN:1281,_ZNSt8_Rb_treeI9PieceNameSt4pairIKS0_cESt10_Select1stIS3_ESt4lessIS0_ESaIS3_EE11lower_boundERS2_
FNDA:3648,_ZNSt8_Rb_treeI9PieceNameSt4pairIKS0_cESt10_Select1stIS3_ESt4lessIS0_ESaIS3_EE11lower_boundERS2_
FN:1797,_ZNSt8_Rb_treeINSt7__cxx1112basic_stringIcSt11char_traitsIcESaIcEEESt4pairIKS5_8PositionESt10_Select1stIS9_ESt4lessIS5_ESaIS9_EE10_M_insert_IS9_NSF_11_Alloc_nodeEEESt17_Rb_tree_iteratorIS9_EPSt18_Rb_tree_node_baseSL_OT_RT0_
FNDA:896,_ZNSt8_Rb_treeINSt7__cxx1112basic_stringIcSt11char_traitsIcESaIcEEESt4pairIKS5_8PositionESt10_Select1stIS9_ESt4lessIS5_ESaIS9_EE10_M_insert_IS9_NSF_11_Alloc_nodeEEESt17_Rb_tree_iteratorIS9_EPSt18_Rb_tree_node_baseSL_OT_RT0_
FN:1797,_ZNSt8_Rb_treeI9PieceNameSt4pairIKS0_cESt10_Select1stIS3_ESt4lessIS0_ESaIS3_EE10_M_insert_IRKS3_NS9_11_Alloc_nodeEEESt17_Rb_tree_iteratorIS3_EPSt18_Rb_tree_node_baseSH_OT_RT0_
FNDA:405,_ZNSt8_Rb_treeI9PieceNameSt4pairIKS0_cESt10_Select1stIS3_ESt4lessIS0_ESaIS3_EE10_M_insert_IRKS3_NS9_11_Alloc_nodeEEESt17_Rb_tree_iteratorIS3_EPSt18_Rb_tree_node_baseSH_OT_RT0_
FN:1907,_ZNSt8_Rb_treeINSt7__cxx1112basic_stringIcSt11char_traitsIcESaIcEEESt4pairIKS5_8PositionESt10_Select1stIS9_ESt4lessIS5_ESaIS9_EE8_M_eraseEPSt13_Rb_tree_nodeIS9_E
FNDA:0,_ZNSt8_Rb_treeINSt7__cxx1112basic_stringIcSt11char_traitsIcESaIcEEESt4pairIKS5_8PositionESt10_Select1stIS9_ESt4lessIS5_ESaIS9_EE8_M_eraseEPSt13_Rb_tree_nodeIS9_E
FN:1907,_ZNSt8_Rb_treeI9PieceNameSt4pairIKS0_cESt10_Select1stIS3_ESt4lessIS0_ESaIS3_EE8_M_eraseEPSt13_Rb_tree_nodeIS3_E
FNDA:0,_ZNSt8_Rb_treeI9PieceNameSt4pairIKS0_cESt10_Select1stIS3_ESt4lessIS0_ESaIS3_EE8_M_eraseEPSt13_Rb_tree_nodeIS3_E
FN:1924,_ZNSt8_Rb_treeI9PieceNameSt4pairIKS0_cESt10_Select1stIS3_ESt4lessIS0_ESaIS3_EE14_M_lower_boundEPSt13_Rb_tree_nodeIS3_EPSt18_Rb_tree_node_baseRS2_
FNDA:3648,_ZNSt8_Rb_treeI9PieceNameSt4pairIKS0_cESt10_Select1stIS3_ESt4lessIS0_ESaIS3_EE14_M_lower_boundEPSt13_Rb_tree_nodeIS3_EPSt18_Rb_tree_node_baseRS2_
FN:1940,_ZNKSt8_Rb_treeINSt7__cxx1112basic_stringIcSt11char_traitsIcESaIcEEESt4pairIKS5_8PositionESt10_Select1stIS9_ESt4lessIS5_ESaIS9_EE14_M_lower_boundEPKSt13_Rb_tree_nodeIS9_EPKSt18_Rb_tree_node_baseRS7_
FNDA:48,_ZNKSt8_Rb_treeINSt7__cxx1112basic_stringIcSt11char_traitsIcESaIcEEESt4pairIKS5_8PositionESt10_Select1stIS9_ESt4lessIS5_ESaIS9_EE14_M_lower_boundEPKSt13_Rb_tree_nodeIS9_EPKSt18_Rb_tree_node_baseRS7_
FN:2085,_ZNSt8_Rb_treeI9PieceNameSt4pairIKS0_cESt10_Select1stIS3_ESt4lessIS0_ESaIS3_EE24_M_get_insert_unique_posERS2_
FNDA:243,_ZNSt8_Rb_treeI9PieceNameSt4pairIKS0_cESt10_Select1stIS3_ESt4lessIS0_ESaIS3_EE24_M_get_insert_unique_posERS2_
FN:2085,_ZNSt8_Rb_treeINSt7__cxx1112basic_stringIcSt11char_traitsIcESaIcEEESt4pairIKS5_8PositionESt10_Select1stIS9_ESt4lessIS5_ESaIS9_EE24_M_get_insert_unique_posERS7_
FNDA:896,_ZNSt8_Rb_treeINSt7__cxx1112basic_stringIcSt11char_traitsIcESaIcEEESt4pairIKS5_8PositionESt10_Select1stIS9_ESt4lessIS5_ESaIS9_EE24_M_get_insert_unique_posERS7_
FN:2139,_ZNSt8_Rb_treeINSt7__cxx1112basic_stringIcSt11char_traitsIcESaIcEEESt4pairIKS5_8PositionESt10_Select1stIS9_ESt4lessIS5_ESaIS9_EE16_M_insert_uniqueIS9_EES6_ISt17_Rb_tree_iteratorIS9_EbEOT_
FNDA:896,_ZNSt8_Rb_treeINSt7__cxx1112basic_stringIcSt11char_traitsIcESaIcEEESt4pairIKS5_8PositionESt10_Select1stIS9_ESt4lessIS5_ESaIS9_EE16_M_insert_uniqueIS9_EES6_ISt17_Rb_tree_iteratorIS9_EbEOT_
FN:2187,_ZNSt8_Rb_treeI9PieceNameSt4pairIKS0_cESt10_Select1stIS3_ESt4lessIS0_ESaIS3_EE29_M_get_insert_hint_unique_posESt23_Rb_tree_const_iteratorIS3_ERS2_
FNDA:405,_ZNSt8_Rb_treeI9PieceNameSt4pairIKS0_cESt10_Select1stIS3_ESt4lessIS0_ESaIS3_EE29_M_get_insert_hint_unique_posESt23_Rb_tree_const_iteratorIS3_ERS2_
FN:2248,_ZNSt8_Rb_treeI9PieceNameSt4pairIKS0_cESt10_Select1stIS3_ESt4lessIS0_ESaIS3_EE17_M_insert_unique_IRKS3_NS9_11_Alloc_nodeEEESt17_Rb_tree_iteratorIS3_ESt23_Rb_tree_const_iteratorIS3_EOT_RT0_
FNDA:405,_ZNSt8_Rb_treeI9PieceNameSt4pairIKS0_cESt10_Select1stIS3_ESt4lessIS0_ESaIS3_EE17_M_insert_unique_IRKS3_NS9_11_Alloc_nodeEEESt17_Rb_tree_iteratorIS3_ESt23_Rb_tree_const_iteratorIS3_EOT_RT0_
FN:2354,_ZNSt8_Rb_treeI9PieceNameSt4pairIKS0_cESt10_Select1stIS3_ESt4lessIS0_ESaIS3_EE14_M_insert_nodeEPSt18_Rb_tree_node_baseSB_PSt13_Rb_tree_nodeIS3_E
FNDA:0,_ZNSt8_Rb_treeI9PieceNameSt4pairIKS0_cESt10_Select1stIS3_ESt4lessIS0_ESaIS3_EE14_M_insert_nodeEPSt18_Rb_tree_node_baseSB_PSt13_Rb_tree_nodeIS3_E
FN:2452,_ZNSt8_Rb_treeI9PieceNameSt4pairIKS0_cESt10_Select1stIS3_ESt4lessIS0_ESaIS3_EE22_M_emplace_hint_uniqueIJRKSt21piecewise_construct_tSt5tupleIJRS2_EESE_IJEEEEESt17_Rb_tree_iteratorIS3_ESt23_Rb_tree_const_iteratorIS3_EDpOT_
FNDA:0,_ZNSt8_Rb_treeI9PieceNameSt4pairIKS0_cESt10_Select1stIS3_ESt4lessIS0_ESaIS3_EE22_M_emplace_hint_uniqueIJRKSt21piecewise_construct_tSt5tupleIJRS2_EESE_IJEEEEESt17_Rb_tree_iteratorIS3_ESt23_Rb_tree_const_iteratorIS3_EDpOT_
FN:2567,_ZNKSt8_Rb_treeINSt7__cxx1112basic_stringIcSt11char_traitsIcESaIcEEESt4pairIKS5_8PositionESt10_Select1stIS9_ESt4lessIS5_ESaIS9_EE4findERS7_
FNDA:48,_ZNKSt8_Rb_treeINSt7__cxx1112basic_stringIcSt11char_traitsIcESaIcEEESt4pairIKS5_8PositionESt10_Select1stIS9_ESt4lessIS5_ESaIS9_EE4findERS7_
DA:146,24
DA:150,24
DA:152,0
DA:154,0
DA:173,0
DA:174,0
DA:175,0
DA:176,0
DA:177,0
DA:206,0
DA:208,0
DA:209,0
DA:210,0
DA:211,0
DA:212,0
DA:234,0
DA:235,0
DA:234,0
DA:235,0
DA:238,0
DA:239,0
DA:238,0
DA:239,0
DA:273,8997
DA:274,8997
DA:273,1806
DA:274,1806
DA:277,7296
DA:278,7296
DA:285,0
DA:287,0
DA:288,0
DA:300,162
DA:302,162
DA:303,162
DA:300,0
DA:302,0
DA:303,0
DA:315,14
DA:316,14
DA:315,3891
DA:316,3891
DA:345,144
DA:346,144
DA:345,66
DA:346,66
DA:348,405
DA:349,405
DA:352,405
DA:353,405
DA:356,125
DA:357,125
DA:360,48
DA:361,48
DA:360,33
DA:361,33
DA:364,92
DA:366,92
DA:367,92
DA:394,48
DA:395,48
DA:398,125
DA:399,125
DA:398,48
DA:399,48
DA:538,0
DA:539,0
DA:538,0
DA:539,0
DA:546,0
DA:548,0
DA:546,896
DA:548,896
DA:566,0
DA:567,0
DA:566,0
DA:567,0
DA:579,0
DA:580,0
DA:579,0
DA:580,0
DA:583,0
DA:584,0
DA:583,0
DA:584,0
DA:609,0
DA:613,0
DA:614,0
DA:624,0
DA:609,896
DA:613,896
DA:614,896
DA:618,0
DA:620,0
DA:621,0
DA:622,0
DA:624,896
DA:609,0
DA:613,0
DA:614,0
DA:618,0
DA:620,0
DA:621,0
DA:622,0
DA:624,0
DA:628,0
DA:630,0
DA:631,0
DA:632,0
DA:628,896
DA:630,896
DA:631,896
DA:632,896
DA:628,0
DA:630,0
DA:631,0
DA:632,0
DA:637,0
DA:642,0
DA:643,0
DA:645,0
DA:637,0
DA:642,0
DA:643,0
DA:645,0
DA:648,0
DA:650,0
DA:651,0
DA:652,0
DA:648,0
DA:650,0
DA:651,0
DA:652,0
DA:680,24
DA:684,24
DA:685,24
DA:710,81
DA:711,81
DA:712,81
DA:728,0
DA:729,0
DA:736,0
DA:737,0
DA:744,0
DA:745,0
DA:744,0
DA:745,0
DA:748,0
DA:751,0
DA:755,0
DA:756,0
DA:755,0
DA:756,0
DA:759,48
DA:760,48
DA:767,8301
DA:785,8301
DA:767,8744
DA:785,8744
DA:789,0
DA:790,0
DA:789,0
DA:790,0
DA:793,0
DA:794,0
DA:797,0
DA:798,0
DA:797,0
DA:798,0
DA:801,0
DA:802,0
DA:809,810
DA:810,810
DA:809,1812
DA:810,1812
DA:939,24
DA:942,81
DA:944,81
DA:994,0
DA:995,0
DA:994,0
DA:995,0
DA:1002,3648
DA:1003,3648
DA:1006,243
DA:1007,243
DA:1006,14
DA:1007,14
DA:1010,33
DA:1011,33
DA:1014,4053
DA:1015,4053
DA:1018,96
DA:1019,96
DA:1018,33
DA:1019,33
DA:1042,405
DA:1043,405
DA:1109,81
DA:1111,81
DA:1112,486
DA:1113,405
DA:1114,81
DA:1281,3648
DA:1282,3648
DA:1797,405
DA:1806,405
DA:1807,810
DA:1810,405
DA:1812,405
DA:1813,405
DA:1814,405
DA:1815,405
DA:1797,896
DA:1806,896
DA:1807,1792
DA:1810,896
DA:1812,896
DA:1813,896
DA:1814,896
DA:1815,896
DA:1907,0
DA:1911,0
DA:1913,0
DA:1914,0
DA:1915,0
DA:1916,0
DA:1918,0
DA:1907,0
DA:1911,0
DA:1913,0
DA:1914,0
DA:1915,0
DA:1916,0
DA:1918,0
DA:1924,11177
DA:1928,11177
DA:1929,7529
DA:1930,7114
DA:1932,415
DA:1933,3648
DA:1940,335
DA:1944,335
DA:1945,287
DA:1946,169
DA:1948,118
DA:1949,48
DA:2085,243
DA:2089,243
DA:2090,243
DA:2091,243
DA:2092,648
DA:2094,405
DA:2095,405
DA:2096,405
DA:2098,243
DA:2099,243
DA:2101,243
DA:2102,81
DA:2104,162
DA:2106,162
DA:2107,162
DA:2108,0
DA:2085,896
DA:2089,896
DA:2090,896
DA:2091,896
DA:2092,7098
DA:2094,6202
DA:2095,6202
DA:2096,6202
DA:2098,896
DA:2099,896
DA:2101,14
DA:2102,14
DA:2104,0
DA:2106,882
DA:2107,882
DA:2108,0
DA:2139,896
DA:2147,896
DA:2148,896
DA:2150,896
DA:2152,896
DA:2153,896
DA:2155,1792
DA:2158,0
DA:2187,405
DA:2191,405
DA:2195,405
DA:2197,405
DA:2198,405
DA:2199,162
DA:2201,243
DA:2203,0
DA:2206,0
DA:2207,0
DA:2208,0
DA:2209,0
DA:2211,0
DA:2212,0
DA:2214,0
DA:2217,0
DA:2219,0
DA:2222,0
DA:2223,0
DA:2224,0
DA:2225,0
DA:2227,0
DA:2228,0
DA:2230,0
DA:2233,0
DA:2237,0
DA:2248,405
DA:2257,405
DA:2258,405
DA:2260,405
DA:2263,405
DA:2264,0
DA:2354,0
DA:2357,0
DA:2358,0
DA:2361,0
DA:2362,0
DA:2363,0
DA:2364,0
DA:2452,0
DA:2455,0
DA:2459,0
DA:2461,0
DA:2462,0
DA:2464,0
DA:2465,0
DA:2467,0
DA:2469,0
DA:2470,0
DA:2567,48
DA:2570,48
DA:2571,96
DA:2572,48
DA:2573,144
end_of_record
SF:/usr/include/c++/9/bits/stl_iterator.h
FN:137,_ZNSt16reverse_iteratorIPKSt5arrayI9PieceNameLm8EEEC2ES4_
FNDA:0,_ZNSt16reverse_iteratorIPKSt5arrayI9PieceNameLm8EEEC2ES4_
FN:163,_ZNKSt16reverse_iteratorIPKSt5arrayI9PieceNameLm8EEE4baseEv
FNDA:0,_ZNKSt16reverse_iteratorIPKSt5arrayI9PieceNameLm8EEE4baseEv
FN:189,_ZNKSt16reverse_iteratorIPKSt5arrayI9PieceNameLm8EEEptEv
FNDA:0,_ZNKSt16reverse_iteratorIPKSt5arrayI9PieceNameLm8EEEptEv
FN:204,_ZNSt16reverse_iteratorIPKSt5arrayI9PieceNameLm8EEEppEv
FNDA:0,_ZNSt16reverse_iteratorIPKSt5arrayI9PieceNameLm8EEEppEv
FN:304,_ZNSt16reverse_iteratorIPKSt5arrayI9PieceNameLm8EEE13_S_to_pointerIS3_EEPT_S8_
FNDA:0,_ZNSt16reverse_iteratorIPKSt5arrayI9PieceNameLm8EEE13_S_to_pointerIS3_EEPT_S8_
FN:325,_ZSteqIPKSt5arrayI9PieceNameLm8EEEbRKSt16reverse_iteratorIT_ES9_
FNDA:0,_ZSteqIPKSt5arrayI9PieceNameLm8EEEbRKSt16reverse_iteratorIT_ES9_
FN:337,_ZStneIPKSt5arrayI9PieceNameLm8EEEbRKSt16reverse_iteratorIT_ES9_
FNDA:0,_ZStneIPKSt5arrayI9PieceNameLm8EEEbRKSt16reverse_iteratorIT_ES9_
FN:806,_ZN9__gnu_cxx17__normal_iteratorIP8PositionSt6vectorIS1_SaIS1_EEEC2ERKS2_
FNDA:0,_ZN9__gnu_cxx17__normal_iteratorIP8PositionSt6vectorIS1_SaIS1_EEEC2ERKS2_
FN:819,_ZNK9__gnu_cxx17__normal_iteratorIP8PositionSt6vectorIS1_SaIS1_EEEdeEv
FNDA:0,_ZNK9__gnu_cxx17__normal_iteratorIP8PositionSt6vectorIS1_SaIS1_EEEdeEv
FN:827,_ZN9__gnu_cxx17__normal_iteratorIP8PositionSt6vectorIS1_SaIS1_EEEppEv
FNDA:0,_ZN9__gnu_cxx17__normal_iteratorIP8PositionSt6vectorIS1_SaIS1_EEEppEv
FN:871,_ZNK9__gnu_cxx17__normal_iteratorIP8PositionSt6vectorIS1_SaIS1_EEE4baseEv
FNDA:0,_ZNK9__gnu_cxx17__normal_iteratorIP8PositionSt6vectorIS1_SaIS1_EEE4baseEv
FN:907,_ZN9__gnu_cxxneIP8PositionSt6vectorIS1_SaIS1_EEEEbRKNS_17__normal_iteratorIT_T0_EESB_
FNDA:0,_ZN9__gnu_cxxneIP8PositionSt6vectorIS1_SaIS1_EEEEbRKNS_17__normal_iteratorIT_T0_EESB_
DA:137,0
DA:163,0
DA:164,0
DA:189,0
DA:193,0
DA:194,0
DA:195,0
DA:204,0
DA:206,0
DA:207,0
DA:304,0
DA:305,0
DA:325,0
DA:327,0
DA:337,0
DA:339,0
DA:806,0
DA:807,0
DA:819,0
DA:820,0
DA:827,0
DA:829,0
DA:830,0
DA:871,0
DA:872,0
DA:907,0
DA:910,0
end_of_record
SF:/usr/include/c++/9/bits/stl_vector.h
FN:94,_ZNSt12_Vector_baseI4MoveSaIS0_EE17_Vector_impl_dataC2Ev
FNDA:0,_ZNSt12_Vector_baseI4MoveSaIS0_EE17_Vector_impl_dataC2Ev
FN:94,_ZNSt12_Vector_baseI8PositionSaIS0_EE17_Vector_impl_dataC2Ev
FNDA:0,_ZNSt12_Vector_baseI8PositionSaIS0_EE17_Vector_impl_dataC2Ev
FN:99,_ZNSt12_Vector_baseI8PositionSaIS0_EE17_Vector_impl_dataC2EOS3_
FNDA:0,_ZNSt12_Vector_baseI8PositionSaIS0_EE17_Vector_impl_dataC2EOS3_
FN:99,_ZNSt12_Vector_baseI4MoveSaIS0_EE17_Vector_impl_dataC2EOS3_
FNDA:0,_ZNSt12_Vector_baseI4MoveSaIS0_EE17_Vector_impl_dataC2EOS3_
FN:128,_ZNSt12_Vector_baseI8PositionSaIS0_EE12_Vector_implC2Ev
FNDA:0,_ZNSt12_Vector_baseI8PositionSaIS0_EE12_Vector_implC2Ev
FN:128,_ZNSt12_Vector_baseI4MoveSaIS0_EE12_Vector_implC2Ev
FNDA:0,_ZNSt12_Vector_baseI4MoveSaIS0_EE12_Vector_implC2Ev
FN:140,_ZNSt12_Vector_baseI4MoveSaIS0_EE12_Vector_implC2EOS3_
FNDA:0,_ZNSt12_Vector_baseI4MoveSaIS0_EE12_Vector_implC2EOS3_
FN:140,_ZNSt12_Vector_baseI8PositionSaIS0_EE12_Vector_implC2EOS3_
FNDA:0,_ZNSt12_Vector_baseI8PositionSaIS0_EE12_Vector_implC2EOS3_
FN:273,_ZNSt12_Vector_baseI4MoveSaIS0_EE19_M_get_Tp_allocatorEv
FNDA:0,_ZNSt12_Vector_baseI4MoveSaIS0_EE19_M_get_Tp_allocatorEv
FN:273,_ZNSt12_Vector_baseI8PositionSaIS0_EE19_M_get_Tp_allocatorEv
FNDA:0,_ZNSt12_Vector_baseI8PositionSaIS0_EE19_M_get_Tp_allocatorEv
FN:285,_ZNSt12_Vector_baseI8PositionSaIS0_EEC2Ev
FNDA:0,_ZNSt12_Vector_baseI8PositionSaIS0_EEC2Ev
FN:285,_ZNSt12_Vector_baseI4MoveSaIS0_EEC2Ev
FNDA:0,_ZNSt12_Vector_baseI4MoveSaIS0_EEC2Ev
FN:305,_ZNSt12_Vector_baseI4MoveSaIS0_EEC2EOS2_
FNDA:0,_ZNSt12_Vector_baseI4MoveSaIS0_EEC2EOS2_
FN:305,_ZNSt12_Vector_baseI8PositionSaIS0_EEC2EOS2_
FNDA:0,_ZNSt12_Vector_baseI8PositionSaIS0_EEC2EOS2_
FN:330,_ZNSt12_Vector_baseI4MoveSaIS0_EED2Ev
FNDA:0,_ZNSt12_Vector_baseI4MoveSaIS0_EED2Ev
FN:330,_ZNSt12_Vector_baseI8PositionSaIS0_EED2Ev
FNDA:0,_ZNSt12_Vector_baseI8PositionSaIS0_EED2Ev
FN:347,_ZNSt12_Vector_baseI8PositionSaIS0_EE13_M_deallocateEPS0_m
FNDA:0,_ZNSt12_Vector_baseI8PositionSaIS0_EE13_M_deallocateEPS0_m
FN:347,_ZNSt12_Vector_baseI4MoveSaIS0_EE13_M_deallocateEPS0_m
FNDA:0,_ZNSt12_Vector_baseI4MoveSaIS0_EE13_M_deallocateEPS0_m
FN:484,_ZNSt6vectorI4MoveSaIS0_EEC2Ev
FNDA:0,_ZNSt6vectorI4MoveSaIS0_EEC2Ev
FN:484,_ZNSt6vectorI8PositionSaIS0_EEC2Ev
FNDA:0,_ZNSt6vectorI8PositionSaIS0_EEC2Ev
FN:569,_ZNSt6vectorI4MoveSaIS0_EEC2EOS2_
FNDA:0,_ZNSt6vectorI4MoveSaIS0_EEC2EOS2_
FN:569,_ZNSt6vectorI8PositionSaIS0_EEC2EOS2_
FNDA:0,_ZNSt6vectorI8PositionSaIS0_EEC2EOS2_
FN:675,_ZNSt6vectorI4MoveSaIS0_EED2Ev
FNDA:0,_ZNSt6vectorI4MoveSaIS0_EED2Ev
FN:675,_ZNSt6vectorI8PositionSaIS0_EED2Ev
FNDA:0,_ZNSt6vectorI8PositionSaIS0_EED2Ev
FN:808,_ZNSt6vectorI8PositionSaIS0_EE5beginEv
FNDA:0,_ZNSt6vectorI8PositionSaIS0_EE5beginEv
FN:826,_ZNSt6vectorI8PositionSaIS0_EE3endEv
FNDA:0,_ZNSt6vectorI8PositionSaIS0_EE3endEv
DA:94,0
DA:95,0
DA:96,0
DA:94,0
DA:95,0
DA:96,0
DA:99,0
DA:100,0
DA:101,0
DA:102,0
DA:99,0
DA:100,0
DA:101,0
DA:102,0
DA:128,0
DA:130,0
DA:131,0
DA:128,0
DA:130,0
DA:131,0
DA:140,0
DA:141,0
DA:142,0
DA:140,0
DA:141,0
DA:142,0
DA:273,0
DA:274,0
DA:273,0
DA:274,0
DA:285,0
DA:285,0
DA:305,0
DA:305,0
DA:330,0
DA:332,0
DA:333,0
DA:334,0
DA:330,0
DA:332,0
DA:333,0
DA:334,0
DA:347,0
DA:350,0
DA:351,0
DA:352,0
DA:347,0
DA:350,0
DA:351,0
DA:352,0
DA:484,0
DA:484,0
DA:569,0
DA:569,0
DA:675,0
DA:677,0
DA:678,0
DA:680,0
DA:675,0
DA:677,0
DA:678,0
DA:680,0
DA:808,0
DA:809,0
DA:826,0
DA:827,0
end_of_record
SF:/home/napiad/studia/eiti/mgr/sem1/zpr/checkers-webapp/checkers/src/Move.h
FN:22,_ZN4MoveC2Ev
FNDA:0,_ZN4MoveC2Ev
DA:22,0
end_of_record
SF:/usr/include/c++/9/ext/string_conversions.h
FN:54,_ZN9__gnu_cxx6__stoaIlicJiEEET0_PFT_PKT1_PPS3_DpT2_EPKcS5_PmS9_
FNDA:110,_ZN9__gnu_cxx6__stoaIlicJiEEET0_PFT_PKT1_PPS3_DpT2_EPKcS5_PmS9_
FN:63,_ZZN9__gnu_cxx6__stoaIlicJiEEET0_PFT_PKT1_PPS3_DpT2_EPKcS5_PmS9_EN11_Save_errnoC2Ev
FNDA:110,_ZZN9__gnu_cxx6__stoaIlicJiEEET0_PFT_PKT1_PPS3_DpT2_EPKcS5_PmS9_EN11_Save_errnoC2Ev
FN:64,_ZZN9__gnu_cxx6__stoaIlicJiEEET0_PFT_PKT1_PPS3_DpT2_EPKcS5_PmS9_EN11_Save_errnoD2Ev
FNDA:110,_ZZN9__gnu_cxx6__stoaIlicJiEEET0_PFT_PKT1_PPS3_DpT2_EPKcS5_PmS9_EN11_Save_errnoD2Ev
FN:73,_ZZN9__gnu_cxx6__stoaIlicJiEEET0_PFT_PKT1_PPS3_DpT2_EPKcS5_PmS9_EN10_Range_chk6_S_chkElSt17integral_constantIbLb1EE
FNDA:110,_ZZN9__gnu_cxx6__stoaIlicJiEEET0_PFT_PKT1_PPS3_DpT2_EPKcS5_PmS9_EN10_Range_chk6_S_chkElSt17integral_constantIbLb1EE
FN:99,_ZN9__gnu_cxx12__to_xstringINSt7__cxx1112basic_stringIcSt11char_traitsIcESaIcEEEcEET_PFiPT0_mPKS8_P13__va_list_tagEmSB_z
FNDA:687,_ZN9__gnu_cxx12__to_xstringINSt7__cxx1112basic_stringIcSt11char_traitsIcESaIcEEEcEET_PFiPT0_mPKS8_P13__va_list_tagEmSB_z
DA:54,110
DA:63,110
DA:64,110
DA:66,110
DA:73,110
DA:76,110
DA:80,110
DA:82,110
DA:83,0
DA:84,220
DA:85,110
DA:86,0
DA:88,110
DA:90,110
DA:91,0
DA:93,220
DA:99,687
DA:105,687
DA:109,687
DA:111,687
DA:113,687
DA:115,687
end_of_record
SF:/usr/include/c++/9/bits/alloc_traits.h
FN:443,_ZNSt16allocator_traitsISaISt13_Rb_tree_nodeISt4pairIKNSt7__cxx1112basic_stringIcSt11char_traitsIcESaIcEEE8PositionEEEE8allocateERSC_m
FNDA:0,_ZNSt16allocator_traitsISaISt13_Rb_tree_nodeISt4pairIKNSt7__cxx1112basic_stringIcSt11char_traitsIcESaIcEEE8PositionEEEE8allocateERSC_m
FN:443,_ZNSt16allocator_traitsISaISt13_Rb_tree_nodeISt4pairIK9PieceNamecEEEE8allocateERS6_m
FNDA:0,_ZNSt16allocator_traitsISaISt13_Rb_tree_nodeISt4pairIK9PieceNamecEEEE8allocateERS6_m
FN:469,_ZNSt16allocator_traitsISaISt13_Rb_tree_nodeISt4pairIKNSt7__cxx1112basic_stringIcSt11char_traitsIcESaIcEEE8PositionEEEE10deallocateERSC_PSB_m
FNDA:0,_ZNSt16allocator_traitsISaISt13_Rb_tree_nodeISt4pairIKNSt7__cxx1112basic_stringIcSt11char_traitsIcESaIcEEE8PositionEEEE10deallocateERSC_PSB_m
FN:469,_ZNSt16allocator_traitsISaISt13_Rb_tree_nodeISt4pairIK9PieceNamecEEEE10deallocateERS6_PS5_m
FNDA:0,_ZNSt16allocator_traitsISaISt13_Rb_tree_nodeISt4pairIK9PieceNamecEEEE10deallocateERS6_PS5_m
FN:469,_ZNSt16allocator_traitsISaI4MoveEE10deallocateERS1_PS0_m
FNDA:0,_ZNSt16allocator_traitsISaI4MoveEE10deallocateERS1_PS0_m
FN:469,_ZNSt16allocator_traitsISaI8PositionEE10deallocateERS1_PS0_m
FNDA:0,_ZNSt16allocator_traitsISaI8PositionEE10deallocateERS1_PS0_m
FN:482,_ZNSt16allocator_traitsISaISt13_Rb_tree_nodeISt4pairIK9PieceNamecEEEE9constructIS4_JRKS4_EEEvRS6_PT_DpOT0_
FNDA:0,_ZNSt16allocator_traitsISaISt13_Rb_tree_nodeISt4pairIK9PieceNamecEEEE9constructIS4_JRKS4_EEEvRS6_PT_DpOT0_
FN:482,_ZNSt16allocator_traitsISaISt13_Rb_tree_nodeISt4pairIKNSt7__cxx1112basic_stringIcSt11char_traitsIcESaIcEEE8PositionEEEE9constructISA_JSA_EEEvRSC_PT_DpOT0_
FNDA:896,_ZNSt16allocator_traitsISaISt13_Rb_tree_nodeISt4pairIKNSt7__cxx1112basic_stringIcSt11char_traitsIcESaIcEEE8PositionEEEE9constructISA_JSA_EEEvRSC_PT_DpOT0_
FN:482,_ZNSt16allocator_traitsISaISt13_Rb_tree_nodeISt4pairIK9PieceNamecEEEE9constructIS4_JRKSt21piecewise_construct_tSt5tupleIJRS3_EESC_IJEEEEEvRS6_PT_DpOT0_
FNDA:0,_ZNSt16allocator_traitsISaISt13_Rb_tree_nodeISt4pairIK9PieceNamecEEEE9constructIS4_JRKSt21piecewise_construct_tSt5tupleIJRS3_EESC_IJEEEEEvRS6_PT_DpOT0_
FN:495,_ZNSt16allocator_traitsISaISt13_Rb_tree_nodeISt4pairIKNSt7__cxx1112basic_stringIcSt11char_traitsIcESaIcEEE8PositionEEEE7destroyISA_EEvRSC_PT_
FNDA:0,_ZNSt16allocator_traitsISaISt13_Rb_tree_nodeISt4pairIKNSt7__cxx1112basic_stringIcSt11char_traitsIcESaIcEEE8PositionEEEE7destroyISA_EEvRSC_PT_
FN:495,_ZNSt16allocator_traitsISaISt13_Rb_tree_nodeISt4pairIK9PieceNamecEEEE7destroyIS4_EEvRS6_PT_
FNDA:0,_ZNSt16allocator_traitsISaISt13_Rb_tree_nodeISt4pairIK9PieceNamecEEEE7destroyIS4_EEvRS6_PT_
FN:514,_ZNSt16allocator_traitsISaIcEE37select_on_container_copy_constructionERKS0_
FNDA:0,_ZNSt16allocator_traitsISaIcEE37select_on_container_copy_constructionERKS0_
DA:443,0
DA:444,0
DA:443,0
DA:444,0
DA:469,0
DA:470,0
DA:469,0
DA:470,0
DA:469,0
DA:470,0
DA:469,0
DA:470,0
DA:482,0
DA:484,0
DA:482,896
DA:484,896
DA:482,0
DA:484,0
DA:495,0
DA:497,0
DA:495,0
DA:497,0
DA:514,0
DA:515,0
end_of_record
SF:/usr/include/c++/9/bits/stl_function.h
FN:385,_ZNKSt4lessINSt7__cxx1112basic_stringIcSt11char_traitsIcESaIcEEEEclERKS5_S8_
FNDA:8301,_ZNKSt4lessINSt7__cxx1112basic_stringIcSt11char_traitsIcESaIcEEEEclERKS5_S8_
FN:385,_ZNKSt4lessI9PieceNameEclERKS0_S3_
FNDA:12392,_ZNKSt4lessI9PieceNameEclERKS0_S3_
FN:1151,_ZNKSt10_Select1stISt4pairIKNSt7__cxx1112basic_stringIcSt11char_traitsIcESaIcEEE8PositionEEclERS9_
FNDA:1778,_ZNKSt10_Select1stISt4pairIKNSt7__cxx1112basic_stringIcSt11char_traitsIcESaIcEEE8PositionEEclERS9_
FN:1155,_ZNKSt10_Select1stISt4pairIKNSt7__cxx1112basic_stringIcSt11char_traitsIcESaIcEEE8PositionEEclERKS9_
FNDA:8301,_ZNKSt10_Select1stISt4pairIKNSt7__cxx1112basic_stringIcSt11char_traitsIcESaIcEEE8PositionEEclERKS9_
FN:1155,_ZNKSt10_Select1stISt4pairIK9PieceNamecEEclERKS3_
FNDA:9473,_ZNKSt10_Select1stISt4pairIK9PieceNamecEEclERKS3_
DA:385,8301
DA:386,8301
DA:385,12392
DA:386,12392
DA:1151,1778
DA:1152,1778
DA:1155,8301
DA:1156,8301
DA:1155,9473
DA:1156,9473
end_of_record
SF:/usr/include/c++/9/bits/stl_map.h
FN:183,_ZNSt3mapINSt7__cxx1112basic_stringIcSt11char_traitsIcESaIcEEE8PositionSt4lessIS5_ESaISt4pairIKS5_S6_EEEC2Ev
FNDA:24,_ZNSt3mapINSt7__cxx1112basic_stringIcSt11char_traitsIcESaIcEEE8PositionSt4lessIS5_ESaISt4pairIKS5_S6_EEEC2Ev
FN:226,_ZNSt3mapI9PieceNamecSt4lessIS0_ESaISt4pairIKS0_cEEEC2ESt16initializer_listIS5_ERKS2_RKS6_
FNDA:81,_ZNSt3mapI9PieceNamecSt4lessIS0_ESaISt4pairIKS0_cEEEC2ESt16initializer_listIS5_ERKS2_RKS6_
FN:300,_ZNSt3mapINSt7__cxx1112basic_stringIcSt11char_traitsIcESaIcEEE8PositionSt4lessIS5_ESaISt4pairIKS5_S6_EEED2Ev
FNDA:0,_ZNSt3mapINSt7__cxx1112basic_stringIcSt11char_traitsIcESaIcEEE8PositionSt4lessIS5_ESaISt4pairIKS5_S6_EEED2Ev
FN:300,_ZNSt3mapI9PieceNamecSt4lessIS0_ESaISt4pairIKS0_cEEED2Ev
FNDA:0,_ZNSt3mapI9PieceNamecSt4lessIS0_ESaISt4pairIKS0_cEEED2Ev
FN:363,_ZNKSt3mapI9PieceNamecSt4lessIS0_ESaISt4pairIKS0_cEEE5beginEv
FNDA:33,_ZNKSt3mapI9PieceNamecSt4lessIS0_ESaISt4pairIKS0_cEEE5beginEv
FN:372,_ZNSt3mapI9PieceNamecSt4lessIS0_ESaISt4pairIKS0_cEEE3endEv
FNDA:3648,_ZNSt3mapI9PieceNamecSt4lessIS0_ESaISt4pairIKS0_cEEE3endEv
FN:381,_ZNKSt3mapINSt7__cxx1112basic_stringIcSt11char_traitsIcESaIcEEE8PositionSt4lessIS5_ESaISt4pairIKS5_S6_EEE3endEv
FNDA:48,_ZNKSt3mapINSt7__cxx1112basic_stringIcSt11char_traitsIcESaIcEEE8PositionSt4lessIS5_ESaISt4pairIKS5_S6_EEE3endEv
FN:381,_ZNKSt3mapI9PieceNamecSt4lessIS0_ESaISt4pairIKS0_cEEE3endEv
FNDA:33,_ZNKSt3mapI9PieceNamecSt4lessIS0_ESaISt4pairIKS0_cEEE3endEv
FN:490,_ZNSt3mapI9PieceNamecSt4lessIS0_ESaISt4pairIKS0_cEEEixERS4_
FNDA:3648,_ZNSt3mapI9PieceNamecSt4lessIS0_ESaISt4pairIKS0_cEEEixERS4_
FN:808,_ZNSt3mapINSt7__cxx1112basic_stringIcSt11char_traitsIcESaIcEEE8PositionSt4lessIS5_ESaISt4pairIKS5_S6_EEE6insertEOSB_
FNDA:896,_ZNSt3mapINSt7__cxx1112basic_stringIcSt11char_traitsIcESaIcEEE8PositionSt4lessIS5_ESaISt4pairIKS5_S6_EEE6insertEOSB_
FN:1141,_ZNKSt3mapI9PieceNamecSt4lessIS0_ESaISt4pairIKS0_cEEE8key_compEv
FNDA:3648,_ZNKSt3mapI9PieceNamecSt4lessIS0_ESaISt4pairIKS0_cEEE8key_compEv
FN:1193,_ZNKSt3mapINSt7__cxx1112basic_stringIcSt11char_traitsIcESaIcEEE8PositionSt4lessIS5_ESaISt4pairIKS5_S6_EEE4findERSA_
FNDA:48,_ZNKSt3mapINSt7__cxx1112basic_stringIcSt11char_traitsIcESaIcEEE8PositionSt4lessIS5_ESaISt4pairIKS5_S6_EEE4findERSA_
FN:1257,_ZNSt3mapI9PieceNamecSt4lessIS0_ESaISt4pairIKS0_cEEE11lower_boundERS4_
FNDA:3648,_ZNSt3mapI9PieceNamecSt4lessIS0_ESaISt4pairIKS0_cEEE11lower_boundERS4_
DA:183,24
DA:226,81
DA:229,81
DA:230,81
DA:300,0
DA:300,0
DA:363,33
DA:364,33
DA:372,3648
DA:373,3648
DA:381,48
DA:382,48
DA:381,33
DA:382,33
DA:490,3648
DA:495,3648
DA:497,3648
DA:499,0
DA:505,3648
DA:808,896
DA:809,896
DA:1141,3648
DA:1142,3648
DA:1193,48
DA:1194,48
DA:1257,3648
DA:1258,3648
end_of_record
SF:/usr/include/c++/9/bits/stl_pair.h
FN:291,_ZNSt4pairI9PieceNamecEC2IKS0_cLb1EEERKS_IT_T0_E
FNDA:125,_ZNSt4pairI9PieceNamecEC2IKS0_cLb1EEERKS_IT_T0_E
FN:304,_ZNSt4pairIKNSt7__cxx1112basic_stringIcSt11char_traitsIcESaIcEEE8PositionEC2EOS8_
FNDA:896,_ZNSt4pairIKNSt7__cxx1112basic_stringIcSt11char_traitsIcESaIcEEE8PositionEC2EOS8_
FN:311,_ZNSt4pairIPSt18_Rb_tree_node_baseS1_EC2IRS1_Lb1EEEOT_RKS1_
FNDA:0,_ZNSt4pairIPSt18_Rb_tree_node_baseS1_EC2IRS1_Lb1EEEOT_RKS1_
FN:325,_ZNSt4pairIPSt18_Rb_tree_node_baseS1_EC2IRS1_Lb1EEERKS1_OT_
FNDA:162,_ZNSt4pairIPSt18_Rb_tree_node_baseS1_EC2IRS1_Lb1EEERKS1_OT_
FN:341,_ZNSt4pairIPSt18_Rb_tree_node_baseS1_EC2IRPSt13_Rb_tree_nodeIS_IK9PieceNamecEERS1_Lb1EEEOT_OT0_
FNDA:243,_ZNSt4pairIPSt18_Rb_tree_node_baseS1_EC2IRPSt13_Rb_tree_nodeIS_IK9PieceNamecEERS1_Lb1EEEOT_OT0_
FN:341,_ZNSt4pairIPSt18_Rb_tree_node_baseS1_EC2IRS1_S4_Lb1EEEOT_OT0_
FNDA:0,_ZNSt4pairIPSt18_Rb_tree_node_baseS1_EC2IRS1_S4_Lb1EEEOT_OT0_
FN:341,_ZNSt4pairIPSt18_Rb_tree_node_baseS1_EC2IRPSt13_Rb_tree_nodeIS_IKNSt7__cxx1112basic_stringIcSt11char_traitsIcESaIcEEE8PositionEERS1_Lb1EEEOT_OT0_
FNDA:896,_ZNSt4pairIPSt18_Rb_tree_node_baseS1_EC2IRPSt13_Rb_tree_nodeIS_IKNSt7__cxx1112basic_stringIcSt11char_traitsIcESaIcEEE8PositionEERS1_Lb1EEEOT_OT0_
FN:341,_ZNSt4pairISt17_Rb_tree_iteratorIS_IKNSt7__cxx1112basic_stringIcSt11char_traitsIcESaIcEEE8PositionEEbEC2ISA_bLb1EEEOT_OT0_
FNDA:896,_ZNSt4pairISt17_Rb_tree_iteratorIS_IKNSt7__cxx1112basic_stringIcSt11char_traitsIcESaIcEEE8PositionEEbEC2ISA_bLb1EEEOT_OT0_
FN:341,_ZNSt4pairIKNSt7__cxx1112basic_stringIcSt11char_traitsIcESaIcEEE8PositionEC2IS5_S7_Lb1EEEOT_OT0_
FNDA:896,_ZNSt4pairIKNSt7__cxx1112basic_stringIcSt11char_traitsIcESaIcEEE8PositionEC2IS5_S7_Lb1EEEOT_OT0_
DA:291,125
DA:292,125
DA:304,896
DA:311,0
DA:312,0
DA:325,162
DA:326,162
DA:341,243
DA:342,243
DA:341,0
DA:342,0
DA:341,896
DA:342,896
DA:341,896
DA:342,896
DA:341,896
DA:342,896
end_of_record
SF:/usr/include/c++/9/bits/stl_algo.h
FN:101,_ZSt9__find_ifISt23_Rb_tree_const_iteratorISt4pairIK9PieceNamecEEN9__gnu_cxx5__ops10_Iter_predIZN5BoardC4ENSt7__cxx1112basic_stringIcSt11char_traitsIcESaIcEEEEUlRKS1_IS2_cEE_EEET_SL_SL_T0_St18input_iterator_tag
FNDA:33,_ZSt9__find_ifISt23_Rb_tree_const_iteratorISt4pairIK9PieceNamecEEN9__gnu_cxx5__ops10_Iter_predIZN5BoardC4ENSt7__cxx1112basic_stringIcSt11char_traitsIcESaIcEEEEUlRKS1_IS2_cEE_EEET_SL_SL_T0_St18input_iterator_tag
FN:159,_ZSt9__find_ifISt23_Rb_tree_const_iteratorISt4pairIK9PieceNamecEEN9__gnu_cxx5__ops10_Iter_predIZN5BoardC4ENSt7__cxx1112basic_stringIcSt11char_traitsIcESaIcEEEEUlRKS1_IS2_cEE_EEET_SL_SL_T0_
FNDA:33,_ZSt9__find_ifISt23_Rb_tree_const_iteratorISt4pairIK9PieceNamecEEN9__gnu_cxx5__ops10_Iter_predIZN5BoardC4ENSt7__cxx1112basic_stringIcSt11char_traitsIcESaIcEEEEUlRKS1_IS2_cEE_EEET_SL_SL_T0_
FN:3954,_ZSt7find_ifISt23_Rb_tree_const_iteratorISt4pairIK9PieceNamecEEZN5BoardC4ENSt7__cxx1112basic_stringIcSt11char_traitsIcESaIcEEEEUlRKS1_IS2_cEE_ET_SH_SH_T0_
FNDA:33,_ZSt7find_ifISt23_Rb_tree_const_iteratorISt4pairIK9PieceNamecEEZN5BoardC4ENSt7__cxx1112basic_stringIcSt11char_traitsIcESaIcEEEEUlRKS1_IS2_cEE_ET_SH_SH_T0_
DA:101,125
DA:104,125
DA:105,92
DA:106,33
DA:159,33
DA:161,33
DA:162,33
DA:3954,33
DA:3963,33
DA:3964,33
end_of_record
SF:/usr/include/c++/9/iostream
end_of_record
SF:/usr/include/c++/9/bits/basic_string.tcc
FN:206,_ZNSt7__cxx1112basic_stringIcSt11char_traitsIcESaIcEE12_M_constructIPcEEvT_S7_St20forward_iterator_tag
FNDA:809710,_ZNSt7__cxx1112basic_stringIcSt11char_traitsIcESaIcEE12_M_constructIPcEEvT_S7_St20forward_iterator_tag
FN:206,_ZNSt7__cxx1112basic_stringIcSt11char_traitsIcESaIcEE12_M_constructIPKcEEvT_S8_St20forward_iterator_tag
FNDA:0,_ZNSt7__cxx1112basic_stringIcSt11char_traitsIcESaIcEE12_M_constructIPKcEEvT_S8_St20forward_iterator_tag
DA:206,809710
DA:211,809710
DA:212,0
DA:215,809710
DA:217,809710
DA:219,70
DA:220,70
DA:225,809710
DA:226,0
DA:228,0
DA:229,0
DA:232,809710
DA:233,809710
DA:206,0
DA:211,0
DA:212,0
DA:215,0
DA:217,0
DA:219,0
DA:220,0
DA:225,0
DA:226,0
DA:228,0
DA:229,0
DA:232,0
DA:233,0
end_of_record
SF:/usr/include/c++/9/bits/stl_iterator_base_funcs.h
FN:98,_ZSt10__distanceIPcENSt15iterator_traitsIT_E15difference_typeES2_S2_St26random_access_iterator_tag
FNDA:809710,_ZSt10__distanceIPcENSt15iterator_traitsIT_E15difference_typeES2_S2_St26random_access_iterator_tag
FN:98,_ZSt10__distanceIPKcENSt15iterator_traitsIT_E15difference_typeES3_S3_St26random_access_iterator_tag
FNDA:0,_ZSt10__distanceIPKcENSt15iterator_traitsIT_E15difference_typeES3_S3_St26random_access_iterator_tag
FN:138,_ZSt8distanceIPcENSt15iterator_traitsIT_E15difference_typeES2_S2_
FNDA:809710,_ZSt8distanceIPcENSt15iterator_traitsIT_E15difference_typeES2_S2_
FN:138,_ZSt8distanceIPKcENSt15iterator_traitsIT_E15difference_typeES3_S3_
FNDA:0,_ZSt8distanceIPKcENSt15iterator_traitsIT_E15difference_typeES3_S3_
DA:98,809710
DA:104,809710
DA:98,0
DA:104,0
DA:138,809710
DA:141,809710
DA:142,1619420
DA:138,0
DA:141,0
DA:142,0
end_of_record
SF:/usr/include/c++/9/array
FN:55,_ZNSt14__array_traitsI9PieceNameLm8EE6_S_refERA8_KS0_m
FNDA:502017,_ZNSt14__array_traitsI9PieceNameLm8EE6_S_refERA8_KS0_m
FN:55,_ZNSt14__array_traitsISt5arrayI9PieceNameLm8EELm8EE6_S_refERA8_KS2_m
FNDA:502017,_ZNSt14__array_traitsISt5arrayI9PieceNameLm8EELm8EE6_S_refERA8_KS2_m
FN:59,_ZNSt14__array_traitsI9PieceNameLm8EE6_S_ptrERA8_KS0_
FNDA:58880,_ZNSt14__array_traitsI9PieceNameLm8EE6_S_ptrERA8_KS0_
FN:59,_ZNSt14__array_traitsISt5arrayI9PieceNameLm8EELm8EE6_S_ptrERA8_KS2_
FNDA:7360,_ZNSt14__array_traitsISt5arrayI9PieceNameLm8EELm8EE6_S_ptrERA8_KS2_
FN:120,_ZNSt5arrayIS_I9PieceNameLm8EELm8EE4swapERS2_
FNDA:2442,_ZNSt5arrayIS_I9PieceNameLm8EELm8EE4swapERS2_
FN:120,_ZNSt5arrayI9PieceNameLm8EE4swapERS1_
FNDA:19536,_ZNSt5arrayI9PieceNameLm8EE4swapERS1_
FN:126,_ZNSt5arrayIS_I9PieceNameLm8EELm8EE5beginEv
FNDA:4901,_ZNSt5arrayIS_I9PieceNameLm8EELm8EE5beginEv
FN:126,_ZNSt5arrayI9PieceNameLm8EE5beginEv
FNDA:39208,_ZNSt5arrayI9PieceNameLm8EE5beginEv
FN:130,_ZNKSt5arrayIS_I9PieceNameLm8EELm8EE5beginEv
FNDA:0,_ZNKSt5arrayIS_I9PieceNameLm8EELm8EE5beginEv
FN:130,_ZNKSt5arrayI9PieceNameLm8EE5beginEv
FNDA:0,_ZNKSt5arrayI9PieceNameLm8EE5beginEv
FN:134,_ZNSt5arrayIS_I9PieceNameLm8EELm8EE3endEv
FNDA:2459,_ZNSt5arrayIS_I9PieceNameLm8EELm8EE3endEv
FN:134,_ZNSt5arrayI9PieceNameLm8EE3endEv
FNDA:19672,_ZNSt5arrayI9PieceNameLm8EE3endEv
FN:138,_ZNKSt5arrayI9PieceNameLm8EE3endEv
FNDA:0,_ZNKSt5arrayI9PieceNameLm8EE3endEv
FN:138,_ZNKSt5arrayIS_I9PieceNameLm8EELm8EE3endEv
FNDA:0,_ZNKSt5arrayIS_I9PieceNameLm8EELm8EE3endEv
FN:146,_ZNKSt5arrayIS_I9PieceNameLm8EELm8EE6rbeginEv
FNDA:0,_ZNKSt5arrayIS_I9PieceNameLm8EELm8EE6rbeginEv
FN:154,_ZNKSt5arrayIS_I9PieceNameLm8EELm8EE4rendEv
FNDA:0,_ZNKSt5arrayIS_I9PieceNameLm8EELm8EE4rendEv
FN:185,_ZNSt5arrayI9PieceNameLm8EEixEm
FNDA:8296,_ZNSt5arrayI9PieceNameLm8EEixEm
FN:185,_ZNSt5arrayIS_I9PieceNameLm8EELm8EEixEm
FNDA:8296,_ZNSt5arrayIS_I9PieceNameLm8EELm8EEixEm
FN:189,_ZNKSt5arrayIS_I9PieceNameLm8EELm8EEixEm
FNDA:493721,_ZNKSt5arrayIS_I9PieceNameLm8EELm8EEixEm
FN:189,_ZNKSt5arrayI9PieceNameLm8EEixEm
FNDA:493721,_ZNKSt5arrayI9PieceNameLm8EEixEm
FN:234,_ZNSt5arrayIS_I9PieceNameLm8EELm8EE4dataEv
FNDA:7360,_ZNSt5arrayIS_I9PieceNameLm8EELm8EE4dataEv
FN:234,_ZNSt5arrayI9PieceNameLm8EE4dataEv
FNDA:58880,_ZNSt5arrayI9PieceNameLm8EE4dataEv
FN:238,_ZNKSt5arrayI9PieceNameLm8EE4dataEv
FNDA:0,_ZNKSt5arrayI9PieceNameLm8EE4dataEv
FN:238,_ZNKSt5arrayIS_I9PieceNameLm8EELm8EE4dataEv
FNDA:0,_ZNKSt5arrayIS_I9PieceNameLm8EELm8EE4dataEv
FN:294,_ZSt4swapISt5arrayI9PieceNameLm8EELm8EEvRS0_IT_XT0_EES5_
FNDA:2442,_ZSt4swapISt5arrayI9PieceNameLm8EELm8EEvRS0_IT_XT0_EES5_
FN:294,_ZSt4swapI9PieceNameLm8EEvRSt5arrayIT_XT0_EES4_
FNDA:19536,_ZSt4swapI9PieceNameLm8EEvRSt5arrayIT_XT0_EES4_
DA:55,502017
DA:56,502017
DA:55,502017
DA:56,502017
DA:59,58880
DA:60,58880
DA:59,7360
DA:60,7360
DA:120,19536
DA:122,19536
DA:120,2442
DA:122,2442
DA:126,39208
DA:127,39208
DA:126,4901
DA:127,4901
DA:130,0
DA:131,0
DA:130,0
DA:131,0
DA:134,19672
DA:135,19672
DA:134,2459
DA:135,2459
DA:138,0
DA:139,0
DA:138,0
DA:139,0
DA:146,0
DA:147,0
DA:154,0
DA:155,0
DA:185,8296
DA:186,8296
DA:185,8296
DA:186,8296
DA:189,493721
DA:190,493721
DA:189,493721
DA:190,493721
DA:234,58880
DA:235,58880
DA:234,7360
DA:235,7360
DA:238,0
DA:239,0
DA:238,0
DA:239,0
DA:294,19536
DA:296,19536
DA:294,2442
DA:296,2442
end_of_record
TN:
SF:/home/napiad/studia/eiti/mgr/sem1/zpr/checkers-webapp/checkers/src/Position.cc
FN:11,_ZN8PositionC2Ev
FNDA:13632,_ZN8PositionC2Ev
FN:13,_ZN8PositionC2Eii
FNDA:478544,_ZN8PositionC2Eii
FN:18,_ZNK8Position7isValidEv
FNDA:42633,_ZNK8Position7isValidEv
FN:26,_ZNK8Position9isLastRowEb
FNDA:325,_ZNK8Position9isLastRowEb
FN:35,_ZNK8Position6isZeroEv
FNDA:23,_ZNK8Position6isZeroEv
FN:46,_ZNK8Position15getUnitPositionEv
FNDA:23,_ZNK8Position15getUnitPositionEv
FN:60,_ZNK8PositioneqERKS_
FNDA:12624,_ZNK8PositioneqERKS_
FN:65,_ZNK8PositionneERKS_
FNDA:75,_ZNK8PositionneERKS_
FN:70,_ZN8PositionpLERKS_
FNDA:25,_ZN8PositionpLERKS_
FN:76,_ZN8PositionmIERKS_
FNDA:23,_ZN8PositionmIERKS_
FN:82,_Zpl8PositionRKS_
FNDA:23,_Zpl8PositionRKS_
FN:87,_Zmi8PositionRKS_
FNDA:23,_Zmi8PositionRKS_
DA:11,13632
DA:13,478544
DA:18,42633
DA:19,42633
DA:20,9612
DA:26,325
DA:27,325
DA:28,310
DA:35,23
DA:36,23
DA:37,0
DA:39,23
DA:46,23
DA:48,23
DA:49,23
DA:50,11
DA:51,0
DA:53,23
DA:54,9
DA:55,0
DA:57,23
DA:60,12624
DA:61,12624
DA:62,2845
DA:65,75
DA:66,75
DA:67,67
DA:70,25
DA:71,25
DA:72,25
DA:73,25
DA:76,23
DA:77,23
DA:78,23
DA:79,23
DA:82,23
DA:83,23
DA:84,23
DA:87,23
DA:88,23
DA:89,23
end_of_record
SF:/usr/include/c++/9/iostream
end_of_record
TN:
SF:/usr/include/c++/9/bits/stl_vector.h
FN:94,_ZNSt12_Vector_baseISt4pairI4MovedESaIS2_EE17_Vector_impl_dataC2Ev
FNDA:20,_ZNSt12_Vector_baseISt4pairI4MovedESaIS2_EE17_Vector_impl_dataC2Ev
FN:94,_ZNSt12_Vector_baseI4MoveSaIS0_EE17_Vector_impl_dataC2Ev
FNDA:0,_ZNSt12_Vector_baseI4MoveSaIS0_EE17_Vector_impl_dataC2Ev
FN:94,_ZNSt12_Vector_baseISt6vectorI4MoveSaIS1_EESaIS3_EE17_Vector_impl_dataC2Ev
FNDA:0,_ZNSt12_Vector_baseISt6vectorI4MoveSaIS1_EESaIS3_EE17_Vector_impl_dataC2Ev
FN:94,_ZNSt12_Vector_baseI8PositionSaIS0_EE17_Vector_impl_dataC2Ev
FNDA:0,_ZNSt12_Vector_baseI8PositionSaIS0_EE17_Vector_impl_dataC2Ev
FN:99,_ZNSt12_Vector_baseI4MoveSaIS0_EE17_Vector_impl_dataC2EOS3_
FNDA:0,_ZNSt12_Vector_baseI4MoveSaIS0_EE17_Vector_impl_dataC2EOS3_
FN:99,_ZNSt12_Vector_baseI8PositionSaIS0_EE17_Vector_impl_dataC2EOS3_
FNDA:34310,_ZNSt12_Vector_baseI8PositionSaIS0_EE17_Vector_impl_dataC2EOS3_
FN:106,_ZNSt12_Vector_baseISt6vectorI4MoveSaIS1_EESaIS3_EE17_Vector_impl_data12_M_copy_dataERKS6_
FNDA:5898,_ZNSt12_Vector_baseISt6vectorI4MoveSaIS1_EESaIS3_EE17_Vector_impl_data12_M_copy_dataERKS6_
FN:114,_ZNSt12_Vector_baseISt6vectorI4MoveSaIS1_EESaIS3_EE17_Vector_impl_data12_M_swap_dataERS6_
FNDA:1966,_ZNSt12_Vector_baseISt6vectorI4MoveSaIS1_EESaIS3_EE17_Vector_impl_data12_M_swap_dataERS6_
FN:128,_ZNSt12_Vector_baseISt4pairI4MovedESaIS2_EE12_Vector_implC2Ev
FNDA:20,_ZNSt12_Vector_baseISt4pairI4MovedESaIS2_EE12_Vector_implC2Ev
FN:128,_ZNSt12_Vector_baseISt6vectorI4MoveSaIS1_EESaIS3_EE12_Vector_implC2Ev
FNDA:0,_ZNSt12_Vector_baseISt6vectorI4MoveSaIS1_EESaIS3_EE12_Vector_implC2Ev
FN:133,_ZNSt12_Vector_baseI8PositionSaIS0_EE12_Vector_implC2ERKS1_
FNDA:0,_ZNSt12_Vector_baseI8PositionSaIS0_EE12_Vector_implC2ERKS1_
FN:133,_ZNSt12_Vector_baseISt6vectorI4MoveSaIS1_EESaIS3_EE12_Vector_implC2ERKS4_
FNDA:983,_ZNSt12_Vector_baseISt6vectorI4MoveSaIS1_EESaIS3_EE12_Vector_implC2ERKS4_
FN:133,_ZNSt12_Vector_baseI4MoveSaIS0_EE12_Vector_implC2ERKS1_
FNDA:0,_ZNSt12_Vector_baseI4MoveSaIS0_EE12_Vector_implC2ERKS1_
FN:140,_ZNSt12_Vector_baseI4MoveSaIS0_EE12_Vector_implC2EOS3_
FNDA:0,_ZNSt12_Vector_baseI4MoveSaIS0_EE12_Vector_implC2EOS3_
FN:140,_ZNSt12_Vector_baseI8PositionSaIS0_EE12_Vector_implC2EOS3_
FNDA:34310,_ZNSt12_Vector_baseI8PositionSaIS0_EE12_Vector_implC2EOS3_
FN:273,_ZNSt12_Vector_baseISt6vectorI4MoveSaIS1_EESaIS3_EE19_M_get_Tp_allocatorEv
FNDA:0,_ZNSt12_Vector_baseISt6vectorI4MoveSaIS1_EESaIS3_EE19_M_get_Tp_allocatorEv
FN:273,_ZNSt12_Vector_baseI4MoveSaIS0_EE19_M_get_Tp_allocatorEv
FNDA:0,_ZNSt12_Vector_baseI4MoveSaIS0_EE19_M_get_Tp_allocatorEv
FN:273,_ZNSt12_Vector_baseISt4pairI4MovedESaIS2_EE19_M_get_Tp_allocatorEv
FNDA:176,_ZNSt12_Vector_baseISt4pairI4MovedESaIS2_EE19_M_get_Tp_allocatorEv
FN:273,_ZNSt12_Vector_baseISt10shared_ptrI5PieceESaIS2_EE19_M_get_Tp_allocatorEv
FNDA:0,_ZNSt12_Vector_baseISt10shared_ptrI5PieceESaIS2_EE19_M_get_Tp_allocatorEv
FN:273,_ZNSt12_Vector_baseI8PositionSaIS0_EE19_M_get_Tp_allocatorEv
FNDA:0,_ZNSt12_Vector_baseI8PositionSaIS0_EE19_M_get_Tp_allocatorEv
FN:277,_ZNKSt12_Vector_baseI8PositionSaIS0_EE19_M_get_Tp_allocatorEv
FNDA:0,_ZNKSt12_Vector_baseI8PositionSaIS0_EE19_M_get_Tp_allocatorEv
FN:277,_ZNKSt12_Vector_baseI4MoveSaIS0_EE19_M_get_Tp_allocatorEv
FNDA:0,_ZNKSt12_Vector_baseI4MoveSaIS0_EE19_M_get_Tp_allocatorEv
FN:277,_ZNKSt12_Vector_baseISt6vectorI4MoveSaIS1_EESaIS3_EE19_M_get_Tp_allocatorEv
FNDA:0,_ZNKSt12_Vector_baseISt6vectorI4MoveSaIS1_EESaIS3_EE19_M_get_Tp_allocatorEv
FN:277,_ZNKSt12_Vector_baseISt10shared_ptrI5PieceESaIS2_EE19_M_get_Tp_allocatorEv
FNDA:0,_ZNKSt12_Vector_baseISt10shared_ptrI5PieceESaIS2_EE19_M_get_Tp_allocatorEv
FN:277,_ZNKSt12_Vector_baseISt4pairI4MovedESaIS2_EE19_M_get_Tp_allocatorEv
FNDA:156,_ZNKSt12_Vector_baseISt4pairI4MovedESaIS2_EE19_M_get_Tp_allocatorEv
FN:281,_ZNKSt12_Vector_baseISt6vectorI4MoveSaIS1_EESaIS3_EE13get_allocatorEv
FNDA:983,_ZNKSt12_Vector_baseISt6vectorI4MoveSaIS1_EESaIS3_EE13get_allocatorEv
FN:285,_ZNSt12_Vector_baseISt4pairI4MovedESaIS2_EEC2Ev
FNDA:20,_ZNSt12_Vector_baseISt4pairI4MovedESaIS2_EEC2Ev
FN:285,_ZNSt12_Vector_baseISt6vectorI4MoveSaIS1_EESaIS3_EEC2Ev
FNDA:0,_ZNSt12_Vector_baseISt6vectorI4MoveSaIS1_EESaIS3_EEC2Ev
FN:290,_ZNSt12_Vector_baseISt6vectorI4MoveSaIS1_EESaIS3_EEC2ERKS4_
FNDA:983,_ZNSt12_Vector_baseISt6vectorI4MoveSaIS1_EESaIS3_EEC2ERKS4_
FN:300,_ZNSt12_Vector_baseI8PositionSaIS0_EEC2EmRKS1_
FNDA:0,_ZNSt12_Vector_baseI8PositionSaIS0_EEC2EmRKS1_
FN:300,_ZNSt12_Vector_baseI4MoveSaIS0_EEC2EmRKS1_
FNDA:0,_ZNSt12_Vector_baseI4MoveSaIS0_EEC2EmRKS1_
FN:305,_ZNSt12_Vector_baseI4MoveSaIS0_EEC2EOS2_
FNDA:0,_ZNSt12_Vector_baseI4MoveSaIS0_EEC2EOS2_
FN:305,_ZNSt12_Vector_baseI8PositionSaIS0_EEC2EOS2_
FNDA:34310,_ZNSt12_Vector_baseI8PositionSaIS0_EEC2EOS2_
FN:330,_ZNSt12_Vector_baseISt4pairI4MovedESaIS2_EED2Ev
FNDA:20,_ZNSt12_Vector_baseISt4pairI4MovedESaIS2_EED2Ev
FN:330,_ZNSt12_Vector_baseI4MoveSaIS0_EED2Ev
FNDA:0,_ZNSt12_Vector_baseI4MoveSaIS0_EED2Ev
FN:330,_ZNSt12_Vector_baseI8PositionSaIS0_EED2Ev
FNDA:0,_ZNSt12_Vector_baseI8PositionSaIS0_EED2Ev
FN:330,_ZNSt12_Vector_baseISt10shared_ptrI5PieceESaIS2_EED2Ev
FNDA:0,_ZNSt12_Vector_baseISt10shared_ptrI5PieceESaIS2_EED2Ev
FN:330,_ZNSt12_Vector_baseISt6vectorI4MoveSaIS1_EESaIS3_EED2Ev
FNDA:0,_ZNSt12_Vector_baseISt6vectorI4MoveSaIS1_EESaIS3_EED2Ev
FN:340,_ZNSt12_Vector_baseI4MoveSaIS0_EE11_M_allocateEm
FNDA:0,_ZNSt12_Vector_baseI4MoveSaIS0_EE11_M_allocateEm
FN:340,_ZNSt12_Vector_baseISt10shared_ptrI5PieceESaIS2_EE11_M_allocateEm
FNDA:0,_ZNSt12_Vector_baseISt10shared_ptrI5PieceESaIS2_EE11_M_allocateEm
FN:340,_ZNSt12_Vector_baseI8PositionSaIS0_EE11_M_allocateEm
FNDA:0,_ZNSt12_Vector_baseI8PositionSaIS0_EE11_M_allocateEm
FN:340,_ZNSt12_Vector_baseISt4pairI4MovedESaIS2_EE11_M_allocateEm
FNDA:78,_ZNSt12_Vector_baseISt4pairI4MovedESaIS2_EE11_M_allocateEm
FN:347,_ZNSt12_Vector_baseI8PositionSaIS0_EE13_M_deallocateEPS0_m
FNDA:0,_ZNSt12_Vector_baseI8PositionSaIS0_EE13_M_deallocateEPS0_m
FN:347,_ZNSt12_Vector_baseISt6vectorI4MoveSaIS1_EESaIS3_EE13_M_deallocateEPS3_m
FNDA:0,_ZNSt12_Vector_baseISt6vectorI4MoveSaIS1_EESaIS3_EE13_M_deallocateEPS3_m
FN:347,_ZNSt12_Vector_baseI4MoveSaIS0_EE13_M_deallocateEPS0_m
FNDA:0,_ZNSt12_Vector_baseI4MoveSaIS0_EE13_M_deallocateEPS0_m
FN:347,_ZNSt12_Vector_baseISt4pairI4MovedESaIS2_EE13_M_deallocateEPS2_m
FNDA:98,_ZNSt12_Vector_baseISt4pairI4MovedESaIS2_EE13_M_deallocateEPS2_m
FN:347,_ZNSt12_Vector_baseISt10shared_ptrI5PieceESaIS2_EE13_M_deallocateEPS2_m
FNDA:0,_ZNSt12_Vector_baseISt10shared_ptrI5PieceESaIS2_EE13_M_deallocateEPS2_m
FN:356,_ZNSt12_Vector_baseI4MoveSaIS0_EE17_M_create_storageEm
FNDA:0,_ZNSt12_Vector_baseI4MoveSaIS0_EE17_M_create_storageEm
FN:356,_ZNSt12_Vector_baseI8PositionSaIS0_EE17_M_create_storageEm
FNDA:0,_ZNSt12_Vector_baseI8PositionSaIS0_EE17_M_create_storageEm
FN:428,_ZNSt6vectorISt4pairI4MovedESaIS2_EE19_S_nothrow_relocateESt17integral_constantIbLb1EE
FNDA:156,_ZNSt6vectorISt4pairI4MovedESaIS2_EE19_S_nothrow_relocateESt17integral_constantIbLb1EE
FN:428,_ZNSt6vectorISt10shared_ptrI5PieceESaIS2_EE19_S_nothrow_relocateESt17integral_constantIbLb1EE
FNDA:0,_ZNSt6vectorISt10shared_ptrI5PieceESaIS2_EE19_S_nothrow_relocateESt17integral_constantIbLb1EE
FN:441,_ZNSt6vectorISt4pairI4MovedESaIS2_EE15_S_use_relocateEv
FNDA:156,_ZNSt6vectorISt4pairI4MovedESaIS2_EE15_S_use_relocateEv
FN:441,_ZNSt6vectorISt10shared_ptrI5PieceESaIS2_EE15_S_use_relocateEv
FNDA:0,_ZNSt6vectorISt10shared_ptrI5PieceESaIS2_EE15_S_use_relocateEv
FN:450,_ZNSt6vectorISt10shared_ptrI5PieceESaIS2_EE14_S_do_relocateEPS2_S5_S5_RS3_St17integral_constantIbLb1EE
FNDA:0,_ZNSt6vectorISt10shared_ptrI5PieceESaIS2_EE14_S_do_relocateEPS2_S5_S5_RS3_St17integral_constantIbLb1EE
FN:450,_ZNSt6vectorISt4pairI4MovedESaIS2_EE14_S_do_relocateEPS2_S5_S5_RS3_St17integral_constantIbLb1EE
FNDA:156,_ZNSt6vectorISt4pairI4MovedESaIS2_EE14_S_do_relocateEPS2_S5_S5_RS3_St17integral_constantIbLb1EE
FN:462,_ZNSt6vectorISt10shared_ptrI5PieceESaIS2_EE11_S_relocateEPS2_S5_S5_RS3_
FNDA:0,_ZNSt6vectorISt10shared_ptrI5PieceESaIS2_EE11_S_relocateEPS2_S5_S5_RS3_
FN:462,_ZNSt6vectorISt4pairI4MovedESaIS2_EE11_S_relocateEPS2_S5_S5_RS3_
FNDA:156,_ZNSt6vectorISt4pairI4MovedESaIS2_EE11_S_relocateEPS2_S5_S5_RS3_
FN:484,_ZNSt6vectorIS_I4MoveSaIS0_EESaIS2_EEC2Ev
FNDA:0,_ZNSt6vectorIS_I4MoveSaIS0_EESaIS2_EEC2Ev
FN:484,_ZNSt6vectorISt4pairI4MovedESaIS2_EEC2Ev
FNDA:20,_ZNSt6vectorISt4pairI4MovedESaIS2_EEC2Ev
FN:494,_ZNSt6vectorIS_I4MoveSaIS0_EESaIS2_EEC2ERKS3_
FNDA:983,_ZNSt6vectorIS_I4MoveSaIS0_EESaIS2_EEC2ERKS3_
FN:550,_ZNSt6vectorI8PositionSaIS0_EEC2ERKS2_
FNDA:0,_ZNSt6vectorI8PositionSaIS0_EEC2ERKS2_
FN:550,_ZNSt6vectorI4MoveSaIS0_EEC2ERKS2_
FNDA:0,_ZNSt6vectorI4MoveSaIS0_EEC2ERKS2_
FN:569,_ZNSt6vectorI4MoveSaIS0_EEC2EOS2_
FNDA:0,_ZNSt6vectorI4MoveSaIS0_EEC2EOS2_
FN:569,_ZNSt6vectorI8PositionSaIS0_EEC2EOS2_
FNDA:34310,_ZNSt6vectorI8PositionSaIS0_EEC2EOS2_
FN:675,_ZNSt6vectorIS_I4MoveSaIS0_EESaIS2_EED2Ev
FNDA:0,_ZNSt6vectorIS_I4MoveSaIS0_EESaIS2_EED2Ev
FN:675,_ZNSt6vectorISt4pairI4MovedESaIS2_EED2Ev
FNDA:20,_ZNSt6vectorISt4pairI4MovedESaIS2_EED2Ev
FN:675,_ZNSt6vectorISt10shared_ptrI5PieceESaIS2_EED2Ev
FNDA:0,_ZNSt6vectorISt10shared_ptrI5PieceESaIS2_EED2Ev
FN:675,_ZNSt6vectorI4MoveSaIS0_EED2Ev
FNDA:0,_ZNSt6vectorI4MoveSaIS0_EED2Ev
FN:675,_ZNSt6vectorI8PositionSaIS0_EED2Ev
FNDA:0,_ZNSt6vectorI8PositionSaIS0_EED2Ev
FN:706,_ZNSt6vectorIS_I4MoveSaIS0_EESaIS2_EEaSEOS4_
FNDA:983,_ZNSt6vectorIS_I4MoveSaIS0_EESaIS2_EEaSEOS4_
FN:808,_ZNSt6vectorI4MoveSaIS0_EE5beginEv
FNDA:0,_ZNSt6vectorI4MoveSaIS0_EE5beginEv
FN:808,_ZNSt6vectorISt10shared_ptrI5PieceESaIS2_EE5beginEv
FNDA:0,_ZNSt6vectorISt10shared_ptrI5PieceESaIS2_EE5beginEv
FN:808,_ZNSt6vectorIS_I4MoveSaIS0_EESaIS2_EE5beginEv
FNDA:0,_ZNSt6vectorIS_I4MoveSaIS0_EESaIS2_EE5beginEv
FN:808,_ZNSt6vectorISt4pairI4MovedESaIS2_EE5beginEv
FNDA:98,_ZNSt6vectorISt4pairI4MovedESaIS2_EE5beginEv
FN:817,_ZNKSt6vectorI8PositionSaIS0_EE5beginEv
FNDA:0,_ZNKSt6vectorI8PositionSaIS0_EE5beginEv
FN:817,_ZNKSt6vectorI4MoveSaIS0_EE5beginEv
FNDA:0,_ZNKSt6vectorI4MoveSaIS0_EE5beginEv
FN:826,_ZNSt6vectorISt4pairI4MovedESaIS2_EE3endEv
FNDA:98,_ZNSt6vectorISt4pairI4MovedESaIS2_EE3endEv
FN:826,_ZNSt6vectorISt10shared_ptrI5PieceESaIS2_EE3endEv
FNDA:0,_ZNSt6vectorISt10shared_ptrI5PieceESaIS2_EE3endEv
FN:826,_ZNSt6vectorIS_I4MoveSaIS0_EESaIS2_EE3endEv
FNDA:0,_ZNSt6vectorIS_I4MoveSaIS0_EESaIS2_EE3endEv
FN:826,_ZNSt6vectorI4MoveSaIS0_EE3endEv
FNDA:0,_ZNSt6vectorI4MoveSaIS0_EE3endEv
FN:835,_ZNKSt6vectorI4MoveSaIS0_EE3endEv
FNDA:0,_ZNKSt6vectorI4MoveSaIS0_EE3endEv
FN:835,_ZNKSt6vectorI8PositionSaIS0_EE3endEv
FNDA:0,_ZNKSt6vectorI8PositionSaIS0_EE3endEv
FN:915,_ZNKSt6vectorISt4pairI4MovedESaIS2_EE4sizeEv
FNDA:312,_ZNKSt6vectorISt4pairI4MovedESaIS2_EE4sizeEv
FN:915,_ZNKSt6vectorISt10shared_ptrI5PieceESaIS2_EE4sizeEv
FNDA:0,_ZNKSt6vectorISt10shared_ptrI5PieceESaIS2_EE4sizeEv
FN:915,_ZNKSt6vectorIS_I4MoveSaIS0_EESaIS2_EE4sizeEv
FNDA:0,_ZNKSt6vectorIS_I4MoveSaIS0_EESaIS2_EE4sizeEv
FN:915,_ZNKSt6vectorI4MoveSaIS0_EE4sizeEv
FNDA:0,_ZNKSt6vectorI4MoveSaIS0_EE4sizeEv
FN:915,_ZNKSt6vectorI8PositionSaIS0_EE4sizeEv
FNDA:0,_ZNKSt6vectorI8PositionSaIS0_EE4sizeEv
FN:920,_ZNKSt6vectorISt4pairI4MovedESaIS2_EE8max_sizeEv
FNDA:156,_ZNKSt6vectorISt4pairI4MovedESaIS2_EE8max_sizeEv
FN:920,_ZNKSt6vectorISt10shared_ptrI5PieceESaIS2_EE8max_sizeEv
FNDA:0,_ZNKSt6vectorISt10shared_ptrI5PieceESaIS2_EE8max_sizeEv
FN:1200,_ZNSt6vectorISt10shared_ptrI5PieceESaIS2_EE9push_backEOS2_
FNDA:0,_ZNSt6vectorISt10shared_ptrI5PieceESaIS2_EE9push_backEOS2_
FN:1200,_ZNSt6vectorISt4pairI4MovedESaIS2_EE9push_backEOS2_
FNDA:134,_ZNSt6vectorISt4pairI4MovedESaIS2_EE9push_backEOS2_
FN:1753,_ZNKSt6vectorISt4pairI4MovedESaIS2_EE12_M_check_lenEmPKc
FNDA:78,_ZNKSt6vectorISt4pairI4MovedESaIS2_EE12_M_check_lenEmPKc
FN:1753,_ZNKSt6vectorISt10shared_ptrI5PieceESaIS2_EE12_M_check_lenEmPKc
FNDA:0,_ZNKSt6vectorISt10shared_ptrI5PieceESaIS2_EE12_M_check_lenEmPKc
FN:1773,_ZNSt6vectorISt10shared_ptrI5PieceESaIS2_EE11_S_max_sizeERKS3_
FNDA:0,_ZNSt6vectorISt10shared_ptrI5PieceESaIS2_EE11_S_max_sizeERKS3_
FN:1773,_ZNSt6vectorISt4pairI4MovedESaIS2_EE11_S_max_sizeERKS3_
FNDA:156,_ZNSt6vectorISt4pairI4MovedESaIS2_EE11_S_max_sizeERKS3_
FN:1812,_ZNSt6vectorIS_I4MoveSaIS0_EESaIS2_EE14_M_move_assignEOS4_St17integral_constantIbLb1EE
FNDA:983,_ZNSt6vectorIS_I4MoveSaIS0_EESaIS2_EE14_M_move_assignEOS4_St17integral_constantIbLb1EE
DA:94,0
DA:95,0
DA:96,0
DA:94,20
DA:95,20
DA:96,20
DA:94,0
DA:95,0
DA:96,0
DA:94,0
DA:95,0
DA:96,0
DA:99,0
DA:100,0
DA:101,0
DA:102,0
DA:99,34310
DA:100,34310
DA:101,34310
DA:102,34310
DA:106,5898
DA:108,5898
DA:109,5898
DA:110,5898
DA:111,5898
DA:114,1966
DA:118,1966
DA:119,1966
DA:120,1966
DA:121,1966
DA:122,1966
DA:128,0
DA:130,0
DA:131,0
DA:128,20
DA:130,20
DA:131,20
DA:133,983
DA:134,983
DA:135,983
DA:133,0
DA:134,0
DA:135,0
DA:133,0
DA:134,0
DA:135,0
DA:140,0
DA:141,0
DA:142,0
DA:140,34310
DA:141,34310
DA:142,34310
DA:273,0
DA:274,0
DA:273,176
DA:274,176
DA:273,0
DA:274,0
DA:273,0
DA:274,0
DA:273,0
DA:274,0
DA:277,156
DA:278,156
DA:277,0
DA:278,0
DA:277,0
DA:278,0
DA:277,0
DA:278,0
DA:277,0
DA:278,0
DA:281,983
DA:282,983
DA:285,0
DA:285,20
DA:290,983
DA:291,983
DA:300,0
DA:301,0
DA:302,0
DA:300,0
DA:301,0
DA:302,0
DA:305,0
DA:305,34310
DA:330,0
DA:332,0
DA:333,0
DA:334,0
DA:330,20
DA:332,20
DA:333,20
DA:334,20
DA:330,0
DA:332,0
DA:333,0
DA:334,0
DA:330,0
DA:332,0
DA:333,0
DA:334,0
DA:330,0
DA:332,0
DA:333,0
DA:334,0
DA:340,0
DA:343,0
DA:340,0
DA:343,0
DA:340,78
DA:343,78
DA:340,0
DA:343,0
DA:347,0
DA:350,0
DA:351,0
DA:352,0
DA:347,98
DA:350,98
DA:351,78
DA:352,98
DA:347,0
DA:350,0
DA:351,0
DA:352,0
DA:347,0
DA:350,0
DA:351,0
DA:352,0
DA:347,0
DA:350,0
DA:351,0
DA:352,0
DA:356,0
DA:358,0
DA:359,0
DA:360,0
DA:361,0
DA:356,0
DA:358,0
DA:359,0
DA:360,0
DA:361,0
DA:428,156
DA:433,156
DA:428,0
DA:433,0
DA:441,156
DA:446,156
DA:441,0
DA:446,0
DA:450,156
DA:453,156
DA:450,0
DA:453,0
DA:462,156
DA:466,156
DA:462,0
DA:466,0
DA:484,0
DA:484,20
DA:494,983
DA:495,983
DA:550,0
DA:552,0
DA:554,0
DA:555,0
DA:557,0
DA:558,0
DA:550,0
DA:552,0
DA:554,0
DA:555,0
DA:557,0
DA:558,0
DA:569,0
DA:569,34310
DA:675,0
DA:677,0
DA:678,0
DA:680,0
DA:675,20
DA:677,20
DA:678,20
DA:680,20
DA:675,0
DA:677,0
DA:678,0
DA:680,0
DA:675,0
DA:677,0
DA:678,0
DA:680,0
DA:675,0
DA:677,0
DA:678,0
DA:680,0
DA:706,983
DA:708,983
DA:711,983
DA:712,983
DA:808,98
DA:809,98
DA:808,0
DA:809,0
DA:808,0
DA:809,0
DA:808,0
DA:809,0
DA:817,0
DA:818,0
DA:817,0
DA:818,0
DA:826,98
DA:827,98
DA:826,0
DA:827,0
DA:826,0
DA:827,0
DA:826,0
DA:827,0
DA:835,0
DA:836,0
DA:835,0
DA:836,0
DA:915,312
DA:916,312
DA:915,0
DA:916,0
DA:915,0
DA:916,0
DA:915,0
DA:916,0
DA:915,0
DA:916,0
DA:920,156
DA:921,156
DA:920,0
DA:921,0
DA:1200,134
DA:1201,134
DA:1200,0
DA:1201,0
DA:1753,78
DA:1755,78
DA:1756,0
DA:1758,78
DA:1759,78
DA:1753,0
DA:1755,0
DA:1756,0
DA:1758,0
DA:1759,0
DA:1773,156
DA:1778,156
DA:1780,156
DA:1781,156
DA:1773,0
DA:1778,0
DA:1780,0
DA:1781,0
DA:1812,983
DA:1814,1966
DA:1815,983
DA:1816,983
DA:1817,983
DA:1818,983
end_of_record
SF:/usr/include/c++/9/bits/allocator.h
FN:138,_ZNSaI4PawnEC2Ev
FNDA:0,_ZNSaI4PawnEC2Ev
FN:138,_ZNSaISt6vectorI4MoveSaIS0_EEEC2Ev
FNDA:0,_ZNSaISt6vectorI4MoveSaIS0_EEEC2Ev
FN:138,_ZNSaISt4pairI4MovedEEC2Ev
FNDA:20,_ZNSaISt4pairI4MovedEEC2Ev
FN:138,_ZNSaI4KingEC2Ev
FNDA:0,_ZNSaI4KingEC2Ev
FN:141,_ZNSaI4PawnEC2ERKS0_
FNDA:0,_ZNSaI4PawnEC2ERKS0_
FN:141,_ZNSaISt6vectorI4MoveSaIS0_EEEC2ERKS3_
FNDA:1966,_ZNSaISt6vectorI4MoveSaIS0_EEEC2ERKS3_
FN:141,_ZNSaISt13_Rb_tree_nodeISt4pairIK9PieceNamecEEEC2ERKS5_
FNDA:0,_ZNSaISt13_Rb_tree_nodeISt4pairIK9PieceNamecEEEC2ERKS5_
FN:141,_ZNSaISt13_Rb_tree_nodeISt4pairIKNSt7__cxx1112basic_stringIcSt11char_traitsIcESaIcEEE8PositionEEEC2ERKSB_
FNDA:0,_ZNSaISt13_Rb_tree_nodeISt4pairIKNSt7__cxx1112basic_stringIcSt11char_traitsIcESaIcEEE8PositionEEEC2ERKSB_
FN:141,_ZNSaI4MoveEC2ERKS0_
FNDA:0,_ZNSaI4MoveEC2ERKS0_
FN:141,_ZNSaI8PositionEC2ERKS0_
FNDA:0,_ZNSaI8PositionEC2ERKS0_
FN:141,_ZNSaI4KingEC2ERKS0_
FNDA:0,_ZNSaI4KingEC2ERKS0_
FN:151,_ZNSaISt23_Sp_counted_ptr_inplaceI4KingSaIS0_ELN9__gnu_cxx12_Lock_policyE2EEEC2IS0_EERKSaIT_E
FNDA:0,_ZNSaISt23_Sp_counted_ptr_inplaceI4KingSaIS0_ELN9__gnu_cxx12_Lock_policyE2EEEC2IS0_EERKSaIT_E
FN:151,_ZNSaISt23_Sp_counted_ptr_inplaceI4PawnSaIS0_ELN9__gnu_cxx12_Lock_policyE2EEEC2IS0_EERKSaIT_E
FNDA:0,_ZNSaISt23_Sp_counted_ptr_inplaceI4PawnSaIS0_ELN9__gnu_cxx12_Lock_policyE2EEEC2IS0_EERKSaIT_E
FN:153,_ZNSaISt6vectorI4MoveSaIS0_EEED2Ev
FNDA:0,_ZNSaISt6vectorI4MoveSaIS0_EEED2Ev
FN:153,_ZNSaISt13_Rb_tree_nodeISt4pairIKNSt7__cxx1112basic_stringIcSt11char_traitsIcESaIcEEE8PositionEEED2Ev
FNDA:0,_ZNSaISt13_Rb_tree_nodeISt4pairIKNSt7__cxx1112basic_stringIcSt11char_traitsIcESaIcEEE8PositionEEED2Ev
FN:153,_ZNSaISt4pairI4MovedEED2Ev
FNDA:20,_ZNSaISt4pairI4MovedEED2Ev
FN:153,_ZNSaISt10shared_ptrI5PieceEED2Ev
FNDA:0,_ZNSaISt10shared_ptrI5PieceEED2Ev
FN:153,_ZNSaI4MoveED2Ev
FNDA:0,_ZNSaI4MoveED2Ev
FN:153,_ZNSaI8PositionED2Ev
FNDA:0,_ZNSaI8PositionED2Ev
FN:153,_ZNSaISt13_Rb_tree_nodeISt4pairIK9PieceNamecEEED2Ev
FNDA:0,_ZNSaISt13_Rb_tree_nodeISt4pairIK9PieceNamecEEED2Ev
FN:153,_ZNSaI4PawnED2Ev
FNDA:0,_ZNSaI4PawnED2Ev
FN:153,_ZNSaI4KingED2Ev
FNDA:0,_ZNSaI4KingED2Ev
FN:153,_ZNSaISt23_Sp_counted_ptr_inplaceI4PawnSaIS0_ELN9__gnu_cxx12_Lock_policyE2EEED2Ev
FNDA:0,_ZNSaISt23_Sp_counted_ptr_inplaceI4PawnSaIS0_ELN9__gnu_cxx12_Lock_policyE2EEED2Ev
FN:153,_ZNSaISt23_Sp_counted_ptr_inplaceI4KingSaIS0_ELN9__gnu_cxx12_Lock_policyE2EEED2Ev
FNDA:0,_ZNSaISt23_Sp_counted_ptr_inplaceI4KingSaIS0_ELN9__gnu_cxx12_Lock_policyE2EEED2Ev
DA:138,0
DA:138,20
DA:138,0
DA:138,0
DA:141,0
DA:142,0
DA:141,0
DA:142,0
DA:141,1966
DA:142,1966
DA:141,0
DA:142,0
DA:141,0
DA:142,0
DA:141,0
DA:142,0
DA:141,0
DA:142,0
DA:151,0
DA:151,0
DA:153,0
DA:153,0
DA:153,0
DA:153,0
DA:153,0
DA:153,0
DA:153,0
DA:153,20
DA:153,0
DA:153,0
DA:153,0
end_of_record
SF:/home/napiad/studia/eiti/mgr/sem1/zpr/checkers-webapp/checkers/src/AIPlayer.h
end_of_record
SF:/usr/include/c++/9/bits/stl_tree.h
FN:112,_ZNSt18_Rb_tree_node_base10_S_minimumEPS_
FNDA:0,_ZNSt18_Rb_tree_node_base10_S_minimumEPS_
FN:126,_ZNSt18_Rb_tree_node_base10_S_maximumEPS_
FNDA:0,_ZNSt18_Rb_tree_node_base10_S_maximumEPS_
FN:152,_ZNSt20_Rb_tree_key_compareISt4lessI9PieceNameEEC2ERKS2_
FNDA:0,_ZNSt20_Rb_tree_key_compareISt4lessI9PieceNameEEC2ERKS2_
FN:152,_ZNSt20_Rb_tree_key_compareISt4lessINSt7__cxx1112basic_stringIcSt11char_traitsIcESaIcEEEEEC2ERKS7_
FNDA:0,_ZNSt20_Rb_tree_key_compareISt4lessINSt7__cxx1112basic_stringIcSt11char_traitsIcESaIcEEEEEC2ERKS7_
FN:173,_ZNSt15_Rb_tree_headerC2Ev
FNDA:0,_ZNSt15_Rb_tree_headerC2Ev
FN:206,_ZNSt15_Rb_tree_header8_M_resetEv
FNDA:0,_ZNSt15_Rb_tree_header8_M_resetEv
FN:234,_ZNSt13_Rb_tree_nodeISt4pairIK9PieceNamecEE9_M_valptrEv
FNDA:0,_ZNSt13_Rb_tree_nodeISt4pairIK9PieceNamecEE9_M_valptrEv
FN:234,_ZNSt13_Rb_tree_nodeISt4pairIKNSt7__cxx1112basic_stringIcSt11char_traitsIcESaIcEEE8PositionEE9_M_valptrEv
FNDA:0,_ZNSt13_Rb_tree_nodeISt4pairIKNSt7__cxx1112basic_stringIcSt11char_traitsIcESaIcEEE8PositionEE9_M_valptrEv
FN:238,_ZNKSt13_Rb_tree_nodeISt4pairIKNSt7__cxx1112basic_stringIcSt11char_traitsIcESaIcEEE8PositionEE9_M_valptrEv
FNDA:0,_ZNKSt13_Rb_tree_nodeISt4pairIKNSt7__cxx1112basic_stringIcSt11char_traitsIcESaIcEEE8PositionEE9_M_valptrEv
FN:238,_ZNKSt13_Rb_tree_nodeISt4pairIK9PieceNamecEE9_M_valptrEv
FNDA:0,_ZNKSt13_Rb_tree_nodeISt4pairIK9PieceNamecEE9_M_valptrEv
FN:538,_ZNSt8_Rb_treeI9PieceNameSt4pairIKS0_cESt10_Select1stIS3_ESt4lessIS0_ESaIS3_EE11_Alloc_nodeC2ERS9_
FNDA:0,_ZNSt8_Rb_treeI9PieceNameSt4pairIKS0_cESt10_Select1stIS3_ESt4lessIS0_ESaIS3_EE11_Alloc_nodeC2ERS9_
FN:538,_ZNSt8_Rb_treeINSt7__cxx1112basic_stringIcSt11char_traitsIcESaIcEEESt4pairIKS5_8PositionESt10_Select1stIS9_ESt4lessIS5_ESaIS9_EE11_Alloc_nodeC2ERSF_
FNDA:0,_ZNSt8_Rb_treeINSt7__cxx1112basic_stringIcSt11char_traitsIcESaIcEEESt4pairIKS5_8PositionESt10_Select1stIS9_ESt4lessIS5_ESaIS9_EE11_Alloc_nodeC2ERSF_
